---
triple:          'arm64-apple-darwin'
binary-path:     'project/addons/sentry/bin/macos/libsentry.macos.release.framework/libsentry.macos.release'
relocations:
  - { offset: 0x20DA4, size: 0x8, addend: 0x0, symName: __ZN5godot25call_with_ptr_args_helperIN6sentry7logging17SentryGodotLoggerEJRKNS_6StringES6_iS6_S6_biRKNS_10TypedArrayINS_3RefINS_15ScriptBacktraceEEEEEEJLm0ELm1ELm2ELm3ELm4ELm5ELm6ELm7EEEEvPT_MSE_FvDpT0_EPKPKvNS_13IndexSequenceIJXspT1_EEEE, symObjAddr: 0xAFE4, symBinAddr: 0xBB2C, symSize: 0x1AC }
  - { offset: 0x3EA26, size: 0x8, addend: 0x0, symName: __ZNSt3__127__tree_balance_after_insertB8nn190102IPNS_16__tree_node_baseIPvEEEEvT_S5_, symObjAddr: 0x3280, symBinAddr: 0x3DC8, symSize: 0x1B4 }
  - { offset: 0x4049E, size: 0x8, addend: 0x0, symName: __ZSt28__throw_bad_array_new_lengthB8nn190102v, symObjAddr: 0x2044, symBinAddr: 0x2B8C, symSize: 0xC }
  - { offset: 0x404BB, size: 0x8, addend: 0x0, symName: __ZNSt3__112__hash_tableINS_17__hash_value_typeIN5godot10StringNameEPK35GDExtensionInstanceBindingCallbacksEENS_22__unordered_map_hasherIS3_S7_NS_4hashIS3_EENS_8equal_toIS3_EELb1EEENS_21__unordered_map_equalIS3_S7_SC_SA_Lb1EEENS_9allocatorIS7_EEE11__do_rehashILb1EEEvm, symObjAddr: 0x2050, symBinAddr: 0x2B98, symSize: 0x1A0 }
  - { offset: 0x4148E, size: 0x8, addend: 0x0, symName: __ZN5godot6Object22_gde_binding_callbacksE, symObjAddr: 0xFAD8, symBinAddr: 0x16C2D8, symSize: 0x0 }
  - { offset: 0x414A2, size: 0x8, addend: 0x0, symName: __ZN5godot16ClassDBSingleton22_gde_binding_callbacksE, symObjAddr: 0xFB68, symBinAddr: 0x16C368, symSize: 0x0 }
  - { offset: 0x414B6, size: 0x8, addend: 0x0, symName: __ZN5godot10RefCounted22_gde_binding_callbacksE, symObjAddr: 0xFB80, symBinAddr: 0x16C380, symSize: 0x0 }
  - { offset: 0x414CA, size: 0x8, addend: 0x0, symName: __ZN5godot6Logger22_gde_binding_callbacksE, symObjAddr: 0xFBD8, symBinAddr: 0x16C3D8, symSize: 0x0 }
  - { offset: 0x414DE, size: 0x8, addend: 0x0, symName: __ZN5godot15ScriptBacktrace22_gde_binding_callbacksE, symObjAddr: 0xFBF0, symBinAddr: 0x16C3F0, symSize: 0x0 }
  - { offset: 0x414F2, size: 0x8, addend: 0x0, symName: __ZN5godot10ConfigFile22_gde_binding_callbacksE, symObjAddr: 0xFC48, symBinAddr: 0x16C448, symSize: 0x0 }
  - { offset: 0x41506, size: 0x8, addend: 0x0, symName: __ZN5godot5Mutex22_gde_binding_callbacksE, symObjAddr: 0xFCA0, symBinAddr: 0x16C4A0, symSize: 0x0 }
  - { offset: 0x4151A, size: 0x8, addend: 0x0, symName: __ZN5godot6Engine22_gde_binding_callbacksE, symObjAddr: 0xFCF8, symBinAddr: 0x16C4F8, symSize: 0x0 }
  - { offset: 0x4152E, size: 0x8, addend: 0x0, symName: __ZN5godot8MainLoop22_gde_binding_callbacksE, symObjAddr: 0xFD10, symBinAddr: 0x16C510, symSize: 0x0 }
  - { offset: 0x41542, size: 0x8, addend: 0x0, symName: __ZN5godot9SceneTree22_gde_binding_callbacksE, symObjAddr: 0xFD28, symBinAddr: 0x16C528, symSize: 0x0 }
  - { offset: 0x41556, size: 0x8, addend: 0x0, symName: __ZN5godot13DisplayServer22_gde_binding_callbacksE, symObjAddr: 0xFDA0, symBinAddr: 0x16C5A0, symSize: 0x0 }
  - { offset: 0x4156A, size: 0x8, addend: 0x0, symName: __ZN5godot4Node22_gde_binding_callbacksE, symObjAddr: 0xFDB8, symBinAddr: 0x16C5B8, symSize: 0x0 }
  - { offset: 0x4157E, size: 0x8, addend: 0x0, symName: __ZN5godot8Viewport22_gde_binding_callbacksE, symObjAddr: 0xFDD0, symBinAddr: 0x16C5D0, symSize: 0x0 }
  - { offset: 0x41592, size: 0x8, addend: 0x0, symName: __ZN5godot6Window22_gde_binding_callbacksE, symObjAddr: 0xFE88, symBinAddr: 0x16C688, symSize: 0x0 }
  - { offset: 0x415A6, size: 0x8, addend: 0x0, symName: __ZN6sentry18SentryLoggerLimits22_gde_binding_callbacksE, symObjAddr: 0xFEA0, symBinAddr: 0x16C6A0, symSize: 0x0 }
  - { offset: 0x47863, size: 0x8, addend: 0x0, symName: __ZN6sentry18SentryExperimental22_gde_binding_callbacksE, symObjAddr: 0xFEF8, symBinAddr: 0x16C6F8, symSize: 0x0 }
  - { offset: 0x4788B, size: 0x8, addend: 0x0, symName: __ZN6sentry13SentryOptions22_gde_binding_callbacksE, symObjAddr: 0xFF50, symBinAddr: 0x16C750, symSize: 0x0 }
  - { offset: 0x47B24, size: 0x8, addend: 0x0, symName: __ZN6sentry13RuntimeConfig22_gde_binding_callbacksE, symObjAddr: 0xFF68, symBinAddr: 0x16C768, symSize: 0x0 }
  - { offset: 0x47B6A, size: 0x8, addend: 0x0, symName: __ZN6sentry10SentryUser22_gde_binding_callbacksE, symObjAddr: 0xFF80, symBinAddr: 0x16C780, symSize: 0x0 }
  - { offset: 0x47B92, size: 0x8, addend: 0x0, symName: __ZN6sentry15SentryTimestamp22_gde_binding_callbacksE, symObjAddr: 0xFFD8, symBinAddr: 0x16C7D8, symSize: 0x0 }
  - { offset: 0x47BA6, size: 0x8, addend: 0x0, symName: __ZN6sentry12SentryLogger22_gde_binding_callbacksE, symObjAddr: 0x10030, symBinAddr: 0x16C830, symSize: 0x0 }
  - { offset: 0x47BCE, size: 0x8, addend: 0x0, symName: __ZN6sentry14SentryFeedback22_gde_binding_callbacksE, symObjAddr: 0x10048, symBinAddr: 0x16C848, symSize: 0x0 }
  - { offset: 0x47BF6, size: 0x8, addend: 0x0, symName: __ZN6sentry9SentrySDK22_gde_binding_callbacksE, symObjAddr: 0x100A0, symBinAddr: 0x16C8A0, symSize: 0x0 }
  - { offset: 0x484A4, size: 0x8, addend: 0x0, symName: __ZN6sentry16SentryAttachment22_gde_binding_callbacksE, symObjAddr: 0x100B8, symBinAddr: 0x16C8B8, symSize: 0x0 }
  - { offset: 0x484CC, size: 0x8, addend: 0x0, symName: __ZN6sentry11SentryEvent22_gde_binding_callbacksE, symObjAddr: 0x10110, symBinAddr: 0x16C910, symSize: 0x0 }
  - { offset: 0x484E0, size: 0x8, addend: 0x0, symName: __ZN6sentry16SentryBreadcrumb22_gde_binding_callbacksE, symObjAddr: 0x10128, symBinAddr: 0x16C928, symSize: 0x0 }
  - { offset: 0x48508, size: 0x8, addend: 0x0, symName: __ZN6sentry9SentryLog22_gde_binding_callbacksE, symObjAddr: 0x10140, symBinAddr: 0x16C940, symSize: 0x0 }
  - { offset: 0x48530, size: 0x8, addend: 0x0, symName: __ZN6sentry13DisabledEvent22_gde_binding_callbacksE, symObjAddr: 0x10158, symBinAddr: 0x16C958, symSize: 0x0 }
  - { offset: 0x48558, size: 0x8, addend: 0x0, symName: __ZN6sentry20SentryEventProcessor22_gde_binding_callbacksE, symObjAddr: 0x10298, symBinAddr: 0x16CA98, symSize: 0x0 }
  - { offset: 0x4856C, size: 0x8, addend: 0x0, symName: __ZN6sentry19ScreenshotProcessor22_gde_binding_callbacksE, symObjAddr: 0x102F8, symBinAddr: 0x16CAF8, symSize: 0x0 }
  - { offset: 0x48594, size: 0x8, addend: 0x0, symName: __ZN6sentry22ViewHierarchyProcessor22_gde_binding_callbacksE, symObjAddr: 0x10310, symBinAddr: 0x16CB10, symSize: 0x0 }
  - { offset: 0x485CB, size: 0x8, addend: 0x0, symName: __ZN6sentry7logging17SentryGodotLogger22_gde_binding_callbacksE, symObjAddr: 0x10328, symBinAddr: 0x16CB28, symSize: 0x0 }
  - { offset: 0x485DF, size: 0x8, addend: 0x0, symName: __ZN6sentry5cocoa10CocoaEvent22_gde_binding_callbacksE, symObjAddr: 0x10340, symBinAddr: 0x16CB40, symSize: 0x0 }
  - { offset: 0x48627, size: 0x8, addend: 0x0, symName: __ZN6sentry5cocoa15CocoaBreadcrumb22_gde_binding_callbacksE, symObjAddr: 0x10358, symBinAddr: 0x16CB58, symSize: 0x0 }
  - { offset: 0x48654, size: 0x8, addend: 0x0, symName: __ZN6sentry5cocoa8CocoaLog22_gde_binding_callbacksE, symObjAddr: 0x10370, symBinAddr: 0x16CB70, symSize: 0x0 }
  - { offset: 0x4A9D9, size: 0x8, addend: 0x0, symName: ___cxx_global_var_init, symObjAddr: 0xF350, symBinAddr: 0xCF30, symSize: 0x4C }
  - { offset: 0x4AA5E, size: 0x8, addend: 0x0, symName: ___cxx_global_var_init.1, symObjAddr: 0xF39C, symBinAddr: 0xCF7C, symSize: 0x4C }
  - { offset: 0x4AAE3, size: 0x8, addend: 0x0, symName: ___cxx_global_var_init.2, symObjAddr: 0xF3E8, symBinAddr: 0xCFC8, symSize: 0x4C }
  - { offset: 0x4AB68, size: 0x8, addend: 0x0, symName: ___cxx_global_var_init.3, symObjAddr: 0xF434, symBinAddr: 0xD014, symSize: 0x4C }
  - { offset: 0x4ABED, size: 0x8, addend: 0x0, symName: ___cxx_global_var_init.4, symObjAddr: 0xF480, symBinAddr: 0xD060, symSize: 0x4C }
  - { offset: 0x4AC72, size: 0x8, addend: 0x0, symName: ___cxx_global_var_init.5, symObjAddr: 0xF4CC, symBinAddr: 0xD0AC, symSize: 0x4C }
  - { offset: 0x4ACF7, size: 0x8, addend: 0x0, symName: ___cxx_global_var_init.6, symObjAddr: 0xF518, symBinAddr: 0xD0F8, symSize: 0x4C }
  - { offset: 0x4AD7C, size: 0x8, addend: 0x0, symName: ___cxx_global_var_init.7, symObjAddr: 0xF564, symBinAddr: 0xD144, symSize: 0x4C }
  - { offset: 0x4AE01, size: 0x8, addend: 0x0, symName: ___cxx_global_var_init.8, symObjAddr: 0xF5B0, symBinAddr: 0xD190, symSize: 0x4C }
  - { offset: 0x4AE86, size: 0x8, addend: 0x0, symName: ___cxx_global_var_init.9, symObjAddr: 0xF5FC, symBinAddr: 0xD1DC, symSize: 0x4C }
  - { offset: 0x4AF0B, size: 0x8, addend: 0x0, symName: ___cxx_global_var_init.10, symObjAddr: 0xF648, symBinAddr: 0xD228, symSize: 0x4C }
  - { offset: 0x4AF90, size: 0x8, addend: 0x0, symName: ___cxx_global_var_init.11, symObjAddr: 0xF694, symBinAddr: 0xD274, symSize: 0x4C }
  - { offset: 0x4B015, size: 0x8, addend: 0x0, symName: ___cxx_global_var_init.12, symObjAddr: 0xF6E0, symBinAddr: 0xD2C0, symSize: 0x4C }
  - { offset: 0x4B09A, size: 0x8, addend: 0x0, symName: ___cxx_global_var_init.13, symObjAddr: 0xF72C, symBinAddr: 0xD30C, symSize: 0x4C }
  - { offset: 0x4B2B2, size: 0x8, addend: 0x0, symName: __Z24register_runtime_classesv, symObjAddr: 0x0, symBinAddr: 0xB48, symSize: 0x15C }
  - { offset: 0x4B73C, size: 0x8, addend: 0x0, symName: __ZN5godot7ClassDB15_register_classIN6sentry18SentryLoggerLimitsELb0EEEvbbb, symObjAddr: 0x160C, symBinAddr: 0x2154, symSize: 0x32C }
  - { offset: 0x4C005, size: 0x8, addend: 0x0, symName: __ZN5godot7ClassDB15_register_classIN6sentry18SentryExperimentalELb0EEEvbbb, symObjAddr: 0x3FD4, symBinAddr: 0x4B1C, symSize: 0x32C }
  - { offset: 0x4C8CE, size: 0x8, addend: 0x0, symName: __ZN5godot7ClassDB15_register_classIN6sentry13SentryOptionsELb0EEEvbbb, symObjAddr: 0x4734, symBinAddr: 0x527C, symSize: 0x32C }
  - { offset: 0x4D197, size: 0x8, addend: 0x0, symName: __ZN5godot7ClassDB15_register_classIN6sentry13RuntimeConfigELb0EEEvbbb, symObjAddr: 0x4D28, symBinAddr: 0x5870, symSize: 0x328 }
  - { offset: 0x4DA60, size: 0x8, addend: 0x0, symName: __ZN5godot7ClassDB15_register_classIN6sentry10SentryUserELb0EEEvbbb, symObjAddr: 0x5318, symBinAddr: 0x5E60, symSize: 0x32C }
  - { offset: 0x4E329, size: 0x8, addend: 0x0, symName: __ZN5godot7ClassDB15_register_classIN6sentry15SentryTimestampELb0EEEvbbb, symObjAddr: 0x5A70, symBinAddr: 0x65B8, symSize: 0x32C }
  - { offset: 0x4EBF2, size: 0x8, addend: 0x0, symName: __ZN5godot7ClassDB15_register_classIN6sentry12SentryLoggerELb0EEEvbbb, symObjAddr: 0x61D4, symBinAddr: 0x6D1C, symSize: 0x32C }
  - { offset: 0x4F4BB, size: 0x8, addend: 0x0, symName: __ZN5godot7ClassDB15_register_classIN6sentry14SentryFeedbackELb0EEEvbbb, symObjAddr: 0x67C8, symBinAddr: 0x7310, symSize: 0x32C }
  - { offset: 0x4FD84, size: 0x8, addend: 0x0, symName: __ZN5godot7ClassDB15_register_classIN6sentry9SentrySDKELb0EEEvbbb, symObjAddr: 0x6F20, symBinAddr: 0x7A68, symSize: 0x32C }
  - { offset: 0x5064D, size: 0x8, addend: 0x0, symName: __ZN5godot7ClassDB15_register_classIN6sentry16SentryAttachmentELb1EEEvbbb, symObjAddr: 0x751C, symBinAddr: 0x8064, symSize: 0x330 }
  - { offset: 0x50F16, size: 0x8, addend: 0x0, symName: __ZN5godot7ClassDB15_register_classIN6sentry11SentryEventELb1EEEvbbb, symObjAddr: 0x7C78, symBinAddr: 0x87C0, symSize: 0x330 }
  - { offset: 0x517DF, size: 0x8, addend: 0x0, symName: __ZN5godot7ClassDB15_register_classIN6sentry16SentryBreadcrumbELb1EEEvbbb, symObjAddr: 0x81F8, symBinAddr: 0x8D40, symSize: 0x330 }
  - { offset: 0x520A8, size: 0x8, addend: 0x0, symName: __ZN5godot7ClassDB15_register_classIN6sentry9SentryLogELb1EEEvbbb, symObjAddr: 0x8778, symBinAddr: 0x92C0, symSize: 0x330 }
  - { offset: 0x52971, size: 0x8, addend: 0x0, symName: __ZN5godot7ClassDB15_register_classIN6sentry13DisabledEventELb0EEEvbbb, symObjAddr: 0x8CF8, symBinAddr: 0x9840, symSize: 0x338 }
  - { offset: 0x53250, size: 0x8, addend: 0x0, symName: __ZN5godot7ClassDB15_register_classIN6sentry20SentryEventProcessorELb0EEEvbbb, symObjAddr: 0x95D0, symBinAddr: 0xA118, symSize: 0x32C }
  - { offset: 0x53B19, size: 0x8, addend: 0x0, symName: __ZN5godot7ClassDB15_register_classIN6sentry19ScreenshotProcessorELb0EEEvbbb, symObjAddr: 0x9D48, symBinAddr: 0xA890, symSize: 0x338 }
  - { offset: 0x543F8, size: 0x8, addend: 0x0, symName: __ZN5godot7ClassDB15_register_classIN6sentry22ViewHierarchyProcessorELb0EEEvbbb, symObjAddr: 0xA318, symBinAddr: 0xAE60, symSize: 0x338 }
  - { offset: 0x54CD7, size: 0x8, addend: 0x0, symName: __ZN5godot7ClassDB15_register_classIN6sentry7logging17SentryGodotLoggerELb0EEEvbbb, symObjAddr: 0xA8E8, symBinAddr: 0xB430, symSize: 0x330 }
  - { offset: 0x555AD, size: 0x8, addend: 0x0, symName: __ZN5godot7ClassDB15_register_classIN6sentry5cocoa10CocoaEventELb0EEEvbbb, symObjAddr: 0xB224, symBinAddr: 0xBD6C, symSize: 0x338 }
  - { offset: 0x55E8C, size: 0x8, addend: 0x0, symName: __ZN5godot7ClassDB15_register_classIN6sentry5cocoa15CocoaBreadcrumbELb0EEEvbbb, symObjAddr: 0xB7F4, symBinAddr: 0xC33C, symSize: 0x338 }
  - { offset: 0x5676B, size: 0x8, addend: 0x0, symName: __ZN5godot7ClassDB15_register_classIN6sentry5cocoa8CocoaLogELb0EEEvbbb, symObjAddr: 0xBDC4, symBinAddr: 0xC90C, symSize: 0x338 }
  - { offset: 0x5704A, size: 0x8, addend: 0x0, symName: __Z23register_editor_classesv, symObjAddr: 0x15C, symBinAddr: 0xCA4, symSize: 0x4 }
  - { offset: 0x5706A, size: 0x8, addend: 0x0, symName: __Z17initialize_moduleN5godot25ModuleInitializationLevelE, symObjAddr: 0x160, symBinAddr: 0xCA8, symSize: 0x34 }
  - { offset: 0x570B5, size: 0x8, addend: 0x0, symName: __Z19uninitialize_moduleN5godot25ModuleInitializationLevelE, symObjAddr: 0x194, symBinAddr: 0xCDC, symSize: 0x20 }
  - { offset: 0x570DF, size: 0x8, addend: 0x0, symName: _gdextension_init, symObjAddr: 0x1B4, symBinAddr: 0xCFC, symSize: 0x60 }
  - { offset: 0x5713D, size: 0x8, addend: 0x0, symName: __ZN5godot8internal23EngineClassRegistrationINS_6ObjectEE8callbackEv, symObjAddr: 0x214, symBinAddr: 0xD5C, symSize: 0x48 }
  - { offset: 0x57187, size: 0x8, addend: 0x0, symName: __ZN5godot8internal23EngineClassRegistrationINS_6ObjectEE8callbackEv.cold.1, symObjAddr: 0xC394, symBinAddr: 0xE9FFC, symSize: 0x5C }
  - { offset: 0x571FF, size: 0x8, addend: 0x0, symName: __ZN5godot6Object28_gde_binding_create_callbackEPvS1_, symObjAddr: 0x25C, symBinAddr: 0xDA4, symSize: 0x44 }
  - { offset: 0x57278, size: 0x8, addend: 0x0, symName: __ZN5godot6Object26_gde_binding_free_callbackEPvS1_S1_, symObjAddr: 0x2A0, symBinAddr: 0xDE8, symSize: 0x34 }
  - { offset: 0x572CD, size: 0x8, addend: 0x0, symName: __ZN5godot6Object31_gde_binding_reference_callbackEPvS1_h, symObjAddr: 0x2D4, symBinAddr: 0xE1C, symSize: 0x8 }
  - { offset: 0x5730D, size: 0x8, addend: 0x0, symName: __ZNK5godot7Wrapped19_is_extension_classEv, symObjAddr: 0x2DC, symBinAddr: 0xE24, symSize: 0x8 }
  - { offset: 0x57413, size: 0x8, addend: 0x0, symName: __ZN5godot6ObjectD1Ev, symObjAddr: 0x2E4, symBinAddr: 0xE2C, symSize: 0x8C }
  - { offset: 0x57585, size: 0x8, addend: 0x0, symName: __ZN5godot4ListINS_12PropertyInfoENS_16DefaultAllocatorEE5_Data5eraseEPNS3_7ElementE, symObjAddr: 0x4E4, symBinAddr: 0x102C, symSize: 0xE4 }
  - { offset: 0x5767D, size: 0x8, addend: 0x0, symName: __ZN5godot6ObjectD1Ev.cold.1, symObjAddr: 0xC3F0, symBinAddr: 0xEA058, symSize: 0x1C }
  - { offset: 0x57698, size: 0x8, addend: 0x0, symName: __ZN5godot6ObjectD1Ev.cold.1, symObjAddr: 0xC3F0, symBinAddr: 0xEA058, symSize: 0x1C }
  - { offset: 0x576AC, size: 0x8, addend: 0x0, symName: __ZN5godot6ObjectD1Ev.cold.1, symObjAddr: 0xC3F0, symBinAddr: 0xEA058, symSize: 0x1C }
  - { offset: 0x576C0, size: 0x8, addend: 0x0, symName: __ZN5godot6ObjectD1Ev.cold.1, symObjAddr: 0xC3F0, symBinAddr: 0xEA058, symSize: 0x1C }
  - { offset: 0x576D5, size: 0x8, addend: 0x0, symName: __ZN5godot6ObjectD1Ev.cold.1, symObjAddr: 0xC3F0, symBinAddr: 0xEA058, symSize: 0x1C }
  - { offset: 0x57705, size: 0x8, addend: 0x0, symName: __ZN5godot6ObjectD0Ev, symObjAddr: 0x370, symBinAddr: 0xEB8, symSize: 0x74 }
  - { offset: 0x57822, size: 0x8, addend: 0x0, symName: __ZN5godot6ObjectD0Ev.cold.1, symObjAddr: 0xC40C, symBinAddr: 0xEA074, symSize: 0x1C }
  - { offset: 0x5783D, size: 0x8, addend: 0x0, symName: __ZN5godot6ObjectD0Ev.cold.1, symObjAddr: 0xC40C, symBinAddr: 0xEA074, symSize: 0x1C }
  - { offset: 0x57851, size: 0x8, addend: 0x0, symName: __ZN5godot6ObjectD0Ev.cold.1, symObjAddr: 0xC40C, symBinAddr: 0xEA074, symSize: 0x1C }
  - { offset: 0x57865, size: 0x8, addend: 0x0, symName: __ZN5godot6ObjectD0Ev.cold.1, symObjAddr: 0xC40C, symBinAddr: 0xEA074, symSize: 0x1C }
  - { offset: 0x57879, size: 0x8, addend: 0x0, symName: __ZN5godot6ObjectD0Ev.cold.1, symObjAddr: 0xC40C, symBinAddr: 0xEA074, symSize: 0x1C }
  - { offset: 0x5788E, size: 0x8, addend: 0x0, symName: __ZN5godot6ObjectD0Ev.cold.1, symObjAddr: 0xC40C, symBinAddr: 0xEA074, symSize: 0x1C }
  - { offset: 0x578A5, size: 0x8, addend: 0x0, symName: __ZN5godot7WrappedD1Ev, symObjAddr: 0x3E4, symBinAddr: 0xF2C, symSize: 0x8C }
  - { offset: 0x57A01, size: 0x8, addend: 0x0, symName: __ZN5godot7WrappedD1Ev.cold.1, symObjAddr: 0xC428, symBinAddr: 0xEA090, symSize: 0x1C }
  - { offset: 0x57A1C, size: 0x8, addend: 0x0, symName: __ZN5godot7WrappedD1Ev.cold.1, symObjAddr: 0xC428, symBinAddr: 0xEA090, symSize: 0x1C }
  - { offset: 0x57A30, size: 0x8, addend: 0x0, symName: __ZN5godot7WrappedD1Ev.cold.1, symObjAddr: 0xC428, symBinAddr: 0xEA090, symSize: 0x1C }
  - { offset: 0x57A45, size: 0x8, addend: 0x0, symName: __ZN5godot7WrappedD1Ev.cold.1, symObjAddr: 0xC428, symBinAddr: 0xEA090, symSize: 0x1C }
  - { offset: 0x57A74, size: 0x8, addend: 0x0, symName: __ZN5godot7WrappedD0Ev, symObjAddr: 0x470, symBinAddr: 0xFB8, symSize: 0x74 }
  - { offset: 0x57B7B, size: 0x8, addend: 0x0, symName: __ZN5godot7WrappedD0Ev.cold.1, symObjAddr: 0xC444, symBinAddr: 0xEA0AC, symSize: 0x1C }
  - { offset: 0x57B96, size: 0x8, addend: 0x0, symName: __ZN5godot7WrappedD0Ev.cold.1, symObjAddr: 0xC444, symBinAddr: 0xEA0AC, symSize: 0x1C }
  - { offset: 0x57BAA, size: 0x8, addend: 0x0, symName: __ZN5godot7WrappedD0Ev.cold.1, symObjAddr: 0xC444, symBinAddr: 0xEA0AC, symSize: 0x1C }
  - { offset: 0x57BBE, size: 0x8, addend: 0x0, symName: __ZN5godot7WrappedD0Ev.cold.1, symObjAddr: 0xC444, symBinAddr: 0xEA0AC, symSize: 0x1C }
  - { offset: 0x57BD3, size: 0x8, addend: 0x0, symName: __ZN5godot7WrappedD0Ev.cold.1, symObjAddr: 0xC444, symBinAddr: 0xEA0AC, symSize: 0x1C }
  - { offset: 0x57C59, size: 0x8, addend: 0x0, symName: __ZN5godot4ListINS_12PropertyInfoENS_16DefaultAllocatorEE5_Data5eraseEPNS3_7ElementE.cold.2, symObjAddr: 0xC480, symBinAddr: 0xEA0E8, symSize: 0x20 }
  - { offset: 0x57C71, size: 0x8, addend: 0x0, symName: __ZN5godot4ListINS_12PropertyInfoENS_16DefaultAllocatorEE5_Data5eraseEPNS3_7ElementE.cold.1, symObjAddr: 0xC460, symBinAddr: 0xEA0C8, symSize: 0x20 }
  - { offset: 0x57C90, size: 0x8, addend: 0x0, symName: __ZN5godot8internal23EngineClassRegistrationINS_16ClassDBSingletonEE8callbackEv, symObjAddr: 0x5C8, symBinAddr: 0x1110, symSize: 0x48 }
  - { offset: 0x57CDA, size: 0x8, addend: 0x0, symName: __ZN5godot8internal23EngineClassRegistrationINS_16ClassDBSingletonEE8callbackEv.cold.1, symObjAddr: 0xC4A0, symBinAddr: 0xEA108, symSize: 0x5C }
  - { offset: 0x57D52, size: 0x8, addend: 0x0, symName: __ZN5godot16ClassDBSingleton28_gde_binding_create_callbackEPvS1_, symObjAddr: 0x610, symBinAddr: 0x1158, symSize: 0x48 }
  - { offset: 0x57DEE, size: 0x8, addend: 0x0, symName: __ZN5godot16ClassDBSingleton26_gde_binding_free_callbackEPvS1_S1_, symObjAddr: 0x658, symBinAddr: 0x11A0, symSize: 0x34 }
  - { offset: 0x57E43, size: 0x8, addend: 0x0, symName: __ZN5godot16ClassDBSingleton31_gde_binding_reference_callbackEPvS1_h, symObjAddr: 0x68C, symBinAddr: 0x11D4, symSize: 0x8 }
  - { offset: 0x57E8A, size: 0x8, addend: 0x0, symName: __ZN5godot8internal23EngineClassRegistrationINS_10RefCountedEE8callbackEv, symObjAddr: 0x694, symBinAddr: 0x11DC, symSize: 0x48 }
  - { offset: 0x57ED4, size: 0x8, addend: 0x0, symName: __ZN5godot8internal23EngineClassRegistrationINS_10RefCountedEE8callbackEv.cold.1, symObjAddr: 0xC4FC, symBinAddr: 0xEA164, symSize: 0x5C }
  - { offset: 0x57F4C, size: 0x8, addend: 0x0, symName: __ZN5godot10RefCounted28_gde_binding_create_callbackEPvS1_, symObjAddr: 0x6DC, symBinAddr: 0x1224, symSize: 0x44 }
  - { offset: 0x57FE8, size: 0x8, addend: 0x0, symName: __ZN5godot10RefCounted26_gde_binding_free_callbackEPvS1_S1_, symObjAddr: 0x720, symBinAddr: 0x1268, symSize: 0x34 }
  - { offset: 0x5803D, size: 0x8, addend: 0x0, symName: __ZN5godot10RefCounted31_gde_binding_reference_callbackEPvS1_h, symObjAddr: 0x754, symBinAddr: 0x129C, symSize: 0x8 }
  - { offset: 0x58099, size: 0x8, addend: 0x0, symName: __ZN5godot10RefCountedD1Ev, symObjAddr: 0x75C, symBinAddr: 0x12A4, symSize: 0x8C }
  - { offset: 0x58221, size: 0x8, addend: 0x0, symName: __ZN5godot10RefCountedD1Ev.cold.1, symObjAddr: 0xC558, symBinAddr: 0xEA1C0, symSize: 0x1C }
  - { offset: 0x5823C, size: 0x8, addend: 0x0, symName: __ZN5godot10RefCountedD1Ev.cold.1, symObjAddr: 0xC558, symBinAddr: 0xEA1C0, symSize: 0x1C }
  - { offset: 0x58250, size: 0x8, addend: 0x0, symName: __ZN5godot10RefCountedD1Ev.cold.1, symObjAddr: 0xC558, symBinAddr: 0xEA1C0, symSize: 0x1C }
  - { offset: 0x58264, size: 0x8, addend: 0x0, symName: __ZN5godot10RefCountedD1Ev.cold.1, symObjAddr: 0xC558, symBinAddr: 0xEA1C0, symSize: 0x1C }
  - { offset: 0x58278, size: 0x8, addend: 0x0, symName: __ZN5godot10RefCountedD1Ev.cold.1, symObjAddr: 0xC558, symBinAddr: 0xEA1C0, symSize: 0x1C }
  - { offset: 0x5828D, size: 0x8, addend: 0x0, symName: __ZN5godot10RefCountedD1Ev.cold.1, symObjAddr: 0xC558, symBinAddr: 0xEA1C0, symSize: 0x1C }
  - { offset: 0x582C0, size: 0x8, addend: 0x0, symName: __ZN5godot10RefCountedD0Ev, symObjAddr: 0x7E8, symBinAddr: 0x1330, symSize: 0x74 }
  - { offset: 0x583F5, size: 0x8, addend: 0x0, symName: __ZN5godot10RefCountedD0Ev.cold.1, symObjAddr: 0xC574, symBinAddr: 0xEA1DC, symSize: 0x1C }
  - { offset: 0x58410, size: 0x8, addend: 0x0, symName: __ZN5godot10RefCountedD0Ev.cold.1, symObjAddr: 0xC574, symBinAddr: 0xEA1DC, symSize: 0x1C }
  - { offset: 0x58424, size: 0x8, addend: 0x0, symName: __ZN5godot10RefCountedD0Ev.cold.1, symObjAddr: 0xC574, symBinAddr: 0xEA1DC, symSize: 0x1C }
  - { offset: 0x58438, size: 0x8, addend: 0x0, symName: __ZN5godot10RefCountedD0Ev.cold.1, symObjAddr: 0xC574, symBinAddr: 0xEA1DC, symSize: 0x1C }
  - { offset: 0x5844C, size: 0x8, addend: 0x0, symName: __ZN5godot10RefCountedD0Ev.cold.1, symObjAddr: 0xC574, symBinAddr: 0xEA1DC, symSize: 0x1C }
  - { offset: 0x58460, size: 0x8, addend: 0x0, symName: __ZN5godot10RefCountedD0Ev.cold.1, symObjAddr: 0xC574, symBinAddr: 0xEA1DC, symSize: 0x1C }
  - { offset: 0x58475, size: 0x8, addend: 0x0, symName: __ZN5godot10RefCountedD0Ev.cold.1, symObjAddr: 0xC574, symBinAddr: 0xEA1DC, symSize: 0x1C }
  - { offset: 0x58494, size: 0x8, addend: 0x0, symName: __ZN5godot8internal23EngineClassRegistrationINS_6LoggerEE8callbackEv, symObjAddr: 0x85C, symBinAddr: 0x13A4, symSize: 0x48 }
  - { offset: 0x584DE, size: 0x8, addend: 0x0, symName: __ZN5godot8internal23EngineClassRegistrationINS_6LoggerEE8callbackEv.cold.1, symObjAddr: 0xC590, symBinAddr: 0xEA1F8, symSize: 0x5C }
  - { offset: 0x58556, size: 0x8, addend: 0x0, symName: __ZN5godot6Logger28_gde_binding_create_callbackEPvS1_, symObjAddr: 0x8A4, symBinAddr: 0x13EC, symSize: 0x48 }
  - { offset: 0x58615, size: 0x8, addend: 0x0, symName: __ZN5godot6Logger26_gde_binding_free_callbackEPvS1_S1_, symObjAddr: 0x8EC, symBinAddr: 0x1434, symSize: 0x34 }
  - { offset: 0x5866A, size: 0x8, addend: 0x0, symName: __ZN5godot6Logger31_gde_binding_reference_callbackEPvS1_h, symObjAddr: 0x920, symBinAddr: 0x1468, symSize: 0x8 }
  - { offset: 0x586B1, size: 0x8, addend: 0x0, symName: __ZN5godot8internal23EngineClassRegistrationINS_15ScriptBacktraceEE8callbackEv, symObjAddr: 0x928, symBinAddr: 0x1470, symSize: 0x48 }
  - { offset: 0x586FB, size: 0x8, addend: 0x0, symName: __ZN5godot8internal23EngineClassRegistrationINS_15ScriptBacktraceEE8callbackEv.cold.1, symObjAddr: 0xC5EC, symBinAddr: 0xEA254, symSize: 0x5C }
  - { offset: 0x58773, size: 0x8, addend: 0x0, symName: __ZN5godot15ScriptBacktrace28_gde_binding_create_callbackEPvS1_, symObjAddr: 0x970, symBinAddr: 0x14B8, symSize: 0x44 }
  - { offset: 0x58832, size: 0x8, addend: 0x0, symName: __ZN5godot15ScriptBacktrace26_gde_binding_free_callbackEPvS1_S1_, symObjAddr: 0x9B4, symBinAddr: 0x14FC, symSize: 0x34 }
  - { offset: 0x58887, size: 0x8, addend: 0x0, symName: __ZN5godot15ScriptBacktrace31_gde_binding_reference_callbackEPvS1_h, symObjAddr: 0x9E8, symBinAddr: 0x1530, symSize: 0x8 }
  - { offset: 0x588E3, size: 0x8, addend: 0x0, symName: __ZN5godot15ScriptBacktraceD1Ev, symObjAddr: 0x9F0, symBinAddr: 0x1538, symSize: 0x8C }
  - { offset: 0x58A81, size: 0x8, addend: 0x0, symName: __ZN5godot15ScriptBacktraceD1Ev.cold.1, symObjAddr: 0xC648, symBinAddr: 0xEA2B0, symSize: 0x1C }
  - { offset: 0x58A9C, size: 0x8, addend: 0x0, symName: __ZN5godot15ScriptBacktraceD1Ev.cold.1, symObjAddr: 0xC648, symBinAddr: 0xEA2B0, symSize: 0x1C }
  - { offset: 0x58AB0, size: 0x8, addend: 0x0, symName: __ZN5godot15ScriptBacktraceD1Ev.cold.1, symObjAddr: 0xC648, symBinAddr: 0xEA2B0, symSize: 0x1C }
  - { offset: 0x58AC4, size: 0x8, addend: 0x0, symName: __ZN5godot15ScriptBacktraceD1Ev.cold.1, symObjAddr: 0xC648, symBinAddr: 0xEA2B0, symSize: 0x1C }
  - { offset: 0x58AD8, size: 0x8, addend: 0x0, symName: __ZN5godot15ScriptBacktraceD1Ev.cold.1, symObjAddr: 0xC648, symBinAddr: 0xEA2B0, symSize: 0x1C }
  - { offset: 0x58AEC, size: 0x8, addend: 0x0, symName: __ZN5godot15ScriptBacktraceD1Ev.cold.1, symObjAddr: 0xC648, symBinAddr: 0xEA2B0, symSize: 0x1C }
  - { offset: 0x58B01, size: 0x8, addend: 0x0, symName: __ZN5godot15ScriptBacktraceD1Ev.cold.1, symObjAddr: 0xC648, symBinAddr: 0xEA2B0, symSize: 0x1C }
  - { offset: 0x58B35, size: 0x8, addend: 0x0, symName: __ZN5godot15ScriptBacktraceD0Ev, symObjAddr: 0xA7C, symBinAddr: 0x15C4, symSize: 0x74 }
  - { offset: 0x58C80, size: 0x8, addend: 0x0, symName: __ZN5godot15ScriptBacktraceD0Ev.cold.1, symObjAddr: 0xC664, symBinAddr: 0xEA2CC, symSize: 0x1C }
  - { offset: 0x58C9B, size: 0x8, addend: 0x0, symName: __ZN5godot15ScriptBacktraceD0Ev.cold.1, symObjAddr: 0xC664, symBinAddr: 0xEA2CC, symSize: 0x1C }
  - { offset: 0x58CAF, size: 0x8, addend: 0x0, symName: __ZN5godot15ScriptBacktraceD0Ev.cold.1, symObjAddr: 0xC664, symBinAddr: 0xEA2CC, symSize: 0x1C }
  - { offset: 0x58CC3, size: 0x8, addend: 0x0, symName: __ZN5godot15ScriptBacktraceD0Ev.cold.1, symObjAddr: 0xC664, symBinAddr: 0xEA2CC, symSize: 0x1C }
  - { offset: 0x58CD7, size: 0x8, addend: 0x0, symName: __ZN5godot15ScriptBacktraceD0Ev.cold.1, symObjAddr: 0xC664, symBinAddr: 0xEA2CC, symSize: 0x1C }
  - { offset: 0x58CEB, size: 0x8, addend: 0x0, symName: __ZN5godot15ScriptBacktraceD0Ev.cold.1, symObjAddr: 0xC664, symBinAddr: 0xEA2CC, symSize: 0x1C }
  - { offset: 0x58CFF, size: 0x8, addend: 0x0, symName: __ZN5godot15ScriptBacktraceD0Ev.cold.1, symObjAddr: 0xC664, symBinAddr: 0xEA2CC, symSize: 0x1C }
  - { offset: 0x58D14, size: 0x8, addend: 0x0, symName: __ZN5godot15ScriptBacktraceD0Ev.cold.1, symObjAddr: 0xC664, symBinAddr: 0xEA2CC, symSize: 0x1C }
  - { offset: 0x58D34, size: 0x8, addend: 0x0, symName: __ZN5godot8internal23EngineClassRegistrationINS_10ConfigFileEE8callbackEv, symObjAddr: 0xAF0, symBinAddr: 0x1638, symSize: 0x48 }
  - { offset: 0x58D7E, size: 0x8, addend: 0x0, symName: __ZN5godot8internal23EngineClassRegistrationINS_10ConfigFileEE8callbackEv.cold.1, symObjAddr: 0xC680, symBinAddr: 0xEA2E8, symSize: 0x5C }
  - { offset: 0x58DF6, size: 0x8, addend: 0x0, symName: __ZN5godot10ConfigFile28_gde_binding_create_callbackEPvS1_, symObjAddr: 0xB38, symBinAddr: 0x1680, symSize: 0x44 }
  - { offset: 0x58EB5, size: 0x8, addend: 0x0, symName: __ZN5godot10ConfigFile26_gde_binding_free_callbackEPvS1_S1_, symObjAddr: 0xB7C, symBinAddr: 0x16C4, symSize: 0x34 }
  - { offset: 0x58F0A, size: 0x8, addend: 0x0, symName: __ZN5godot10ConfigFile31_gde_binding_reference_callbackEPvS1_h, symObjAddr: 0xBB0, symBinAddr: 0x16F8, symSize: 0x8 }
  - { offset: 0x58F66, size: 0x8, addend: 0x0, symName: __ZN5godot10ConfigFileD1Ev, symObjAddr: 0xBB8, symBinAddr: 0x1700, symSize: 0x8C }
  - { offset: 0x59104, size: 0x8, addend: 0x0, symName: __ZN5godot10ConfigFileD1Ev.cold.1, symObjAddr: 0xC6DC, symBinAddr: 0xEA344, symSize: 0x1C }
  - { offset: 0x5911F, size: 0x8, addend: 0x0, symName: __ZN5godot10ConfigFileD1Ev.cold.1, symObjAddr: 0xC6DC, symBinAddr: 0xEA344, symSize: 0x1C }
  - { offset: 0x59133, size: 0x8, addend: 0x0, symName: __ZN5godot10ConfigFileD1Ev.cold.1, symObjAddr: 0xC6DC, symBinAddr: 0xEA344, symSize: 0x1C }
  - { offset: 0x59147, size: 0x8, addend: 0x0, symName: __ZN5godot10ConfigFileD1Ev.cold.1, symObjAddr: 0xC6DC, symBinAddr: 0xEA344, symSize: 0x1C }
  - { offset: 0x5915B, size: 0x8, addend: 0x0, symName: __ZN5godot10ConfigFileD1Ev.cold.1, symObjAddr: 0xC6DC, symBinAddr: 0xEA344, symSize: 0x1C }
  - { offset: 0x5916F, size: 0x8, addend: 0x0, symName: __ZN5godot10ConfigFileD1Ev.cold.1, symObjAddr: 0xC6DC, symBinAddr: 0xEA344, symSize: 0x1C }
  - { offset: 0x59184, size: 0x8, addend: 0x0, symName: __ZN5godot10ConfigFileD1Ev.cold.1, symObjAddr: 0xC6DC, symBinAddr: 0xEA344, symSize: 0x1C }
  - { offset: 0x591B8, size: 0x8, addend: 0x0, symName: __ZN5godot10ConfigFileD0Ev, symObjAddr: 0xC44, symBinAddr: 0x178C, symSize: 0x74 }
  - { offset: 0x59303, size: 0x8, addend: 0x0, symName: __ZN5godot10ConfigFileD0Ev.cold.1, symObjAddr: 0xC6F8, symBinAddr: 0xEA360, symSize: 0x1C }
  - { offset: 0x5931E, size: 0x8, addend: 0x0, symName: __ZN5godot10ConfigFileD0Ev.cold.1, symObjAddr: 0xC6F8, symBinAddr: 0xEA360, symSize: 0x1C }
  - { offset: 0x59332, size: 0x8, addend: 0x0, symName: __ZN5godot10ConfigFileD0Ev.cold.1, symObjAddr: 0xC6F8, symBinAddr: 0xEA360, symSize: 0x1C }
  - { offset: 0x59346, size: 0x8, addend: 0x0, symName: __ZN5godot10ConfigFileD0Ev.cold.1, symObjAddr: 0xC6F8, symBinAddr: 0xEA360, symSize: 0x1C }
  - { offset: 0x5935A, size: 0x8, addend: 0x0, symName: __ZN5godot10ConfigFileD0Ev.cold.1, symObjAddr: 0xC6F8, symBinAddr: 0xEA360, symSize: 0x1C }
  - { offset: 0x5936E, size: 0x8, addend: 0x0, symName: __ZN5godot10ConfigFileD0Ev.cold.1, symObjAddr: 0xC6F8, symBinAddr: 0xEA360, symSize: 0x1C }
  - { offset: 0x59382, size: 0x8, addend: 0x0, symName: __ZN5godot10ConfigFileD0Ev.cold.1, symObjAddr: 0xC6F8, symBinAddr: 0xEA360, symSize: 0x1C }
  - { offset: 0x59397, size: 0x8, addend: 0x0, symName: __ZN5godot10ConfigFileD0Ev.cold.1, symObjAddr: 0xC6F8, symBinAddr: 0xEA360, symSize: 0x1C }
  - { offset: 0x593B7, size: 0x8, addend: 0x0, symName: __ZN5godot8internal23EngineClassRegistrationINS_5MutexEE8callbackEv, symObjAddr: 0xCB8, symBinAddr: 0x1800, symSize: 0x48 }
  - { offset: 0x59401, size: 0x8, addend: 0x0, symName: __ZN5godot8internal23EngineClassRegistrationINS_5MutexEE8callbackEv.cold.1, symObjAddr: 0xC714, symBinAddr: 0xEA37C, symSize: 0x5C }
  - { offset: 0x59479, size: 0x8, addend: 0x0, symName: __ZN5godot5Mutex28_gde_binding_create_callbackEPvS1_, symObjAddr: 0xD00, symBinAddr: 0x1848, symSize: 0x44 }
  - { offset: 0x59538, size: 0x8, addend: 0x0, symName: __ZN5godot5Mutex26_gde_binding_free_callbackEPvS1_S1_, symObjAddr: 0xD44, symBinAddr: 0x188C, symSize: 0x34 }
  - { offset: 0x5958D, size: 0x8, addend: 0x0, symName: __ZN5godot5Mutex31_gde_binding_reference_callbackEPvS1_h, symObjAddr: 0xD78, symBinAddr: 0x18C0, symSize: 0x8 }
  - { offset: 0x595E9, size: 0x8, addend: 0x0, symName: __ZN5godot5MutexD1Ev, symObjAddr: 0xD80, symBinAddr: 0x18C8, symSize: 0x8C }
  - { offset: 0x59787, size: 0x8, addend: 0x0, symName: __ZN5godot5MutexD1Ev.cold.1, symObjAddr: 0xC770, symBinAddr: 0xEA3D8, symSize: 0x1C }
  - { offset: 0x597A2, size: 0x8, addend: 0x0, symName: __ZN5godot5MutexD1Ev.cold.1, symObjAddr: 0xC770, symBinAddr: 0xEA3D8, symSize: 0x1C }
  - { offset: 0x597B6, size: 0x8, addend: 0x0, symName: __ZN5godot5MutexD1Ev.cold.1, symObjAddr: 0xC770, symBinAddr: 0xEA3D8, symSize: 0x1C }
  - { offset: 0x597CA, size: 0x8, addend: 0x0, symName: __ZN5godot5MutexD1Ev.cold.1, symObjAddr: 0xC770, symBinAddr: 0xEA3D8, symSize: 0x1C }
  - { offset: 0x597DE, size: 0x8, addend: 0x0, symName: __ZN5godot5MutexD1Ev.cold.1, symObjAddr: 0xC770, symBinAddr: 0xEA3D8, symSize: 0x1C }
  - { offset: 0x597F2, size: 0x8, addend: 0x0, symName: __ZN5godot5MutexD1Ev.cold.1, symObjAddr: 0xC770, symBinAddr: 0xEA3D8, symSize: 0x1C }
  - { offset: 0x59807, size: 0x8, addend: 0x0, symName: __ZN5godot5MutexD1Ev.cold.1, symObjAddr: 0xC770, symBinAddr: 0xEA3D8, symSize: 0x1C }
  - { offset: 0x5983B, size: 0x8, addend: 0x0, symName: __ZN5godot5MutexD0Ev, symObjAddr: 0xE0C, symBinAddr: 0x1954, symSize: 0x74 }
  - { offset: 0x59986, size: 0x8, addend: 0x0, symName: __ZN5godot5MutexD0Ev.cold.1, symObjAddr: 0xC78C, symBinAddr: 0xEA3F4, symSize: 0x1C }
  - { offset: 0x599A1, size: 0x8, addend: 0x0, symName: __ZN5godot5MutexD0Ev.cold.1, symObjAddr: 0xC78C, symBinAddr: 0xEA3F4, symSize: 0x1C }
  - { offset: 0x599B5, size: 0x8, addend: 0x0, symName: __ZN5godot5MutexD0Ev.cold.1, symObjAddr: 0xC78C, symBinAddr: 0xEA3F4, symSize: 0x1C }
  - { offset: 0x599C9, size: 0x8, addend: 0x0, symName: __ZN5godot5MutexD0Ev.cold.1, symObjAddr: 0xC78C, symBinAddr: 0xEA3F4, symSize: 0x1C }
  - { offset: 0x599DD, size: 0x8, addend: 0x0, symName: __ZN5godot5MutexD0Ev.cold.1, symObjAddr: 0xC78C, symBinAddr: 0xEA3F4, symSize: 0x1C }
  - { offset: 0x599F1, size: 0x8, addend: 0x0, symName: __ZN5godot5MutexD0Ev.cold.1, symObjAddr: 0xC78C, symBinAddr: 0xEA3F4, symSize: 0x1C }
  - { offset: 0x59A05, size: 0x8, addend: 0x0, symName: __ZN5godot5MutexD0Ev.cold.1, symObjAddr: 0xC78C, symBinAddr: 0xEA3F4, symSize: 0x1C }
  - { offset: 0x59A1A, size: 0x8, addend: 0x0, symName: __ZN5godot5MutexD0Ev.cold.1, symObjAddr: 0xC78C, symBinAddr: 0xEA3F4, symSize: 0x1C }
  - { offset: 0x59A3A, size: 0x8, addend: 0x0, symName: __ZN5godot8internal23EngineClassRegistrationINS_6EngineEE8callbackEv, symObjAddr: 0xE80, symBinAddr: 0x19C8, symSize: 0x48 }
  - { offset: 0x59A84, size: 0x8, addend: 0x0, symName: __ZN5godot8internal23EngineClassRegistrationINS_6EngineEE8callbackEv.cold.1, symObjAddr: 0xC7A8, symBinAddr: 0xEA410, symSize: 0x5C }
  - { offset: 0x59AFC, size: 0x8, addend: 0x0, symName: __ZN5godot6Engine28_gde_binding_create_callbackEPvS1_, symObjAddr: 0xEC8, symBinAddr: 0x1A10, symSize: 0x48 }
  - { offset: 0x59B98, size: 0x8, addend: 0x0, symName: __ZN5godot6Engine26_gde_binding_free_callbackEPvS1_S1_, symObjAddr: 0xF10, symBinAddr: 0x1A58, symSize: 0x34 }
  - { offset: 0x59BED, size: 0x8, addend: 0x0, symName: __ZN5godot6Engine31_gde_binding_reference_callbackEPvS1_h, symObjAddr: 0xF44, symBinAddr: 0x1A8C, symSize: 0x8 }
  - { offset: 0x59C34, size: 0x8, addend: 0x0, symName: __ZN5godot8internal23EngineClassRegistrationINS_8MainLoopEE8callbackEv, symObjAddr: 0xF4C, symBinAddr: 0x1A94, symSize: 0x48 }
  - { offset: 0x59C7E, size: 0x8, addend: 0x0, symName: __ZN5godot8internal23EngineClassRegistrationINS_8MainLoopEE8callbackEv.cold.1, symObjAddr: 0xC804, symBinAddr: 0xEA46C, symSize: 0x5C }
  - { offset: 0x59CFB, size: 0x8, addend: 0x0, symName: __ZN5godot8MainLoop28_gde_binding_create_callbackEPvS1_, symObjAddr: 0xF94, symBinAddr: 0x1ADC, symSize: 0x48 }
  - { offset: 0x59D97, size: 0x8, addend: 0x0, symName: __ZN5godot8MainLoop26_gde_binding_free_callbackEPvS1_S1_, symObjAddr: 0xFDC, symBinAddr: 0x1B24, symSize: 0x34 }
  - { offset: 0x59DEC, size: 0x8, addend: 0x0, symName: __ZN5godot8MainLoop31_gde_binding_reference_callbackEPvS1_h, symObjAddr: 0x1010, symBinAddr: 0x1B58, symSize: 0x8 }
  - { offset: 0x59E33, size: 0x8, addend: 0x0, symName: __ZN5godot8internal23EngineClassRegistrationINS_9SceneTreeEE8callbackEv, symObjAddr: 0x1018, symBinAddr: 0x1B60, symSize: 0x48 }
  - { offset: 0x59E7D, size: 0x8, addend: 0x0, symName: __ZN5godot8internal23EngineClassRegistrationINS_9SceneTreeEE8callbackEv.cold.1, symObjAddr: 0xC860, symBinAddr: 0xEA4C8, symSize: 0x5C }
  - { offset: 0x59EF5, size: 0x8, addend: 0x0, symName: __ZN5godot9SceneTree28_gde_binding_create_callbackEPvS1_, symObjAddr: 0x1060, symBinAddr: 0x1BA8, symSize: 0x44 }
  - { offset: 0x59FB4, size: 0x8, addend: 0x0, symName: __ZN5godot9SceneTree26_gde_binding_free_callbackEPvS1_S1_, symObjAddr: 0x10A4, symBinAddr: 0x1BEC, symSize: 0x34 }
  - { offset: 0x5A009, size: 0x8, addend: 0x0, symName: __ZN5godot9SceneTree31_gde_binding_reference_callbackEPvS1_h, symObjAddr: 0x10D8, symBinAddr: 0x1C20, symSize: 0x8 }
  - { offset: 0x5A081, size: 0x8, addend: 0x0, symName: __ZN5godot9SceneTreeD1Ev, symObjAddr: 0x10E0, symBinAddr: 0x1C28, symSize: 0x8C }
  - { offset: 0x5A21F, size: 0x8, addend: 0x0, symName: __ZN5godot9SceneTreeD1Ev.cold.1, symObjAddr: 0xC8BC, symBinAddr: 0xEA524, symSize: 0x1C }
  - { offset: 0x5A23A, size: 0x8, addend: 0x0, symName: __ZN5godot9SceneTreeD1Ev.cold.1, symObjAddr: 0xC8BC, symBinAddr: 0xEA524, symSize: 0x1C }
  - { offset: 0x5A24E, size: 0x8, addend: 0x0, symName: __ZN5godot9SceneTreeD1Ev.cold.1, symObjAddr: 0xC8BC, symBinAddr: 0xEA524, symSize: 0x1C }
  - { offset: 0x5A262, size: 0x8, addend: 0x0, symName: __ZN5godot9SceneTreeD1Ev.cold.1, symObjAddr: 0xC8BC, symBinAddr: 0xEA524, symSize: 0x1C }
  - { offset: 0x5A276, size: 0x8, addend: 0x0, symName: __ZN5godot9SceneTreeD1Ev.cold.1, symObjAddr: 0xC8BC, symBinAddr: 0xEA524, symSize: 0x1C }
  - { offset: 0x5A28A, size: 0x8, addend: 0x0, symName: __ZN5godot9SceneTreeD1Ev.cold.1, symObjAddr: 0xC8BC, symBinAddr: 0xEA524, symSize: 0x1C }
  - { offset: 0x5A29F, size: 0x8, addend: 0x0, symName: __ZN5godot9SceneTreeD1Ev.cold.1, symObjAddr: 0xC8BC, symBinAddr: 0xEA524, symSize: 0x1C }
  - { offset: 0x5A2D3, size: 0x8, addend: 0x0, symName: __ZN5godot9SceneTreeD0Ev, symObjAddr: 0x116C, symBinAddr: 0x1CB4, symSize: 0x74 }
  - { offset: 0x5A41E, size: 0x8, addend: 0x0, symName: __ZN5godot9SceneTreeD0Ev.cold.1, symObjAddr: 0xC8D8, symBinAddr: 0xEA540, symSize: 0x1C }
  - { offset: 0x5A439, size: 0x8, addend: 0x0, symName: __ZN5godot9SceneTreeD0Ev.cold.1, symObjAddr: 0xC8D8, symBinAddr: 0xEA540, symSize: 0x1C }
  - { offset: 0x5A44D, size: 0x8, addend: 0x0, symName: __ZN5godot9SceneTreeD0Ev.cold.1, symObjAddr: 0xC8D8, symBinAddr: 0xEA540, symSize: 0x1C }
  - { offset: 0x5A461, size: 0x8, addend: 0x0, symName: __ZN5godot9SceneTreeD0Ev.cold.1, symObjAddr: 0xC8D8, symBinAddr: 0xEA540, symSize: 0x1C }
  - { offset: 0x5A475, size: 0x8, addend: 0x0, symName: __ZN5godot9SceneTreeD0Ev.cold.1, symObjAddr: 0xC8D8, symBinAddr: 0xEA540, symSize: 0x1C }
  - { offset: 0x5A489, size: 0x8, addend: 0x0, symName: __ZN5godot9SceneTreeD0Ev.cold.1, symObjAddr: 0xC8D8, symBinAddr: 0xEA540, symSize: 0x1C }
  - { offset: 0x5A49D, size: 0x8, addend: 0x0, symName: __ZN5godot9SceneTreeD0Ev.cold.1, symObjAddr: 0xC8D8, symBinAddr: 0xEA540, symSize: 0x1C }
  - { offset: 0x5A4B2, size: 0x8, addend: 0x0, symName: __ZN5godot9SceneTreeD0Ev.cold.1, symObjAddr: 0xC8D8, symBinAddr: 0xEA540, symSize: 0x1C }
  - { offset: 0x5A4D2, size: 0x8, addend: 0x0, symName: __ZN5godot8internal23EngineClassRegistrationINS_13DisplayServerEE8callbackEv, symObjAddr: 0x11E0, symBinAddr: 0x1D28, symSize: 0x48 }
  - { offset: 0x5A51C, size: 0x8, addend: 0x0, symName: __ZN5godot8internal23EngineClassRegistrationINS_13DisplayServerEE8callbackEv.cold.1, symObjAddr: 0xC8F4, symBinAddr: 0xEA55C, symSize: 0x5C }
  - { offset: 0x5A594, size: 0x8, addend: 0x0, symName: __ZN5godot13DisplayServer28_gde_binding_create_callbackEPvS1_, symObjAddr: 0x1228, symBinAddr: 0x1D70, symSize: 0x48 }
  - { offset: 0x5A630, size: 0x8, addend: 0x0, symName: __ZN5godot13DisplayServer26_gde_binding_free_callbackEPvS1_S1_, symObjAddr: 0x1270, symBinAddr: 0x1DB8, symSize: 0x34 }
  - { offset: 0x5A685, size: 0x8, addend: 0x0, symName: __ZN5godot13DisplayServer31_gde_binding_reference_callbackEPvS1_h, symObjAddr: 0x12A4, symBinAddr: 0x1DEC, symSize: 0x8 }
  - { offset: 0x5A6CC, size: 0x8, addend: 0x0, symName: __ZN5godot8internal23EngineClassRegistrationINS_4NodeEE8callbackEv, symObjAddr: 0x12AC, symBinAddr: 0x1DF4, symSize: 0x48 }
  - { offset: 0x5A716, size: 0x8, addend: 0x0, symName: __ZN5godot8internal23EngineClassRegistrationINS_4NodeEE8callbackEv.cold.1, symObjAddr: 0xC950, symBinAddr: 0xEA5B8, symSize: 0x5C }
  - { offset: 0x5A793, size: 0x8, addend: 0x0, symName: __ZN5godot4Node28_gde_binding_create_callbackEPvS1_, symObjAddr: 0x12F4, symBinAddr: 0x1E3C, symSize: 0x48 }
  - { offset: 0x5A82F, size: 0x8, addend: 0x0, symName: __ZN5godot4Node26_gde_binding_free_callbackEPvS1_S1_, symObjAddr: 0x133C, symBinAddr: 0x1E84, symSize: 0x34 }
  - { offset: 0x5A884, size: 0x8, addend: 0x0, symName: __ZN5godot4Node31_gde_binding_reference_callbackEPvS1_h, symObjAddr: 0x1370, symBinAddr: 0x1EB8, symSize: 0x8 }
  - { offset: 0x5A8CB, size: 0x8, addend: 0x0, symName: __ZN5godot8internal23EngineClassRegistrationINS_8ViewportEE8callbackEv, symObjAddr: 0x1378, symBinAddr: 0x1EC0, symSize: 0x48 }
  - { offset: 0x5A915, size: 0x8, addend: 0x0, symName: __ZN5godot8internal23EngineClassRegistrationINS_8ViewportEE8callbackEv.cold.1, symObjAddr: 0xC9AC, symBinAddr: 0xEA614, symSize: 0x5C }
  - { offset: 0x5A98D, size: 0x8, addend: 0x0, symName: __ZN5godot8Viewport28_gde_binding_create_callbackEPvS1_, symObjAddr: 0x13C0, symBinAddr: 0x1F08, symSize: 0x44 }
  - { offset: 0x5AA4C, size: 0x8, addend: 0x0, symName: __ZN5godot8Viewport26_gde_binding_free_callbackEPvS1_S1_, symObjAddr: 0x1404, symBinAddr: 0x1F4C, symSize: 0x34 }
  - { offset: 0x5AAA1, size: 0x8, addend: 0x0, symName: __ZN5godot8Viewport31_gde_binding_reference_callbackEPvS1_h, symObjAddr: 0x1438, symBinAddr: 0x1F80, symSize: 0x8 }
  - { offset: 0x5AB19, size: 0x8, addend: 0x0, symName: __ZN5godot8ViewportD1Ev, symObjAddr: 0x1440, symBinAddr: 0x1F88, symSize: 0x8C }
  - { offset: 0x5ACB7, size: 0x8, addend: 0x0, symName: __ZN5godot8ViewportD1Ev.cold.1, symObjAddr: 0xCA08, symBinAddr: 0xEA670, symSize: 0x1C }
  - { offset: 0x5ACD2, size: 0x8, addend: 0x0, symName: __ZN5godot8ViewportD1Ev.cold.1, symObjAddr: 0xCA08, symBinAddr: 0xEA670, symSize: 0x1C }
  - { offset: 0x5ACE6, size: 0x8, addend: 0x0, symName: __ZN5godot8ViewportD1Ev.cold.1, symObjAddr: 0xCA08, symBinAddr: 0xEA670, symSize: 0x1C }
  - { offset: 0x5ACFA, size: 0x8, addend: 0x0, symName: __ZN5godot8ViewportD1Ev.cold.1, symObjAddr: 0xCA08, symBinAddr: 0xEA670, symSize: 0x1C }
  - { offset: 0x5AD0E, size: 0x8, addend: 0x0, symName: __ZN5godot8ViewportD1Ev.cold.1, symObjAddr: 0xCA08, symBinAddr: 0xEA670, symSize: 0x1C }
  - { offset: 0x5AD22, size: 0x8, addend: 0x0, symName: __ZN5godot8ViewportD1Ev.cold.1, symObjAddr: 0xCA08, symBinAddr: 0xEA670, symSize: 0x1C }
  - { offset: 0x5AD37, size: 0x8, addend: 0x0, symName: __ZN5godot8ViewportD1Ev.cold.1, symObjAddr: 0xCA08, symBinAddr: 0xEA670, symSize: 0x1C }
  - { offset: 0x5AD6B, size: 0x8, addend: 0x0, symName: __ZN5godot8ViewportD0Ev, symObjAddr: 0x14CC, symBinAddr: 0x2014, symSize: 0x74 }
  - { offset: 0x5AEB6, size: 0x8, addend: 0x0, symName: __ZN5godot8ViewportD0Ev.cold.1, symObjAddr: 0xCA24, symBinAddr: 0xEA68C, symSize: 0x1C }
  - { offset: 0x5AED1, size: 0x8, addend: 0x0, symName: __ZN5godot8ViewportD0Ev.cold.1, symObjAddr: 0xCA24, symBinAddr: 0xEA68C, symSize: 0x1C }
  - { offset: 0x5AEE5, size: 0x8, addend: 0x0, symName: __ZN5godot8ViewportD0Ev.cold.1, symObjAddr: 0xCA24, symBinAddr: 0xEA68C, symSize: 0x1C }
  - { offset: 0x5AEF9, size: 0x8, addend: 0x0, symName: __ZN5godot8ViewportD0Ev.cold.1, symObjAddr: 0xCA24, symBinAddr: 0xEA68C, symSize: 0x1C }
  - { offset: 0x5AF0D, size: 0x8, addend: 0x0, symName: __ZN5godot8ViewportD0Ev.cold.1, symObjAddr: 0xCA24, symBinAddr: 0xEA68C, symSize: 0x1C }
  - { offset: 0x5AF21, size: 0x8, addend: 0x0, symName: __ZN5godot8ViewportD0Ev.cold.1, symObjAddr: 0xCA24, symBinAddr: 0xEA68C, symSize: 0x1C }
  - { offset: 0x5AF35, size: 0x8, addend: 0x0, symName: __ZN5godot8ViewportD0Ev.cold.1, symObjAddr: 0xCA24, symBinAddr: 0xEA68C, symSize: 0x1C }
  - { offset: 0x5AF4A, size: 0x8, addend: 0x0, symName: __ZN5godot8ViewportD0Ev.cold.1, symObjAddr: 0xCA24, symBinAddr: 0xEA68C, symSize: 0x1C }
  - { offset: 0x5AF6A, size: 0x8, addend: 0x0, symName: __ZN5godot8internal23EngineClassRegistrationINS_6WindowEE8callbackEv, symObjAddr: 0x1540, symBinAddr: 0x2088, symSize: 0x48 }
  - { offset: 0x5AFB4, size: 0x8, addend: 0x0, symName: __ZN5godot8internal23EngineClassRegistrationINS_6WindowEE8callbackEv.cold.1, symObjAddr: 0xCA40, symBinAddr: 0xEA6A8, symSize: 0x5C }
  - { offset: 0x5B031, size: 0x8, addend: 0x0, symName: __ZN5godot6Window28_gde_binding_create_callbackEPvS1_, symObjAddr: 0x1588, symBinAddr: 0x20D0, symSize: 0x48 }
  - { offset: 0x5B113, size: 0x8, addend: 0x0, symName: __ZN5godot6Window26_gde_binding_free_callbackEPvS1_S1_, symObjAddr: 0x15D0, symBinAddr: 0x2118, symSize: 0x34 }
  - { offset: 0x5B168, size: 0x8, addend: 0x0, symName: __ZN5godot6Window31_gde_binding_reference_callbackEPvS1_h, symObjAddr: 0x1604, symBinAddr: 0x214C, symSize: 0x8 }
  - { offset: 0x5B879, size: 0x8, addend: 0x0, symName: __ZNSt3__112__hash_tableINS_17__hash_value_typeIN5godot10StringNameEPK35GDExtensionInstanceBindingCallbacksEENS_22__unordered_map_hasherIS3_S7_NS_4hashIS3_EENS_8equal_toIS3_EELb1EEENS_21__unordered_map_equalIS3_S7_SC_SA_Lb1EEENS_9allocatorIS7_EEE25__emplace_unique_key_argsIS3_JRKNS_21piecewise_construct_tENS_5tupleIJRKS3_EEENSN_IJEEEEEENS_4pairINS_15__hash_iteratorIPNS_11__hash_nodeIS7_PvEEEEbEERKT_DpOT0_, symObjAddr: 0x1D1C, symBinAddr: 0x2864, symSize: 0x328 }
  - { offset: 0x5BF03, size: 0x8, addend: 0x0, symName: __ZNSt3__112__hash_tableINS_17__hash_value_typeIN5godot10StringNameENS2_7ClassDB9ClassInfoEEENS_22__unordered_map_hasherIS3_S6_NS_4hashIS3_EENS_8equal_toIS3_EELb1EEENS_21__unordered_map_equalIS3_S6_SB_S9_Lb1EEENS_9allocatorIS6_EEE4findIS3_EENS_15__hash_iteratorIPNS_11__hash_nodeIS6_PvEEEERKT_, symObjAddr: 0x21F0, symBinAddr: 0x2D38, symSize: 0x138 }
  - { offset: 0x5C0E4, size: 0x8, addend: 0x0, symName: __ZNSt3__112__hash_tableINS_17__hash_value_typeIN5godot10StringNameENS2_7ClassDB9ClassInfoEEENS_22__unordered_map_hasherIS3_S6_NS_4hashIS3_EENS_8equal_toIS3_EELb1EEENS_21__unordered_map_equalIS3_S6_SB_S9_Lb1EEENS_9allocatorIS6_EEE25__emplace_unique_key_argsIS3_JRKNS_21piecewise_construct_tENS_5tupleIJRKS3_EEENSM_IJEEEEEENS_4pairINS_15__hash_iteratorIPNS_11__hash_nodeIS6_PvEEEEbEERKT_DpOT0_, symObjAddr: 0x2328, symBinAddr: 0x2E70, symSize: 0x3B8 }
  - { offset: 0x5CCCA, size: 0x8, addend: 0x0, symName: __ZN5godot7ClassDB9ClassInfoaSERKS1_, symObjAddr: 0x1938, symBinAddr: 0x2480, symSize: 0xAC }
  - { offset: 0x5D02F, size: 0x8, addend: 0x0, symName: __ZNSt3__16vectorIN5godot10StringNameENS_9allocatorIS2_EEE21__push_back_slow_pathIRKS2_EEPS2_OT_, symObjAddr: 0x3B40, symBinAddr: 0x4688, symSize: 0x114 }
  - { offset: 0x5D4C6, size: 0x8, addend: 0x0, symName: __ZN5godot12PropertyInfoC1EPK23GDExtensionPropertyInfo, symObjAddr: 0x3C54, symBinAddr: 0x479C, symSize: 0xDC }
  - { offset: 0x5D4DA, size: 0x8, addend: 0x0, symName: __ZN5godot7ClassDB9ClassInfoD2Ev, symObjAddr: 0x3F18, symBinAddr: 0x4A60, symSize: 0xBC }
  - { offset: 0x5DD02, size: 0x8, addend: 0x0, symName: __ZN5godot7ClassDB15_register_classIN6sentry18SentryLoggerLimitsELb0EEEvbbb.cold.1, symObjAddr: 0xCA9C, symBinAddr: 0xEA704, symSize: 0x5C }
  - { offset: 0x5DD30, size: 0x8, addend: 0x0, symName: __ZN5godot7ClassDB15_register_classIN6sentry18SentryLoggerLimitsELb0EEEvbbb.cold.2, symObjAddr: 0xCAF8, symBinAddr: 0xEA760, symSize: 0x58 }
  - { offset: 0x5DD5E, size: 0x8, addend: 0x0, symName: __ZN5godot7ClassDB15_register_classIN6sentry18SentryLoggerLimitsELb0EEEvbbb.cold.3, symObjAddr: 0xCB50, symBinAddr: 0xEA7B8, symSize: 0x58 }
  - { offset: 0x5DDA1, size: 0x8, addend: 0x0, symName: __ZN5godot7ClassDB15_register_classIN6sentry18SentryLoggerLimitsELb0EEEvbbb.cold.4, symObjAddr: 0xCBA8, symBinAddr: 0xEA810, symSize: 0x58 }
  - { offset: 0x5DF4B, size: 0x8, addend: 0x0, symName: __ZNSt3__112__hash_tableINS_17__hash_value_typeIN5godot10StringNameEPNS2_10MethodBindEEENS_22__unordered_map_hasherIS3_S6_NS_4hashIS3_EENS_8equal_toIS3_EELb1EEENS_21__unordered_map_equalIS3_S6_SB_S9_Lb1EEENS_9allocatorIS6_EEE14__assign_multiINS_21__hash_const_iteratorIPNS_11__hash_nodeIS6_PvEEEEEEvT_SP_, symObjAddr: 0x2880, symBinAddr: 0x33C8, symSize: 0x100 }
  - { offset: 0x5E544, size: 0x8, addend: 0x0, symName: __ZNSt3__16__treeIN5godot10StringNameENS_4lessIS2_EENS_9allocatorIS2_EEE14__assign_multiINS_21__tree_const_iteratorIS2_PNS_11__tree_nodeIS2_PvEElEEEEvT_SF_, symObjAddr: 0x2F40, symBinAddr: 0x3A88, symSize: 0x340 }
  - { offset: 0x5EB27, size: 0x8, addend: 0x0, symName: __ZNSt3__112__hash_tableINS_17__hash_value_typeIN5godot10StringNameENS2_7ClassDB9ClassInfo13VirtualMethodEEENS_22__unordered_map_hasherIS3_S7_NS_4hashIS3_EENS_8equal_toIS3_EELb1EEENS_21__unordered_map_equalIS3_S7_SC_SA_Lb1EEENS_9allocatorIS7_EEE14__assign_multiINS_21__hash_const_iteratorIPNS_11__hash_nodeIS7_PvEEEEEEvT_SQ_, symObjAddr: 0x3480, symBinAddr: 0x3FC8, symSize: 0x100 }
  - { offset: 0x5F122, size: 0x8, addend: 0x0, symName: __ZN6sentry18SentryLoggerLimits8set_bindEPvPKvS3_, symObjAddr: 0x19E4, symBinAddr: 0x252C, symSize: 0x8 }
  - { offset: 0x5F162, size: 0x8, addend: 0x0, symName: __ZN6sentry18SentryLoggerLimits8get_bindEPvPKvS1_, symObjAddr: 0x19EC, symBinAddr: 0x2534, symSize: 0x8 }
  - { offset: 0x5F1BD, size: 0x8, addend: 0x0, symName: __ZN6sentry18SentryLoggerLimits22get_property_list_bindEPvPj, symObjAddr: 0x19F4, symBinAddr: 0x253C, symSize: 0x40 }
  - { offset: 0x5F249, size: 0x8, addend: 0x0, symName: __ZN6sentry18SentryLoggerLimits22get_property_list_bindEPvPj.cold.1, symObjAddr: 0xCC00, symBinAddr: 0xEA868, symSize: 0x28 }
  - { offset: 0x5F261, size: 0x8, addend: 0x0, symName: __ZN6sentry18SentryLoggerLimits23free_property_list_bindEPvPK23GDExtensionPropertyInfoj, symObjAddr: 0x1A34, symBinAddr: 0x257C, symSize: 0x58 }
  - { offset: 0x5F37B, size: 0x8, addend: 0x0, symName: __ZN6sentry18SentryLoggerLimits24property_can_revert_bindEPvPKv, symObjAddr: 0x1A8C, symBinAddr: 0x25D4, symSize: 0x8 }
  - { offset: 0x5F3AD, size: 0x8, addend: 0x0, symName: __ZN6sentry18SentryLoggerLimits24property_get_revert_bindEPvPKvS1_, symObjAddr: 0x1A94, symBinAddr: 0x25DC, symSize: 0x8 }
  - { offset: 0x5F40E, size: 0x8, addend: 0x0, symName: __ZN6sentry18SentryLoggerLimits22validate_property_bindEPvP23GDExtensionPropertyInfo, symObjAddr: 0x1A9C, symBinAddr: 0x25E4, symSize: 0xB8 }
  - { offset: 0x5F4D1, size: 0x8, addend: 0x0, symName: __ZN5godot12PropertyInfoC1EPK23GDExtensionPropertyInfo, symObjAddr: 0x3C54, symBinAddr: 0x479C, symSize: 0xDC }
  - { offset: 0x5F5E9, size: 0x8, addend: 0x0, symName: __ZN6sentry18SentryLoggerLimits17notification_bindEPvih, symObjAddr: 0x1B54, symBinAddr: 0x269C, symSize: 0x4 }
  - { offset: 0x5F628, size: 0x8, addend: 0x0, symName: __ZN6sentry18SentryLoggerLimits14to_string_bindEPvPhS1_, symObjAddr: 0x1B58, symBinAddr: 0x26A0, symSize: 0x7C }
  - { offset: 0x5F69E, size: 0x8, addend: 0x0, symName: __ZNK5godot6Object10_to_stringEv, symObjAddr: 0x3D30, symBinAddr: 0x4878, symSize: 0xE0 }
  - { offset: 0x5F7C1, size: 0x8, addend: 0x0, symName: __ZN5godot7ClassDB21_create_instance_funcIN6sentry18SentryLoggerLimitsEEEPvS4_h, symObjAddr: 0x1BD4, symBinAddr: 0x271C, symSize: 0xF0 }
  - { offset: 0x5F8ED, size: 0x8, addend: 0x0, symName: __ZN5godot7ClassDB21_create_instance_funcIN6sentry18SentryLoggerLimitsEEEPvS4_h.cold.1, symObjAddr: 0xCC28, symBinAddr: 0xEA890, symSize: 0x5C }
  - { offset: 0x5F945, size: 0x8, addend: 0x0, symName: __ZN6sentry18SentryLoggerLimits4freeEPvS1_, symObjAddr: 0x1CC4, symBinAddr: 0x280C, symSize: 0x3C }
  - { offset: 0x5F9A0, size: 0x8, addend: 0x0, symName: __ZN5godot7ClassDB23_recreate_instance_funcIN6sentry18SentryLoggerLimitsEEEPvS4_S4_, symObjAddr: 0x1D00, symBinAddr: 0x2848, symSize: 0x8 }
  - { offset: 0x5F9DB, size: 0x8, addend: 0x0, symName: __ZN6sentry18SentryLoggerLimits28_gde_binding_create_callbackEPvS1_, symObjAddr: 0x1D08, symBinAddr: 0x2850, symSize: 0x8 }
  - { offset: 0x5FA06, size: 0x8, addend: 0x0, symName: __ZN6sentry18SentryLoggerLimits26_gde_binding_free_callbackEPvS1_S1_, symObjAddr: 0x1D10, symBinAddr: 0x2858, symSize: 0x4 }
  - { offset: 0x5FA39, size: 0x8, addend: 0x0, symName: __ZN6sentry18SentryLoggerLimits31_gde_binding_reference_callbackEPvS1_h, symObjAddr: 0x1D14, symBinAddr: 0x285C, symSize: 0x8 }
  - { offset: 0x5FF63, size: 0x8, addend: 0x0, symName: __ZNSt3__112__hash_tableINS_17__hash_value_typeIN5godot10StringNameEPK35GDExtensionInstanceBindingCallbacksEENS_22__unordered_map_hasherIS3_S7_NS_4hashIS3_EENS_8equal_toIS3_EELb1EEENS_21__unordered_map_equalIS3_S7_SC_SA_Lb1EEENS_9allocatorIS7_EEE11__do_rehashILb1EEEvm, symObjAddr: 0x2050, symBinAddr: 0x2B98, symSize: 0x1A0 }
  - { offset: 0x603DB, size: 0x8, addend: 0x0, symName: __ZNSt3__112__hash_tableINS_17__hash_value_typeIN5godot10StringNameENS2_7ClassDB9ClassInfoEEENS_22__unordered_map_hasherIS3_S6_NS_4hashIS3_EENS_8equal_toIS3_EELb1EEENS_21__unordered_map_equalIS3_S6_SB_S9_Lb1EEENS_9allocatorIS6_EEE4findIS3_EENS_15__hash_iteratorIPNS_11__hash_nodeIS6_PvEEEERKT_, symObjAddr: 0x21F0, symBinAddr: 0x2D38, symSize: 0x138 }
  - { offset: 0x60997, size: 0x8, addend: 0x0, symName: __ZNSt3__112__hash_tableINS_17__hash_value_typeIN5godot10StringNameENS2_7ClassDB9ClassInfoEEENS_22__unordered_map_hasherIS3_S6_NS_4hashIS3_EENS_8equal_toIS3_EELb1EEENS_21__unordered_map_equalIS3_S6_SB_S9_Lb1EEENS_9allocatorIS6_EEE11__do_rehashILb1EEEvm, symObjAddr: 0x26E0, symBinAddr: 0x3228, symSize: 0x1A0 }
  - { offset: 0x60E0F, size: 0x8, addend: 0x0, symName: __ZNSt3__112__hash_tableINS_17__hash_value_typeIN5godot10StringNameEPNS2_10MethodBindEEENS_22__unordered_map_hasherIS3_S6_NS_4hashIS3_EENS_8equal_toIS3_EELb1EEENS_21__unordered_map_equalIS3_S6_SB_S9_Lb1EEENS_9allocatorIS6_EEE14__assign_multiINS_21__hash_const_iteratorIPNS_11__hash_nodeIS6_PvEEEEEEvT_SP_, symObjAddr: 0x2880, symBinAddr: 0x33C8, symSize: 0x100 }
  - { offset: 0x613E0, size: 0x8, addend: 0x0, symName: __ZNSt3__112__hash_tableINS_17__hash_value_typeIN5godot10StringNameEPNS2_10MethodBindEEENS_22__unordered_map_hasherIS3_S6_NS_4hashIS3_EENS_8equal_toIS3_EELb1EEENS_21__unordered_map_equalIS3_S6_SB_S9_Lb1EEENS_9allocatorIS6_EEE19__node_insert_multiEPNS_11__hash_nodeIS6_PvEE, symObjAddr: 0x2980, symBinAddr: 0x34C8, symSize: 0x124 }
  - { offset: 0x6167B, size: 0x8, addend: 0x0, symName: __ZNSt3__112__hash_tableINS_17__hash_value_typeIN5godot10StringNameEPNS2_10MethodBindEEENS_22__unordered_map_hasherIS3_S6_NS_4hashIS3_EENS_8equal_toIS3_EELb1EEENS_21__unordered_map_equalIS3_S6_SB_S9_Lb1EEENS_9allocatorIS6_EEE27__node_insert_multi_prepareEmRS6_, symObjAddr: 0x2AA4, symBinAddr: 0x35EC, symSize: 0x27C }
  - { offset: 0x619F0, size: 0x8, addend: 0x0, symName: __ZNSt3__112__hash_tableINS_17__hash_value_typeIN5godot10StringNameEPNS2_10MethodBindEEENS_22__unordered_map_hasherIS3_S6_NS_4hashIS3_EENS_8equal_toIS3_EELb1EEENS_21__unordered_map_equalIS3_S6_SB_S9_Lb1EEENS_9allocatorIS6_EEE11__do_rehashILb0EEEvm, symObjAddr: 0x2D20, symBinAddr: 0x3868, symSize: 0x220 }
  - { offset: 0x61EAD, size: 0x8, addend: 0x0, symName: __ZNSt3__16__treeIN5godot10StringNameENS_4lessIS2_EENS_9allocatorIS2_EEE14__assign_multiINS_21__tree_const_iteratorIS2_PNS_11__tree_nodeIS2_PvEElEEEEvT_SF_, symObjAddr: 0x2F40, symBinAddr: 0x3A88, symSize: 0x340 }
  - { offset: 0x62390, size: 0x8, addend: 0x0, symName: __ZNSt3__16__treeIN5godot10StringNameENS_4lessIS2_EENS_9allocatorIS2_EEE7destroyEPNS_11__tree_nodeIS2_PvEE, symObjAddr: 0x3434, symBinAddr: 0x3F7C, symSize: 0x4C }
  - { offset: 0x62A70, size: 0x8, addend: 0x0, symName: __ZNSt3__112__hash_tableINS_17__hash_value_typeIN5godot10StringNameENS2_7ClassDB9ClassInfo13VirtualMethodEEENS_22__unordered_map_hasherIS3_S7_NS_4hashIS3_EENS_8equal_toIS3_EELb1EEENS_21__unordered_map_equalIS3_S7_SC_SA_Lb1EEENS_9allocatorIS7_EEE19__node_insert_multiEPNS_11__hash_nodeIS7_PvEE, symObjAddr: 0x3580, symBinAddr: 0x40C8, symSize: 0x124 }
  - { offset: 0x62D0B, size: 0x8, addend: 0x0, symName: __ZNSt3__112__hash_tableINS_17__hash_value_typeIN5godot10StringNameENS2_7ClassDB9ClassInfo13VirtualMethodEEENS_22__unordered_map_hasherIS3_S7_NS_4hashIS3_EENS_8equal_toIS3_EELb1EEENS_21__unordered_map_equalIS3_S7_SC_SA_Lb1EEENS_9allocatorIS7_EEE27__node_insert_multi_prepareEmRS7_, symObjAddr: 0x36A4, symBinAddr: 0x41EC, symSize: 0x27C }
  - { offset: 0x63080, size: 0x8, addend: 0x0, symName: __ZNSt3__112__hash_tableINS_17__hash_value_typeIN5godot10StringNameENS2_7ClassDB9ClassInfo13VirtualMethodEEENS_22__unordered_map_hasherIS3_S7_NS_4hashIS3_EENS_8equal_toIS3_EELb1EEENS_21__unordered_map_equalIS3_S7_SC_SA_Lb1EEENS_9allocatorIS7_EEE11__do_rehashILb0EEEvm, symObjAddr: 0x3920, symBinAddr: 0x4468, symSize: 0x220 }
  - { offset: 0x6353D, size: 0x8, addend: 0x0, symName: __ZNSt3__16vectorIN5godot10StringNameENS_9allocatorIS2_EEE21__push_back_slow_pathIRKS2_EEPS2_OT_, symObjAddr: 0x3B40, symBinAddr: 0x4688, symSize: 0x114 }
  - { offset: 0x63A44, size: 0x8, addend: 0x0, symName: __ZNK6sentry18SentryLoggerLimits19_is_extension_classEv, symObjAddr: 0x3E10, symBinAddr: 0x4958, symSize: 0x8 }
  - { offset: 0x63A87, size: 0x8, addend: 0x0, symName: __ZN6sentry18SentryLoggerLimitsD1Ev, symObjAddr: 0x3E18, symBinAddr: 0x4960, symSize: 0x8C }
  - { offset: 0x63C25, size: 0x8, addend: 0x0, symName: __ZN6sentry18SentryLoggerLimitsD1Ev.cold.1, symObjAddr: 0xCC84, symBinAddr: 0xEA8EC, symSize: 0x1C }
  - { offset: 0x63C40, size: 0x8, addend: 0x0, symName: __ZN6sentry18SentryLoggerLimitsD1Ev.cold.1, symObjAddr: 0xCC84, symBinAddr: 0xEA8EC, symSize: 0x1C }
  - { offset: 0x63C54, size: 0x8, addend: 0x0, symName: __ZN6sentry18SentryLoggerLimitsD1Ev.cold.1, symObjAddr: 0xCC84, symBinAddr: 0xEA8EC, symSize: 0x1C }
  - { offset: 0x63C68, size: 0x8, addend: 0x0, symName: __ZN6sentry18SentryLoggerLimitsD1Ev.cold.1, symObjAddr: 0xCC84, symBinAddr: 0xEA8EC, symSize: 0x1C }
  - { offset: 0x63C7C, size: 0x8, addend: 0x0, symName: __ZN6sentry18SentryLoggerLimitsD1Ev.cold.1, symObjAddr: 0xCC84, symBinAddr: 0xEA8EC, symSize: 0x1C }
  - { offset: 0x63C90, size: 0x8, addend: 0x0, symName: __ZN6sentry18SentryLoggerLimitsD1Ev.cold.1, symObjAddr: 0xCC84, symBinAddr: 0xEA8EC, symSize: 0x1C }
  - { offset: 0x63CA5, size: 0x8, addend: 0x0, symName: __ZN6sentry18SentryLoggerLimitsD1Ev.cold.1, symObjAddr: 0xCC84, symBinAddr: 0xEA8EC, symSize: 0x1C }
  - { offset: 0x63CD9, size: 0x8, addend: 0x0, symName: __ZN6sentry18SentryLoggerLimitsD0Ev, symObjAddr: 0x3EA4, symBinAddr: 0x49EC, symSize: 0x74 }
  - { offset: 0x63E24, size: 0x8, addend: 0x0, symName: __ZN6sentry18SentryLoggerLimitsD0Ev.cold.1, symObjAddr: 0xCCA0, symBinAddr: 0xEA908, symSize: 0x1C }
  - { offset: 0x63E3F, size: 0x8, addend: 0x0, symName: __ZN6sentry18SentryLoggerLimitsD0Ev.cold.1, symObjAddr: 0xCCA0, symBinAddr: 0xEA908, symSize: 0x1C }
  - { offset: 0x63E53, size: 0x8, addend: 0x0, symName: __ZN6sentry18SentryLoggerLimitsD0Ev.cold.1, symObjAddr: 0xCCA0, symBinAddr: 0xEA908, symSize: 0x1C }
  - { offset: 0x63E67, size: 0x8, addend: 0x0, symName: __ZN6sentry18SentryLoggerLimitsD0Ev.cold.1, symObjAddr: 0xCCA0, symBinAddr: 0xEA908, symSize: 0x1C }
  - { offset: 0x63E7B, size: 0x8, addend: 0x0, symName: __ZN6sentry18SentryLoggerLimitsD0Ev.cold.1, symObjAddr: 0xCCA0, symBinAddr: 0xEA908, symSize: 0x1C }
  - { offset: 0x63E8F, size: 0x8, addend: 0x0, symName: __ZN6sentry18SentryLoggerLimitsD0Ev.cold.1, symObjAddr: 0xCCA0, symBinAddr: 0xEA908, symSize: 0x1C }
  - { offset: 0x63EA3, size: 0x8, addend: 0x0, symName: __ZN6sentry18SentryLoggerLimitsD0Ev.cold.1, symObjAddr: 0xCCA0, symBinAddr: 0xEA908, symSize: 0x1C }
  - { offset: 0x63EB8, size: 0x8, addend: 0x0, symName: __ZN6sentry18SentryLoggerLimitsD0Ev.cold.1, symObjAddr: 0xCCA0, symBinAddr: 0xEA908, symSize: 0x1C }
  - { offset: 0x640DE, size: 0x8, addend: 0x0, symName: __ZN5godot7ClassDB15_register_classIN6sentry18SentryExperimentalELb0EEEvbbb.cold.1, symObjAddr: 0xCCBC, symBinAddr: 0xEA924, symSize: 0x5C }
  - { offset: 0x6410C, size: 0x8, addend: 0x0, symName: __ZN5godot7ClassDB15_register_classIN6sentry18SentryExperimentalELb0EEEvbbb.cold.2, symObjAddr: 0xCD18, symBinAddr: 0xEA980, symSize: 0x58 }
  - { offset: 0x6413A, size: 0x8, addend: 0x0, symName: __ZN5godot7ClassDB15_register_classIN6sentry18SentryExperimentalELb0EEEvbbb.cold.3, symObjAddr: 0xCD70, symBinAddr: 0xEA9D8, symSize: 0x58 }
  - { offset: 0x6417D, size: 0x8, addend: 0x0, symName: __ZN5godot7ClassDB15_register_classIN6sentry18SentryExperimentalELb0EEEvbbb.cold.4, symObjAddr: 0xCDC8, symBinAddr: 0xEAA30, symSize: 0x58 }
  - { offset: 0x641AC, size: 0x8, addend: 0x0, symName: __ZN6sentry18SentryExperimental8set_bindEPvPKvS3_, symObjAddr: 0x4300, symBinAddr: 0x4E48, symSize: 0x8 }
  - { offset: 0x641EC, size: 0x8, addend: 0x0, symName: __ZN6sentry18SentryExperimental8get_bindEPvPKvS1_, symObjAddr: 0x4308, symBinAddr: 0x4E50, symSize: 0x8 }
  - { offset: 0x6422C, size: 0x8, addend: 0x0, symName: __ZN6sentry18SentryExperimental22get_property_list_bindEPvPj, symObjAddr: 0x4310, symBinAddr: 0x4E58, symSize: 0x40 }
  - { offset: 0x642B8, size: 0x8, addend: 0x0, symName: __ZN6sentry18SentryExperimental22get_property_list_bindEPvPj.cold.1, symObjAddr: 0xCE20, symBinAddr: 0xEAA88, symSize: 0x28 }
  - { offset: 0x642D0, size: 0x8, addend: 0x0, symName: __ZN6sentry18SentryExperimental23free_property_list_bindEPvPK23GDExtensionPropertyInfoj, symObjAddr: 0x4350, symBinAddr: 0x4E98, symSize: 0x58 }
  - { offset: 0x643EA, size: 0x8, addend: 0x0, symName: __ZN6sentry18SentryExperimental24property_can_revert_bindEPvPKv, symObjAddr: 0x43A8, symBinAddr: 0x4EF0, symSize: 0x8 }
  - { offset: 0x6441C, size: 0x8, addend: 0x0, symName: __ZN6sentry18SentryExperimental24property_get_revert_bindEPvPKvS1_, symObjAddr: 0x43B0, symBinAddr: 0x4EF8, symSize: 0x8 }
  - { offset: 0x6445C, size: 0x8, addend: 0x0, symName: __ZN6sentry18SentryExperimental22validate_property_bindEPvP23GDExtensionPropertyInfo, symObjAddr: 0x43B8, symBinAddr: 0x4F00, symSize: 0xB8 }
  - { offset: 0x6451F, size: 0x8, addend: 0x0, symName: __ZN6sentry18SentryExperimental17notification_bindEPvih, symObjAddr: 0x4470, symBinAddr: 0x4FB8, symSize: 0x4 }
  - { offset: 0x6455E, size: 0x8, addend: 0x0, symName: __ZN6sentry18SentryExperimental14to_string_bindEPvPhS1_, symObjAddr: 0x4474, symBinAddr: 0x4FBC, symSize: 0x7C }
  - { offset: 0x64631, size: 0x8, addend: 0x0, symName: __ZN5godot7ClassDB21_create_instance_funcIN6sentry18SentryExperimentalEEEPvS4_h, symObjAddr: 0x44F0, symBinAddr: 0x5038, symSize: 0xE4 }
  - { offset: 0x6475D, size: 0x8, addend: 0x0, symName: __ZN5godot7ClassDB21_create_instance_funcIN6sentry18SentryExperimentalEEEPvS4_h.cold.1, symObjAddr: 0xCE48, symBinAddr: 0xEAAB0, symSize: 0x5C }
  - { offset: 0x647B5, size: 0x8, addend: 0x0, symName: __ZN6sentry18SentryExperimental4freeEPvS1_, symObjAddr: 0x45D4, symBinAddr: 0x511C, symSize: 0x3C }
  - { offset: 0x64810, size: 0x8, addend: 0x0, symName: __ZN5godot7ClassDB23_recreate_instance_funcIN6sentry18SentryExperimentalEEEPvS4_S4_, symObjAddr: 0x4610, symBinAddr: 0x5158, symSize: 0x8 }
  - { offset: 0x6484B, size: 0x8, addend: 0x0, symName: __ZN6sentry18SentryExperimental28_gde_binding_create_callbackEPvS1_, symObjAddr: 0x4618, symBinAddr: 0x5160, symSize: 0x8 }
  - { offset: 0x64876, size: 0x8, addend: 0x0, symName: __ZN6sentry18SentryExperimental26_gde_binding_free_callbackEPvS1_S1_, symObjAddr: 0x4620, symBinAddr: 0x5168, symSize: 0x4 }
  - { offset: 0x648A9, size: 0x8, addend: 0x0, symName: __ZN6sentry18SentryExperimental31_gde_binding_reference_callbackEPvS1_h, symObjAddr: 0x4624, symBinAddr: 0x516C, symSize: 0x8 }
  - { offset: 0x648DE, size: 0x8, addend: 0x0, symName: __ZNK6sentry18SentryExperimental19_is_extension_classEv, symObjAddr: 0x462C, symBinAddr: 0x5174, symSize: 0x8 }
  - { offset: 0x64921, size: 0x8, addend: 0x0, symName: __ZN6sentry18SentryExperimentalD1Ev, symObjAddr: 0x4634, symBinAddr: 0x517C, symSize: 0x8C }
  - { offset: 0x64ABF, size: 0x8, addend: 0x0, symName: __ZN6sentry18SentryExperimentalD1Ev.cold.1, symObjAddr: 0xCEA4, symBinAddr: 0xEAB0C, symSize: 0x1C }
  - { offset: 0x64ADA, size: 0x8, addend: 0x0, symName: __ZN6sentry18SentryExperimentalD1Ev.cold.1, symObjAddr: 0xCEA4, symBinAddr: 0xEAB0C, symSize: 0x1C }
  - { offset: 0x64AEE, size: 0x8, addend: 0x0, symName: __ZN6sentry18SentryExperimentalD1Ev.cold.1, symObjAddr: 0xCEA4, symBinAddr: 0xEAB0C, symSize: 0x1C }
  - { offset: 0x64B02, size: 0x8, addend: 0x0, symName: __ZN6sentry18SentryExperimentalD1Ev.cold.1, symObjAddr: 0xCEA4, symBinAddr: 0xEAB0C, symSize: 0x1C }
  - { offset: 0x64B16, size: 0x8, addend: 0x0, symName: __ZN6sentry18SentryExperimentalD1Ev.cold.1, symObjAddr: 0xCEA4, symBinAddr: 0xEAB0C, symSize: 0x1C }
  - { offset: 0x64B2A, size: 0x8, addend: 0x0, symName: __ZN6sentry18SentryExperimentalD1Ev.cold.1, symObjAddr: 0xCEA4, symBinAddr: 0xEAB0C, symSize: 0x1C }
  - { offset: 0x64B3F, size: 0x8, addend: 0x0, symName: __ZN6sentry18SentryExperimentalD1Ev.cold.1, symObjAddr: 0xCEA4, symBinAddr: 0xEAB0C, symSize: 0x1C }
  - { offset: 0x64B73, size: 0x8, addend: 0x0, symName: __ZN6sentry18SentryExperimentalD0Ev, symObjAddr: 0x46C0, symBinAddr: 0x5208, symSize: 0x74 }
  - { offset: 0x64CBE, size: 0x8, addend: 0x0, symName: __ZN6sentry18SentryExperimentalD0Ev.cold.1, symObjAddr: 0xCEC0, symBinAddr: 0xEAB28, symSize: 0x1C }
  - { offset: 0x64CD9, size: 0x8, addend: 0x0, symName: __ZN6sentry18SentryExperimentalD0Ev.cold.1, symObjAddr: 0xCEC0, symBinAddr: 0xEAB28, symSize: 0x1C }
  - { offset: 0x64CED, size: 0x8, addend: 0x0, symName: __ZN6sentry18SentryExperimentalD0Ev.cold.1, symObjAddr: 0xCEC0, symBinAddr: 0xEAB28, symSize: 0x1C }
  - { offset: 0x64D01, size: 0x8, addend: 0x0, symName: __ZN6sentry18SentryExperimentalD0Ev.cold.1, symObjAddr: 0xCEC0, symBinAddr: 0xEAB28, symSize: 0x1C }
  - { offset: 0x64D15, size: 0x8, addend: 0x0, symName: __ZN6sentry18SentryExperimentalD0Ev.cold.1, symObjAddr: 0xCEC0, symBinAddr: 0xEAB28, symSize: 0x1C }
  - { offset: 0x64D29, size: 0x8, addend: 0x0, symName: __ZN6sentry18SentryExperimentalD0Ev.cold.1, symObjAddr: 0xCEC0, symBinAddr: 0xEAB28, symSize: 0x1C }
  - { offset: 0x64D3D, size: 0x8, addend: 0x0, symName: __ZN6sentry18SentryExperimentalD0Ev.cold.1, symObjAddr: 0xCEC0, symBinAddr: 0xEAB28, symSize: 0x1C }
  - { offset: 0x64D52, size: 0x8, addend: 0x0, symName: __ZN6sentry18SentryExperimentalD0Ev.cold.1, symObjAddr: 0xCEC0, symBinAddr: 0xEAB28, symSize: 0x1C }
  - { offset: 0x64D80, size: 0x8, addend: 0x0, symName: __ZN5godot7ClassDB15_register_classIN6sentry13SentryOptionsELb0EEEvbbb.cold.1, symObjAddr: 0xCEDC, symBinAddr: 0xEAB44, symSize: 0x5C }
  - { offset: 0x64DAE, size: 0x8, addend: 0x0, symName: __ZN5godot7ClassDB15_register_classIN6sentry13SentryOptionsELb0EEEvbbb.cold.2, symObjAddr: 0xCF38, symBinAddr: 0xEABA0, symSize: 0x58 }
  - { offset: 0x64DDC, size: 0x8, addend: 0x0, symName: __ZN5godot7ClassDB15_register_classIN6sentry13SentryOptionsELb0EEEvbbb.cold.3, symObjAddr: 0xCF90, symBinAddr: 0xEABF8, symSize: 0x58 }
  - { offset: 0x64E1F, size: 0x8, addend: 0x0, symName: __ZN5godot7ClassDB15_register_classIN6sentry13SentryOptionsELb0EEEvbbb.cold.4, symObjAddr: 0xCFE8, symBinAddr: 0xEAC50, symSize: 0x58 }
  - { offset: 0x64E4E, size: 0x8, addend: 0x0, symName: __ZN6sentry13SentryOptions8set_bindEPvPKvS3_, symObjAddr: 0x4A60, symBinAddr: 0x55A8, symSize: 0x8 }
  - { offset: 0x64E8E, size: 0x8, addend: 0x0, symName: __ZN6sentry13SentryOptions8get_bindEPvPKvS1_, symObjAddr: 0x4A68, symBinAddr: 0x55B0, symSize: 0x8 }
  - { offset: 0x64ECE, size: 0x8, addend: 0x0, symName: __ZN6sentry13SentryOptions22get_property_list_bindEPvPj, symObjAddr: 0x4A70, symBinAddr: 0x55B8, symSize: 0x40 }
  - { offset: 0x64F5A, size: 0x8, addend: 0x0, symName: __ZN6sentry13SentryOptions22get_property_list_bindEPvPj.cold.1, symObjAddr: 0xD040, symBinAddr: 0xEACA8, symSize: 0x28 }
  - { offset: 0x64F72, size: 0x8, addend: 0x0, symName: __ZN6sentry13SentryOptions23free_property_list_bindEPvPK23GDExtensionPropertyInfoj, symObjAddr: 0x4AB0, symBinAddr: 0x55F8, symSize: 0x58 }
  - { offset: 0x6508C, size: 0x8, addend: 0x0, symName: __ZN6sentry13SentryOptions24property_can_revert_bindEPvPKv, symObjAddr: 0x4B08, symBinAddr: 0x5650, symSize: 0x8 }
  - { offset: 0x650BE, size: 0x8, addend: 0x0, symName: __ZN6sentry13SentryOptions24property_get_revert_bindEPvPKvS1_, symObjAddr: 0x4B10, symBinAddr: 0x5658, symSize: 0x8 }
  - { offset: 0x650FE, size: 0x8, addend: 0x0, symName: __ZN6sentry13SentryOptions22validate_property_bindEPvP23GDExtensionPropertyInfo, symObjAddr: 0x4B18, symBinAddr: 0x5660, symSize: 0xB8 }
  - { offset: 0x651C1, size: 0x8, addend: 0x0, symName: __ZN6sentry13SentryOptions17notification_bindEPvih, symObjAddr: 0x4BD0, symBinAddr: 0x5718, symSize: 0x4 }
  - { offset: 0x65200, size: 0x8, addend: 0x0, symName: __ZN6sentry13SentryOptions14to_string_bindEPvPhS1_, symObjAddr: 0x4BD4, symBinAddr: 0x571C, symSize: 0x7C }
  - { offset: 0x6529B, size: 0x8, addend: 0x0, symName: __ZN5godot7ClassDB21_create_instance_funcIN6sentry13SentryOptionsEEEPvS4_h, symObjAddr: 0x4C50, symBinAddr: 0x5798, symSize: 0x80 }
  - { offset: 0x65329, size: 0x8, addend: 0x0, symName: __ZN5godot7ClassDB21_create_instance_funcIN6sentry13SentryOptionsEEEPvS4_h.cold.1, symObjAddr: 0xD068, symBinAddr: 0xEACD0, symSize: 0x5C }
  - { offset: 0x65381, size: 0x8, addend: 0x0, symName: __ZN6sentry13SentryOptions4freeEPvS1_, symObjAddr: 0x4CD0, symBinAddr: 0x5818, symSize: 0x3C }
  - { offset: 0x653DC, size: 0x8, addend: 0x0, symName: __ZN5godot7ClassDB23_recreate_instance_funcIN6sentry13SentryOptionsEEEPvS4_S4_, symObjAddr: 0x4D0C, symBinAddr: 0x5854, symSize: 0x8 }
  - { offset: 0x65417, size: 0x8, addend: 0x0, symName: __ZN6sentry13SentryOptions28_gde_binding_create_callbackEPvS1_, symObjAddr: 0x4D14, symBinAddr: 0x585C, symSize: 0x8 }
  - { offset: 0x65442, size: 0x8, addend: 0x0, symName: __ZN6sentry13SentryOptions26_gde_binding_free_callbackEPvS1_S1_, symObjAddr: 0x4D1C, symBinAddr: 0x5864, symSize: 0x4 }
  - { offset: 0x65475, size: 0x8, addend: 0x0, symName: __ZN6sentry13SentryOptions31_gde_binding_reference_callbackEPvS1_h, symObjAddr: 0x4D20, symBinAddr: 0x5868, symSize: 0x8 }
  - { offset: 0x654BF, size: 0x8, addend: 0x0, symName: __ZN5godot7ClassDB15_register_classIN6sentry13RuntimeConfigELb0EEEvbbb.cold.1, symObjAddr: 0xD0C4, symBinAddr: 0xEAD2C, symSize: 0x5C }
  - { offset: 0x654ED, size: 0x8, addend: 0x0, symName: __ZN5godot7ClassDB15_register_classIN6sentry13RuntimeConfigELb0EEEvbbb.cold.2, symObjAddr: 0xD120, symBinAddr: 0xEAD88, symSize: 0x58 }
  - { offset: 0x6551B, size: 0x8, addend: 0x0, symName: __ZN5godot7ClassDB15_register_classIN6sentry13RuntimeConfigELb0EEEvbbb.cold.3, symObjAddr: 0xD178, symBinAddr: 0xEADE0, symSize: 0x58 }
  - { offset: 0x6555E, size: 0x8, addend: 0x0, symName: __ZN5godot7ClassDB15_register_classIN6sentry13RuntimeConfigELb0EEEvbbb.cold.4, symObjAddr: 0xD1D0, symBinAddr: 0xEAE38, symSize: 0x58 }
  - { offset: 0x6558D, size: 0x8, addend: 0x0, symName: __ZN6sentry13RuntimeConfig8set_bindEPvPKvS3_, symObjAddr: 0x5050, symBinAddr: 0x5B98, symSize: 0x8 }
  - { offset: 0x655CD, size: 0x8, addend: 0x0, symName: __ZN6sentry13RuntimeConfig8get_bindEPvPKvS1_, symObjAddr: 0x5058, symBinAddr: 0x5BA0, symSize: 0x8 }
  - { offset: 0x6560D, size: 0x8, addend: 0x0, symName: __ZN6sentry13RuntimeConfig22get_property_list_bindEPvPj, symObjAddr: 0x5060, symBinAddr: 0x5BA8, symSize: 0x40 }
  - { offset: 0x65699, size: 0x8, addend: 0x0, symName: __ZN6sentry13RuntimeConfig22get_property_list_bindEPvPj.cold.1, symObjAddr: 0xD228, symBinAddr: 0xEAE90, symSize: 0x28 }
  - { offset: 0x656B1, size: 0x8, addend: 0x0, symName: __ZN6sentry13RuntimeConfig23free_property_list_bindEPvPK23GDExtensionPropertyInfoj, symObjAddr: 0x50A0, symBinAddr: 0x5BE8, symSize: 0x58 }
  - { offset: 0x657CB, size: 0x8, addend: 0x0, symName: __ZN6sentry13RuntimeConfig24property_can_revert_bindEPvPKv, symObjAddr: 0x50F8, symBinAddr: 0x5C40, symSize: 0x8 }
  - { offset: 0x657FD, size: 0x8, addend: 0x0, symName: __ZN6sentry13RuntimeConfig24property_get_revert_bindEPvPKvS1_, symObjAddr: 0x5100, symBinAddr: 0x5C48, symSize: 0x8 }
  - { offset: 0x6583D, size: 0x8, addend: 0x0, symName: __ZN6sentry13RuntimeConfig22validate_property_bindEPvP23GDExtensionPropertyInfo, symObjAddr: 0x5108, symBinAddr: 0x5C50, symSize: 0xB8 }
  - { offset: 0x65900, size: 0x8, addend: 0x0, symName: __ZN6sentry13RuntimeConfig17notification_bindEPvih, symObjAddr: 0x51C0, symBinAddr: 0x5D08, symSize: 0x4 }
  - { offset: 0x6593F, size: 0x8, addend: 0x0, symName: __ZN6sentry13RuntimeConfig14to_string_bindEPvPhS1_, symObjAddr: 0x51C4, symBinAddr: 0x5D0C, symSize: 0x7C }
  - { offset: 0x659DA, size: 0x8, addend: 0x0, symName: __ZN5godot7ClassDB21_create_instance_funcIN6sentry13RuntimeConfigEEEPvS4_h, symObjAddr: 0x5240, symBinAddr: 0x5D88, symSize: 0x80 }
  - { offset: 0x65A68, size: 0x8, addend: 0x0, symName: __ZN5godot7ClassDB21_create_instance_funcIN6sentry13RuntimeConfigEEEPvS4_h.cold.1, symObjAddr: 0xD250, symBinAddr: 0xEAEB8, symSize: 0x5C }
  - { offset: 0x65AC0, size: 0x8, addend: 0x0, symName: __ZN6sentry13RuntimeConfig4freeEPvS1_, symObjAddr: 0x52C0, symBinAddr: 0x5E08, symSize: 0x3C }
  - { offset: 0x65B1B, size: 0x8, addend: 0x0, symName: __ZN5godot7ClassDB23_recreate_instance_funcIN6sentry13RuntimeConfigEEEPvS4_S4_, symObjAddr: 0x52FC, symBinAddr: 0x5E44, symSize: 0x8 }
  - { offset: 0x65B56, size: 0x8, addend: 0x0, symName: __ZN6sentry13RuntimeConfig28_gde_binding_create_callbackEPvS1_, symObjAddr: 0x5304, symBinAddr: 0x5E4C, symSize: 0x8 }
  - { offset: 0x65B81, size: 0x8, addend: 0x0, symName: __ZN6sentry13RuntimeConfig26_gde_binding_free_callbackEPvS1_S1_, symObjAddr: 0x530C, symBinAddr: 0x5E54, symSize: 0x4 }
  - { offset: 0x65BB4, size: 0x8, addend: 0x0, symName: __ZN6sentry13RuntimeConfig31_gde_binding_reference_callbackEPvS1_h, symObjAddr: 0x5310, symBinAddr: 0x5E58, symSize: 0x8 }
  - { offset: 0x65BFE, size: 0x8, addend: 0x0, symName: __ZN5godot7ClassDB15_register_classIN6sentry10SentryUserELb0EEEvbbb.cold.1, symObjAddr: 0xD2AC, symBinAddr: 0xEAF14, symSize: 0x5C }
  - { offset: 0x65C2C, size: 0x8, addend: 0x0, symName: __ZN5godot7ClassDB15_register_classIN6sentry10SentryUserELb0EEEvbbb.cold.2, symObjAddr: 0xD308, symBinAddr: 0xEAF70, symSize: 0x58 }
  - { offset: 0x65C5A, size: 0x8, addend: 0x0, symName: __ZN5godot7ClassDB15_register_classIN6sentry10SentryUserELb0EEEvbbb.cold.3, symObjAddr: 0xD360, symBinAddr: 0xEAFC8, symSize: 0x58 }
  - { offset: 0x65C9D, size: 0x8, addend: 0x0, symName: __ZN5godot7ClassDB15_register_classIN6sentry10SentryUserELb0EEEvbbb.cold.4, symObjAddr: 0xD3B8, symBinAddr: 0xEB020, symSize: 0x58 }
  - { offset: 0x65CCC, size: 0x8, addend: 0x0, symName: __ZN6sentry10SentryUser8set_bindEPvPKvS3_, symObjAddr: 0x5644, symBinAddr: 0x618C, symSize: 0x8 }
  - { offset: 0x65D0C, size: 0x8, addend: 0x0, symName: __ZN6sentry10SentryUser8get_bindEPvPKvS1_, symObjAddr: 0x564C, symBinAddr: 0x6194, symSize: 0x8 }
  - { offset: 0x65D4C, size: 0x8, addend: 0x0, symName: __ZN6sentry10SentryUser22get_property_list_bindEPvPj, symObjAddr: 0x5654, symBinAddr: 0x619C, symSize: 0x40 }
  - { offset: 0x65DD8, size: 0x8, addend: 0x0, symName: __ZN6sentry10SentryUser22get_property_list_bindEPvPj.cold.1, symObjAddr: 0xD410, symBinAddr: 0xEB078, symSize: 0x28 }
  - { offset: 0x65DF0, size: 0x8, addend: 0x0, symName: __ZN6sentry10SentryUser23free_property_list_bindEPvPK23GDExtensionPropertyInfoj, symObjAddr: 0x5694, symBinAddr: 0x61DC, symSize: 0x58 }
  - { offset: 0x65F0A, size: 0x8, addend: 0x0, symName: __ZN6sentry10SentryUser24property_can_revert_bindEPvPKv, symObjAddr: 0x56EC, symBinAddr: 0x6234, symSize: 0x8 }
  - { offset: 0x65F3C, size: 0x8, addend: 0x0, symName: __ZN6sentry10SentryUser24property_get_revert_bindEPvPKvS1_, symObjAddr: 0x56F4, symBinAddr: 0x623C, symSize: 0x8 }
  - { offset: 0x65F7C, size: 0x8, addend: 0x0, symName: __ZN6sentry10SentryUser22validate_property_bindEPvP23GDExtensionPropertyInfo, symObjAddr: 0x56FC, symBinAddr: 0x6244, symSize: 0xB8 }
  - { offset: 0x6603F, size: 0x8, addend: 0x0, symName: __ZN6sentry10SentryUser17notification_bindEPvih, symObjAddr: 0x57B4, symBinAddr: 0x62FC, symSize: 0x4 }
  - { offset: 0x6607E, size: 0x8, addend: 0x0, symName: __ZN6sentry10SentryUser14to_string_bindEPvPhS1_, symObjAddr: 0x57B8, symBinAddr: 0x6300, symSize: 0x7C }
  - { offset: 0x6613C, size: 0x8, addend: 0x0, symName: __ZN5godot7ClassDB21_create_instance_funcIN6sentry10SentryUserEEEPvS4_h, symObjAddr: 0x5834, symBinAddr: 0x637C, symSize: 0x110 }
  - { offset: 0x66268, size: 0x8, addend: 0x0, symName: __ZN5godot7ClassDB21_create_instance_funcIN6sentry10SentryUserEEEPvS4_h.cold.1, symObjAddr: 0xD438, symBinAddr: 0xEB0A0, symSize: 0x5C }
  - { offset: 0x662C0, size: 0x8, addend: 0x0, symName: __ZN6sentry10SentryUser4freeEPvS1_, symObjAddr: 0x5944, symBinAddr: 0x648C, symSize: 0x3C }
  - { offset: 0x6631B, size: 0x8, addend: 0x0, symName: __ZN5godot7ClassDB23_recreate_instance_funcIN6sentry10SentryUserEEEPvS4_S4_, symObjAddr: 0x5980, symBinAddr: 0x64C8, symSize: 0x8 }
  - { offset: 0x66356, size: 0x8, addend: 0x0, symName: __ZN6sentry10SentryUser28_gde_binding_create_callbackEPvS1_, symObjAddr: 0x5988, symBinAddr: 0x64D0, symSize: 0x8 }
  - { offset: 0x66381, size: 0x8, addend: 0x0, symName: __ZN6sentry10SentryUser26_gde_binding_free_callbackEPvS1_S1_, symObjAddr: 0x5990, symBinAddr: 0x64D8, symSize: 0x4 }
  - { offset: 0x663B4, size: 0x8, addend: 0x0, symName: __ZN6sentry10SentryUser31_gde_binding_reference_callbackEPvS1_h, symObjAddr: 0x5994, symBinAddr: 0x64DC, symSize: 0x8 }
  - { offset: 0x663E9, size: 0x8, addend: 0x0, symName: __ZNK6sentry10SentryUser19_is_extension_classEv, symObjAddr: 0x599C, symBinAddr: 0x64E4, symSize: 0x8 }
  - { offset: 0x66410, size: 0x8, addend: 0x0, symName: __ZN6sentry10SentryUserD1Ev, symObjAddr: 0x59A4, symBinAddr: 0x64EC, symSize: 0x4 }
  - { offset: 0x66433, size: 0x8, addend: 0x0, symName: __ZN6sentry10SentryUserD1Ev, symObjAddr: 0x59A4, symBinAddr: 0x64EC, symSize: 0x4 }
  - { offset: 0x66446, size: 0x8, addend: 0x0, symName: __ZN6sentry10SentryUserD2Ev, symObjAddr: 0x59BC, symBinAddr: 0x6504, symSize: 0xB4 }
  - { offset: 0x665F5, size: 0x8, addend: 0x0, symName: __ZN6sentry10SentryUserD0Ev, symObjAddr: 0x59A8, symBinAddr: 0x64F0, symSize: 0x14 }
  - { offset: 0x66652, size: 0x8, addend: 0x0, symName: __ZN6sentry10SentryUserD2Ev.cold.1, symObjAddr: 0xD494, symBinAddr: 0xEB0FC, symSize: 0x1C }
  - { offset: 0x6666D, size: 0x8, addend: 0x0, symName: __ZN6sentry10SentryUserD2Ev.cold.1, symObjAddr: 0xD494, symBinAddr: 0xEB0FC, symSize: 0x1C }
  - { offset: 0x66681, size: 0x8, addend: 0x0, symName: __ZN6sentry10SentryUserD2Ev.cold.1, symObjAddr: 0xD494, symBinAddr: 0xEB0FC, symSize: 0x1C }
  - { offset: 0x66695, size: 0x8, addend: 0x0, symName: __ZN6sentry10SentryUserD2Ev.cold.1, symObjAddr: 0xD494, symBinAddr: 0xEB0FC, symSize: 0x1C }
  - { offset: 0x666A9, size: 0x8, addend: 0x0, symName: __ZN6sentry10SentryUserD2Ev.cold.1, symObjAddr: 0xD494, symBinAddr: 0xEB0FC, symSize: 0x1C }
  - { offset: 0x666BE, size: 0x8, addend: 0x0, symName: __ZN6sentry10SentryUserD2Ev.cold.1, symObjAddr: 0xD494, symBinAddr: 0xEB0FC, symSize: 0x1C }
  - { offset: 0x666EA, size: 0x8, addend: 0x0, symName: __ZN5godot7ClassDB15_register_classIN6sentry15SentryTimestampELb0EEEvbbb.cold.1, symObjAddr: 0xD4B0, symBinAddr: 0xEB118, symSize: 0x5C }
  - { offset: 0x66718, size: 0x8, addend: 0x0, symName: __ZN5godot7ClassDB15_register_classIN6sentry15SentryTimestampELb0EEEvbbb.cold.2, symObjAddr: 0xD50C, symBinAddr: 0xEB174, symSize: 0x58 }
  - { offset: 0x66746, size: 0x8, addend: 0x0, symName: __ZN5godot7ClassDB15_register_classIN6sentry15SentryTimestampELb0EEEvbbb.cold.3, symObjAddr: 0xD564, symBinAddr: 0xEB1CC, symSize: 0x58 }
  - { offset: 0x66789, size: 0x8, addend: 0x0, symName: __ZN5godot7ClassDB15_register_classIN6sentry15SentryTimestampELb0EEEvbbb.cold.4, symObjAddr: 0xD5BC, symBinAddr: 0xEB224, symSize: 0x58 }
  - { offset: 0x667B8, size: 0x8, addend: 0x0, symName: __ZN6sentry15SentryTimestamp8set_bindEPvPKvS3_, symObjAddr: 0x5D9C, symBinAddr: 0x68E4, symSize: 0x8 }
  - { offset: 0x667F8, size: 0x8, addend: 0x0, symName: __ZN6sentry15SentryTimestamp8get_bindEPvPKvS1_, symObjAddr: 0x5DA4, symBinAddr: 0x68EC, symSize: 0x8 }
  - { offset: 0x66838, size: 0x8, addend: 0x0, symName: __ZN6sentry15SentryTimestamp22get_property_list_bindEPvPj, symObjAddr: 0x5DAC, symBinAddr: 0x68F4, symSize: 0x40 }
  - { offset: 0x668C4, size: 0x8, addend: 0x0, symName: __ZN6sentry15SentryTimestamp22get_property_list_bindEPvPj.cold.1, symObjAddr: 0xD614, symBinAddr: 0xEB27C, symSize: 0x28 }
  - { offset: 0x668DC, size: 0x8, addend: 0x0, symName: __ZN6sentry15SentryTimestamp23free_property_list_bindEPvPK23GDExtensionPropertyInfoj, symObjAddr: 0x5DEC, symBinAddr: 0x6934, symSize: 0x58 }
  - { offset: 0x669F6, size: 0x8, addend: 0x0, symName: __ZN6sentry15SentryTimestamp24property_can_revert_bindEPvPKv, symObjAddr: 0x5E44, symBinAddr: 0x698C, symSize: 0x8 }
  - { offset: 0x66A28, size: 0x8, addend: 0x0, symName: __ZN6sentry15SentryTimestamp24property_get_revert_bindEPvPKvS1_, symObjAddr: 0x5E4C, symBinAddr: 0x6994, symSize: 0x8 }
  - { offset: 0x66A68, size: 0x8, addend: 0x0, symName: __ZN6sentry15SentryTimestamp22validate_property_bindEPvP23GDExtensionPropertyInfo, symObjAddr: 0x5E54, symBinAddr: 0x699C, symSize: 0xB8 }
  - { offset: 0x66B2B, size: 0x8, addend: 0x0, symName: __ZN6sentry15SentryTimestamp17notification_bindEPvih, symObjAddr: 0x5F0C, symBinAddr: 0x6A54, symSize: 0x4 }
  - { offset: 0x66B80, size: 0x8, addend: 0x0, symName: __ZN6sentry15SentryTimestamp14to_string_bindEPvPhS1_, symObjAddr: 0x5F10, symBinAddr: 0x6A58, symSize: 0x7C }
  - { offset: 0x66C5A, size: 0x8, addend: 0x0, symName: __ZN5godot7ClassDB21_create_instance_funcIN6sentry15SentryTimestampEEEPvS4_h, symObjAddr: 0x5F8C, symBinAddr: 0x6AD4, symSize: 0xE8 }
  - { offset: 0x66D86, size: 0x8, addend: 0x0, symName: __ZN5godot7ClassDB21_create_instance_funcIN6sentry15SentryTimestampEEEPvS4_h.cold.1, symObjAddr: 0xD63C, symBinAddr: 0xEB2A4, symSize: 0x5C }
  - { offset: 0x66DDE, size: 0x8, addend: 0x0, symName: __ZN6sentry15SentryTimestamp4freeEPvS1_, symObjAddr: 0x6074, symBinAddr: 0x6BBC, symSize: 0x3C }
  - { offset: 0x66E39, size: 0x8, addend: 0x0, symName: __ZN5godot7ClassDB23_recreate_instance_funcIN6sentry15SentryTimestampEEEPvS4_S4_, symObjAddr: 0x60B0, symBinAddr: 0x6BF8, symSize: 0x8 }
  - { offset: 0x66E74, size: 0x8, addend: 0x0, symName: __ZN6sentry15SentryTimestamp28_gde_binding_create_callbackEPvS1_, symObjAddr: 0x60B8, symBinAddr: 0x6C00, symSize: 0x8 }
  - { offset: 0x66E9F, size: 0x8, addend: 0x0, symName: __ZN6sentry15SentryTimestamp26_gde_binding_free_callbackEPvS1_S1_, symObjAddr: 0x60C0, symBinAddr: 0x6C08, symSize: 0x4 }
  - { offset: 0x66ED2, size: 0x8, addend: 0x0, symName: __ZN6sentry15SentryTimestamp31_gde_binding_reference_callbackEPvS1_h, symObjAddr: 0x60C4, symBinAddr: 0x6C0C, symSize: 0x8 }
  - { offset: 0x66F07, size: 0x8, addend: 0x0, symName: __ZNK6sentry15SentryTimestamp19_is_extension_classEv, symObjAddr: 0x60CC, symBinAddr: 0x6C14, symSize: 0x8 }
  - { offset: 0x66F4A, size: 0x8, addend: 0x0, symName: __ZN6sentry15SentryTimestampD1Ev, symObjAddr: 0x60D4, symBinAddr: 0x6C1C, symSize: 0x8C }
  - { offset: 0x670E8, size: 0x8, addend: 0x0, symName: __ZN6sentry15SentryTimestampD1Ev.cold.1, symObjAddr: 0xD698, symBinAddr: 0xEB300, symSize: 0x1C }
  - { offset: 0x67103, size: 0x8, addend: 0x0, symName: __ZN6sentry15SentryTimestampD1Ev.cold.1, symObjAddr: 0xD698, symBinAddr: 0xEB300, symSize: 0x1C }
  - { offset: 0x67117, size: 0x8, addend: 0x0, symName: __ZN6sentry15SentryTimestampD1Ev.cold.1, symObjAddr: 0xD698, symBinAddr: 0xEB300, symSize: 0x1C }
  - { offset: 0x6712B, size: 0x8, addend: 0x0, symName: __ZN6sentry15SentryTimestampD1Ev.cold.1, symObjAddr: 0xD698, symBinAddr: 0xEB300, symSize: 0x1C }
  - { offset: 0x6713F, size: 0x8, addend: 0x0, symName: __ZN6sentry15SentryTimestampD1Ev.cold.1, symObjAddr: 0xD698, symBinAddr: 0xEB300, symSize: 0x1C }
  - { offset: 0x67153, size: 0x8, addend: 0x0, symName: __ZN6sentry15SentryTimestampD1Ev.cold.1, symObjAddr: 0xD698, symBinAddr: 0xEB300, symSize: 0x1C }
  - { offset: 0x67168, size: 0x8, addend: 0x0, symName: __ZN6sentry15SentryTimestampD1Ev.cold.1, symObjAddr: 0xD698, symBinAddr: 0xEB300, symSize: 0x1C }
  - { offset: 0x6719C, size: 0x8, addend: 0x0, symName: __ZN6sentry15SentryTimestampD0Ev, symObjAddr: 0x6160, symBinAddr: 0x6CA8, symSize: 0x74 }
  - { offset: 0x672E7, size: 0x8, addend: 0x0, symName: __ZN6sentry15SentryTimestampD0Ev.cold.1, symObjAddr: 0xD6B4, symBinAddr: 0xEB31C, symSize: 0x1C }
  - { offset: 0x67302, size: 0x8, addend: 0x0, symName: __ZN6sentry15SentryTimestampD0Ev.cold.1, symObjAddr: 0xD6B4, symBinAddr: 0xEB31C, symSize: 0x1C }
  - { offset: 0x67316, size: 0x8, addend: 0x0, symName: __ZN6sentry15SentryTimestampD0Ev.cold.1, symObjAddr: 0xD6B4, symBinAddr: 0xEB31C, symSize: 0x1C }
  - { offset: 0x6732A, size: 0x8, addend: 0x0, symName: __ZN6sentry15SentryTimestampD0Ev.cold.1, symObjAddr: 0xD6B4, symBinAddr: 0xEB31C, symSize: 0x1C }
  - { offset: 0x6733E, size: 0x8, addend: 0x0, symName: __ZN6sentry15SentryTimestampD0Ev.cold.1, symObjAddr: 0xD6B4, symBinAddr: 0xEB31C, symSize: 0x1C }
  - { offset: 0x67352, size: 0x8, addend: 0x0, symName: __ZN6sentry15SentryTimestampD0Ev.cold.1, symObjAddr: 0xD6B4, symBinAddr: 0xEB31C, symSize: 0x1C }
  - { offset: 0x67366, size: 0x8, addend: 0x0, symName: __ZN6sentry15SentryTimestampD0Ev.cold.1, symObjAddr: 0xD6B4, symBinAddr: 0xEB31C, symSize: 0x1C }
  - { offset: 0x6737B, size: 0x8, addend: 0x0, symName: __ZN6sentry15SentryTimestampD0Ev.cold.1, symObjAddr: 0xD6B4, symBinAddr: 0xEB31C, symSize: 0x1C }
  - { offset: 0x673A9, size: 0x8, addend: 0x0, symName: __ZN5godot7ClassDB15_register_classIN6sentry12SentryLoggerELb0EEEvbbb.cold.1, symObjAddr: 0xD6D0, symBinAddr: 0xEB338, symSize: 0x5C }
  - { offset: 0x673D7, size: 0x8, addend: 0x0, symName: __ZN5godot7ClassDB15_register_classIN6sentry12SentryLoggerELb0EEEvbbb.cold.2, symObjAddr: 0xD72C, symBinAddr: 0xEB394, symSize: 0x58 }
  - { offset: 0x67405, size: 0x8, addend: 0x0, symName: __ZN5godot7ClassDB15_register_classIN6sentry12SentryLoggerELb0EEEvbbb.cold.3, symObjAddr: 0xD784, symBinAddr: 0xEB3EC, symSize: 0x58 }
  - { offset: 0x67448, size: 0x8, addend: 0x0, symName: __ZN5godot7ClassDB15_register_classIN6sentry12SentryLoggerELb0EEEvbbb.cold.4, symObjAddr: 0xD7DC, symBinAddr: 0xEB444, symSize: 0x58 }
  - { offset: 0x67477, size: 0x8, addend: 0x0, symName: __ZN6sentry12SentryLogger8set_bindEPvPKvS3_, symObjAddr: 0x6500, symBinAddr: 0x7048, symSize: 0x8 }
  - { offset: 0x674B7, size: 0x8, addend: 0x0, symName: __ZN6sentry12SentryLogger8get_bindEPvPKvS1_, symObjAddr: 0x6508, symBinAddr: 0x7050, symSize: 0x8 }
  - { offset: 0x674F7, size: 0x8, addend: 0x0, symName: __ZN6sentry12SentryLogger22get_property_list_bindEPvPj, symObjAddr: 0x6510, symBinAddr: 0x7058, symSize: 0x40 }
  - { offset: 0x67583, size: 0x8, addend: 0x0, symName: __ZN6sentry12SentryLogger22get_property_list_bindEPvPj.cold.1, symObjAddr: 0xD834, symBinAddr: 0xEB49C, symSize: 0x28 }
  - { offset: 0x6759B, size: 0x8, addend: 0x0, symName: __ZN6sentry12SentryLogger23free_property_list_bindEPvPK23GDExtensionPropertyInfoj, symObjAddr: 0x6550, symBinAddr: 0x7098, symSize: 0x58 }
  - { offset: 0x676B5, size: 0x8, addend: 0x0, symName: __ZN6sentry12SentryLogger24property_can_revert_bindEPvPKv, symObjAddr: 0x65A8, symBinAddr: 0x70F0, symSize: 0x8 }
  - { offset: 0x676E7, size: 0x8, addend: 0x0, symName: __ZN6sentry12SentryLogger24property_get_revert_bindEPvPKvS1_, symObjAddr: 0x65B0, symBinAddr: 0x70F8, symSize: 0x8 }
  - { offset: 0x67727, size: 0x8, addend: 0x0, symName: __ZN6sentry12SentryLogger22validate_property_bindEPvP23GDExtensionPropertyInfo, symObjAddr: 0x65B8, symBinAddr: 0x7100, symSize: 0xB8 }
  - { offset: 0x677EA, size: 0x8, addend: 0x0, symName: __ZN6sentry12SentryLogger17notification_bindEPvih, symObjAddr: 0x6670, symBinAddr: 0x71B8, symSize: 0x4 }
  - { offset: 0x67829, size: 0x8, addend: 0x0, symName: __ZN6sentry12SentryLogger14to_string_bindEPvPhS1_, symObjAddr: 0x6674, symBinAddr: 0x71BC, symSize: 0x7C }
  - { offset: 0x678C4, size: 0x8, addend: 0x0, symName: __ZN5godot7ClassDB21_create_instance_funcIN6sentry12SentryLoggerEEEPvS4_h, symObjAddr: 0x66F0, symBinAddr: 0x7238, symSize: 0x80 }
  - { offset: 0x67952, size: 0x8, addend: 0x0, symName: __ZN5godot7ClassDB21_create_instance_funcIN6sentry12SentryLoggerEEEPvS4_h.cold.1, symObjAddr: 0xD85C, symBinAddr: 0xEB4C4, symSize: 0x5C }
  - { offset: 0x679AA, size: 0x8, addend: 0x0, symName: __ZN6sentry12SentryLogger4freeEPvS1_, symObjAddr: 0x6770, symBinAddr: 0x72B8, symSize: 0x3C }
  - { offset: 0x67A05, size: 0x8, addend: 0x0, symName: __ZN5godot7ClassDB23_recreate_instance_funcIN6sentry12SentryLoggerEEEPvS4_S4_, symObjAddr: 0x67AC, symBinAddr: 0x72F4, symSize: 0x8 }
  - { offset: 0x67A40, size: 0x8, addend: 0x0, symName: __ZN6sentry12SentryLogger28_gde_binding_create_callbackEPvS1_, symObjAddr: 0x67B4, symBinAddr: 0x72FC, symSize: 0x8 }
  - { offset: 0x67A6B, size: 0x8, addend: 0x0, symName: __ZN6sentry12SentryLogger26_gde_binding_free_callbackEPvS1_S1_, symObjAddr: 0x67BC, symBinAddr: 0x7304, symSize: 0x4 }
  - { offset: 0x67A9E, size: 0x8, addend: 0x0, symName: __ZN6sentry12SentryLogger31_gde_binding_reference_callbackEPvS1_h, symObjAddr: 0x67C0, symBinAddr: 0x7308, symSize: 0x8 }
  - { offset: 0x67AE8, size: 0x8, addend: 0x0, symName: __ZN5godot7ClassDB15_register_classIN6sentry14SentryFeedbackELb0EEEvbbb.cold.1, symObjAddr: 0xD8B8, symBinAddr: 0xEB520, symSize: 0x5C }
  - { offset: 0x67B16, size: 0x8, addend: 0x0, symName: __ZN5godot7ClassDB15_register_classIN6sentry14SentryFeedbackELb0EEEvbbb.cold.2, symObjAddr: 0xD914, symBinAddr: 0xEB57C, symSize: 0x58 }
  - { offset: 0x67B44, size: 0x8, addend: 0x0, symName: __ZN5godot7ClassDB15_register_classIN6sentry14SentryFeedbackELb0EEEvbbb.cold.3, symObjAddr: 0xD96C, symBinAddr: 0xEB5D4, symSize: 0x58 }
  - { offset: 0x67B87, size: 0x8, addend: 0x0, symName: __ZN5godot7ClassDB15_register_classIN6sentry14SentryFeedbackELb0EEEvbbb.cold.4, symObjAddr: 0xD9C4, symBinAddr: 0xEB62C, symSize: 0x58 }
  - { offset: 0x67BB6, size: 0x8, addend: 0x0, symName: __ZN6sentry14SentryFeedback8set_bindEPvPKvS3_, symObjAddr: 0x6AF4, symBinAddr: 0x763C, symSize: 0x8 }
  - { offset: 0x67BF6, size: 0x8, addend: 0x0, symName: __ZN6sentry14SentryFeedback8get_bindEPvPKvS1_, symObjAddr: 0x6AFC, symBinAddr: 0x7644, symSize: 0x8 }
  - { offset: 0x67C36, size: 0x8, addend: 0x0, symName: __ZN6sentry14SentryFeedback22get_property_list_bindEPvPj, symObjAddr: 0x6B04, symBinAddr: 0x764C, symSize: 0x40 }
  - { offset: 0x67CC2, size: 0x8, addend: 0x0, symName: __ZN6sentry14SentryFeedback22get_property_list_bindEPvPj.cold.1, symObjAddr: 0xDA1C, symBinAddr: 0xEB684, symSize: 0x28 }
  - { offset: 0x67CDA, size: 0x8, addend: 0x0, symName: __ZN6sentry14SentryFeedback23free_property_list_bindEPvPK23GDExtensionPropertyInfoj, symObjAddr: 0x6B44, symBinAddr: 0x768C, symSize: 0x58 }
  - { offset: 0x67DF4, size: 0x8, addend: 0x0, symName: __ZN6sentry14SentryFeedback24property_can_revert_bindEPvPKv, symObjAddr: 0x6B9C, symBinAddr: 0x76E4, symSize: 0x8 }
  - { offset: 0x67E26, size: 0x8, addend: 0x0, symName: __ZN6sentry14SentryFeedback24property_get_revert_bindEPvPKvS1_, symObjAddr: 0x6BA4, symBinAddr: 0x76EC, symSize: 0x8 }
  - { offset: 0x67E66, size: 0x8, addend: 0x0, symName: __ZN6sentry14SentryFeedback22validate_property_bindEPvP23GDExtensionPropertyInfo, symObjAddr: 0x6BAC, symBinAddr: 0x76F4, symSize: 0xB8 }
  - { offset: 0x67F29, size: 0x8, addend: 0x0, symName: __ZN6sentry14SentryFeedback17notification_bindEPvih, symObjAddr: 0x6C64, symBinAddr: 0x77AC, symSize: 0x4 }
  - { offset: 0x67F68, size: 0x8, addend: 0x0, symName: __ZN6sentry14SentryFeedback14to_string_bindEPvPhS1_, symObjAddr: 0x6C68, symBinAddr: 0x77B0, symSize: 0x7C }
  - { offset: 0x6803B, size: 0x8, addend: 0x0, symName: __ZN5godot7ClassDB21_create_instance_funcIN6sentry14SentryFeedbackEEEPvS4_h, symObjAddr: 0x6CE4, symBinAddr: 0x782C, symSize: 0x110 }
  - { offset: 0x68167, size: 0x8, addend: 0x0, symName: __ZN5godot7ClassDB21_create_instance_funcIN6sentry14SentryFeedbackEEEPvS4_h.cold.1, symObjAddr: 0xDA44, symBinAddr: 0xEB6AC, symSize: 0x5C }
  - { offset: 0x681BF, size: 0x8, addend: 0x0, symName: __ZN6sentry14SentryFeedback4freeEPvS1_, symObjAddr: 0x6DF4, symBinAddr: 0x793C, symSize: 0x3C }
  - { offset: 0x6821A, size: 0x8, addend: 0x0, symName: __ZN5godot7ClassDB23_recreate_instance_funcIN6sentry14SentryFeedbackEEEPvS4_S4_, symObjAddr: 0x6E30, symBinAddr: 0x7978, symSize: 0x8 }
  - { offset: 0x68255, size: 0x8, addend: 0x0, symName: __ZN6sentry14SentryFeedback28_gde_binding_create_callbackEPvS1_, symObjAddr: 0x6E38, symBinAddr: 0x7980, symSize: 0x8 }
  - { offset: 0x68280, size: 0x8, addend: 0x0, symName: __ZN6sentry14SentryFeedback26_gde_binding_free_callbackEPvS1_S1_, symObjAddr: 0x6E40, symBinAddr: 0x7988, symSize: 0x4 }
  - { offset: 0x682B3, size: 0x8, addend: 0x0, symName: __ZN6sentry14SentryFeedback31_gde_binding_reference_callbackEPvS1_h, symObjAddr: 0x6E44, symBinAddr: 0x798C, symSize: 0x8 }
  - { offset: 0x682E8, size: 0x8, addend: 0x0, symName: __ZNK6sentry14SentryFeedback19_is_extension_classEv, symObjAddr: 0x6E4C, symBinAddr: 0x7994, symSize: 0x8 }
  - { offset: 0x6830F, size: 0x8, addend: 0x0, symName: __ZN6sentry14SentryFeedbackD1Ev, symObjAddr: 0x6E54, symBinAddr: 0x799C, symSize: 0x4 }
  - { offset: 0x68332, size: 0x8, addend: 0x0, symName: __ZN6sentry14SentryFeedbackD1Ev, symObjAddr: 0x6E54, symBinAddr: 0x799C, symSize: 0x4 }
  - { offset: 0x68345, size: 0x8, addend: 0x0, symName: __ZN6sentry14SentryFeedbackD2Ev, symObjAddr: 0x6E6C, symBinAddr: 0x79B4, symSize: 0xB4 }
  - { offset: 0x684F4, size: 0x8, addend: 0x0, symName: __ZN6sentry14SentryFeedbackD0Ev, symObjAddr: 0x6E58, symBinAddr: 0x79A0, symSize: 0x14 }
  - { offset: 0x68551, size: 0x8, addend: 0x0, symName: __ZN6sentry14SentryFeedbackD2Ev.cold.1, symObjAddr: 0xDAA0, symBinAddr: 0xEB708, symSize: 0x1C }
  - { offset: 0x6856C, size: 0x8, addend: 0x0, symName: __ZN6sentry14SentryFeedbackD2Ev.cold.1, symObjAddr: 0xDAA0, symBinAddr: 0xEB708, symSize: 0x1C }
  - { offset: 0x68580, size: 0x8, addend: 0x0, symName: __ZN6sentry14SentryFeedbackD2Ev.cold.1, symObjAddr: 0xDAA0, symBinAddr: 0xEB708, symSize: 0x1C }
  - { offset: 0x68594, size: 0x8, addend: 0x0, symName: __ZN6sentry14SentryFeedbackD2Ev.cold.1, symObjAddr: 0xDAA0, symBinAddr: 0xEB708, symSize: 0x1C }
  - { offset: 0x685A8, size: 0x8, addend: 0x0, symName: __ZN6sentry14SentryFeedbackD2Ev.cold.1, symObjAddr: 0xDAA0, symBinAddr: 0xEB708, symSize: 0x1C }
  - { offset: 0x685BD, size: 0x8, addend: 0x0, symName: __ZN6sentry14SentryFeedbackD2Ev.cold.1, symObjAddr: 0xDAA0, symBinAddr: 0xEB708, symSize: 0x1C }
  - { offset: 0x685E9, size: 0x8, addend: 0x0, symName: __ZN5godot7ClassDB15_register_classIN6sentry9SentrySDKELb0EEEvbbb.cold.1, symObjAddr: 0xDABC, symBinAddr: 0xEB724, symSize: 0x5C }
  - { offset: 0x68617, size: 0x8, addend: 0x0, symName: __ZN5godot7ClassDB15_register_classIN6sentry9SentrySDKELb0EEEvbbb.cold.2, symObjAddr: 0xDB18, symBinAddr: 0xEB780, symSize: 0x58 }
  - { offset: 0x68645, size: 0x8, addend: 0x0, symName: __ZN5godot7ClassDB15_register_classIN6sentry9SentrySDKELb0EEEvbbb.cold.3, symObjAddr: 0xDB70, symBinAddr: 0xEB7D8, symSize: 0x58 }
  - { offset: 0x68688, size: 0x8, addend: 0x0, symName: __ZN5godot7ClassDB15_register_classIN6sentry9SentrySDKELb0EEEvbbb.cold.4, symObjAddr: 0xDBC8, symBinAddr: 0xEB830, symSize: 0x58 }
  - { offset: 0x686B7, size: 0x8, addend: 0x0, symName: __ZN6sentry9SentrySDK8set_bindEPvPKvS3_, symObjAddr: 0x724C, symBinAddr: 0x7D94, symSize: 0x8 }
  - { offset: 0x686F7, size: 0x8, addend: 0x0, symName: __ZN6sentry9SentrySDK8get_bindEPvPKvS1_, symObjAddr: 0x7254, symBinAddr: 0x7D9C, symSize: 0x8 }
  - { offset: 0x68737, size: 0x8, addend: 0x0, symName: __ZN6sentry9SentrySDK22get_property_list_bindEPvPj, symObjAddr: 0x725C, symBinAddr: 0x7DA4, symSize: 0x40 }
  - { offset: 0x687C3, size: 0x8, addend: 0x0, symName: __ZN6sentry9SentrySDK22get_property_list_bindEPvPj.cold.1, symObjAddr: 0xDC20, symBinAddr: 0xEB888, symSize: 0x28 }
  - { offset: 0x687DB, size: 0x8, addend: 0x0, symName: __ZN6sentry9SentrySDK23free_property_list_bindEPvPK23GDExtensionPropertyInfoj, symObjAddr: 0x729C, symBinAddr: 0x7DE4, symSize: 0x58 }
  - { offset: 0x688F5, size: 0x8, addend: 0x0, symName: __ZN6sentry9SentrySDK24property_can_revert_bindEPvPKv, symObjAddr: 0x72F4, symBinAddr: 0x7E3C, symSize: 0x8 }
  - { offset: 0x68927, size: 0x8, addend: 0x0, symName: __ZN6sentry9SentrySDK24property_get_revert_bindEPvPKvS1_, symObjAddr: 0x72FC, symBinAddr: 0x7E44, symSize: 0x8 }
  - { offset: 0x68967, size: 0x8, addend: 0x0, symName: __ZN6sentry9SentrySDK22validate_property_bindEPvP23GDExtensionPropertyInfo, symObjAddr: 0x7304, symBinAddr: 0x7E4C, symSize: 0xB8 }
  - { offset: 0x68A2A, size: 0x8, addend: 0x0, symName: __ZN6sentry9SentrySDK17notification_bindEPvih, symObjAddr: 0x73BC, symBinAddr: 0x7F04, symSize: 0xC }
  - { offset: 0x68A86, size: 0x8, addend: 0x0, symName: __ZN6sentry9SentrySDK14to_string_bindEPvPhS1_, symObjAddr: 0x73C8, symBinAddr: 0x7F10, symSize: 0x7C }
  - { offset: 0x68B21, size: 0x8, addend: 0x0, symName: __ZN5godot7ClassDB21_create_instance_funcIN6sentry9SentrySDKEEEPvS4_h, symObjAddr: 0x7444, symBinAddr: 0x7F8C, symSize: 0x80 }
  - { offset: 0x68BAF, size: 0x8, addend: 0x0, symName: __ZN5godot7ClassDB21_create_instance_funcIN6sentry9SentrySDKEEEPvS4_h.cold.1, symObjAddr: 0xDC48, symBinAddr: 0xEB8B0, symSize: 0x5C }
  - { offset: 0x68C07, size: 0x8, addend: 0x0, symName: __ZN6sentry9SentrySDK4freeEPvS1_, symObjAddr: 0x74C4, symBinAddr: 0x800C, symSize: 0x3C }
  - { offset: 0x68C62, size: 0x8, addend: 0x0, symName: __ZN5godot7ClassDB23_recreate_instance_funcIN6sentry9SentrySDKEEEPvS4_S4_, symObjAddr: 0x7500, symBinAddr: 0x8048, symSize: 0x8 }
  - { offset: 0x68C9D, size: 0x8, addend: 0x0, symName: __ZN6sentry9SentrySDK28_gde_binding_create_callbackEPvS1_, symObjAddr: 0x7508, symBinAddr: 0x8050, symSize: 0x8 }
  - { offset: 0x68CC8, size: 0x8, addend: 0x0, symName: __ZN6sentry9SentrySDK26_gde_binding_free_callbackEPvS1_S1_, symObjAddr: 0x7510, symBinAddr: 0x8058, symSize: 0x4 }
  - { offset: 0x68CFB, size: 0x8, addend: 0x0, symName: __ZN6sentry9SentrySDK31_gde_binding_reference_callbackEPvS1_h, symObjAddr: 0x7514, symBinAddr: 0x805C, symSize: 0x8 }
  - { offset: 0x68D45, size: 0x8, addend: 0x0, symName: __ZN5godot7ClassDB15_register_classIN6sentry16SentryAttachmentELb1EEEvbbb.cold.1, symObjAddr: 0xDCA4, symBinAddr: 0xEB90C, symSize: 0x5C }
  - { offset: 0x68D73, size: 0x8, addend: 0x0, symName: __ZN5godot7ClassDB15_register_classIN6sentry16SentryAttachmentELb1EEEvbbb.cold.2, symObjAddr: 0xDD00, symBinAddr: 0xEB968, symSize: 0x58 }
  - { offset: 0x68DA1, size: 0x8, addend: 0x0, symName: __ZN5godot7ClassDB15_register_classIN6sentry16SentryAttachmentELb1EEEvbbb.cold.3, symObjAddr: 0xDD58, symBinAddr: 0xEB9C0, symSize: 0x58 }
  - { offset: 0x68DE4, size: 0x8, addend: 0x0, symName: __ZN5godot7ClassDB15_register_classIN6sentry16SentryAttachmentELb1EEEvbbb.cold.4, symObjAddr: 0xDDB0, symBinAddr: 0xEBA18, symSize: 0x58 }
  - { offset: 0x68E13, size: 0x8, addend: 0x0, symName: __ZN6sentry16SentryAttachment8set_bindEPvPKvS3_, symObjAddr: 0x784C, symBinAddr: 0x8394, symSize: 0x8 }
  - { offset: 0x68E53, size: 0x8, addend: 0x0, symName: __ZN6sentry16SentryAttachment8get_bindEPvPKvS1_, symObjAddr: 0x7854, symBinAddr: 0x839C, symSize: 0x8 }
  - { offset: 0x68E93, size: 0x8, addend: 0x0, symName: __ZN6sentry16SentryAttachment22get_property_list_bindEPvPj, symObjAddr: 0x785C, symBinAddr: 0x83A4, symSize: 0x40 }
  - { offset: 0x68F1F, size: 0x8, addend: 0x0, symName: __ZN6sentry16SentryAttachment22get_property_list_bindEPvPj.cold.1, symObjAddr: 0xDE08, symBinAddr: 0xEBA70, symSize: 0x28 }
  - { offset: 0x68F37, size: 0x8, addend: 0x0, symName: __ZN6sentry16SentryAttachment23free_property_list_bindEPvPK23GDExtensionPropertyInfoj, symObjAddr: 0x789C, symBinAddr: 0x83E4, symSize: 0x58 }
  - { offset: 0x69051, size: 0x8, addend: 0x0, symName: __ZN6sentry16SentryAttachment24property_can_revert_bindEPvPKv, symObjAddr: 0x78F4, symBinAddr: 0x843C, symSize: 0x8 }
  - { offset: 0x69083, size: 0x8, addend: 0x0, symName: __ZN6sentry16SentryAttachment24property_get_revert_bindEPvPKvS1_, symObjAddr: 0x78FC, symBinAddr: 0x8444, symSize: 0x8 }
  - { offset: 0x690C3, size: 0x8, addend: 0x0, symName: __ZN6sentry16SentryAttachment22validate_property_bindEPvP23GDExtensionPropertyInfo, symObjAddr: 0x7904, symBinAddr: 0x844C, symSize: 0xB8 }
  - { offset: 0x69186, size: 0x8, addend: 0x0, symName: __ZN6sentry16SentryAttachment17notification_bindEPvih, symObjAddr: 0x79BC, symBinAddr: 0x8504, symSize: 0x4 }
  - { offset: 0x691C5, size: 0x8, addend: 0x0, symName: __ZN6sentry16SentryAttachment14to_string_bindEPvPhS1_, symObjAddr: 0x79C0, symBinAddr: 0x8508, symSize: 0x7C }
  - { offset: 0x69298, size: 0x8, addend: 0x0, symName: __ZN5godot7ClassDB21_create_instance_funcIN6sentry16SentryAttachmentEEEPvS4_h, symObjAddr: 0x7A3C, symBinAddr: 0x8584, symSize: 0x110 }
  - { offset: 0x693C4, size: 0x8, addend: 0x0, symName: __ZN5godot7ClassDB21_create_instance_funcIN6sentry16SentryAttachmentEEEPvS4_h.cold.1, symObjAddr: 0xDE30, symBinAddr: 0xEBA98, symSize: 0x5C }
  - { offset: 0x6941C, size: 0x8, addend: 0x0, symName: __ZN6sentry16SentryAttachment4freeEPvS1_, symObjAddr: 0x7B4C, symBinAddr: 0x8694, symSize: 0x3C }
  - { offset: 0x69477, size: 0x8, addend: 0x0, symName: __ZN5godot7ClassDB23_recreate_instance_funcIN6sentry16SentryAttachmentEEEPvS4_S4_, symObjAddr: 0x7B88, symBinAddr: 0x86D0, symSize: 0x8 }
  - { offset: 0x694B2, size: 0x8, addend: 0x0, symName: __ZN6sentry16SentryAttachment28_gde_binding_create_callbackEPvS1_, symObjAddr: 0x7B90, symBinAddr: 0x86D8, symSize: 0x8 }
  - { offset: 0x694DD, size: 0x8, addend: 0x0, symName: __ZN6sentry16SentryAttachment26_gde_binding_free_callbackEPvS1_S1_, symObjAddr: 0x7B98, symBinAddr: 0x86E0, symSize: 0x4 }
  - { offset: 0x69510, size: 0x8, addend: 0x0, symName: __ZN6sentry16SentryAttachment31_gde_binding_reference_callbackEPvS1_h, symObjAddr: 0x7B9C, symBinAddr: 0x86E4, symSize: 0x8 }
  - { offset: 0x69545, size: 0x8, addend: 0x0, symName: __ZNK6sentry16SentryAttachment19_is_extension_classEv, symObjAddr: 0x7BA4, symBinAddr: 0x86EC, symSize: 0x8 }
  - { offset: 0x6956C, size: 0x8, addend: 0x0, symName: __ZN6sentry16SentryAttachmentD1Ev, symObjAddr: 0x7BAC, symBinAddr: 0x86F4, symSize: 0x4 }
  - { offset: 0x6958F, size: 0x8, addend: 0x0, symName: __ZN6sentry16SentryAttachmentD1Ev, symObjAddr: 0x7BAC, symBinAddr: 0x86F4, symSize: 0x4 }
  - { offset: 0x695A2, size: 0x8, addend: 0x0, symName: __ZN6sentry16SentryAttachmentD2Ev, symObjAddr: 0x7BC4, symBinAddr: 0x870C, symSize: 0xB4 }
  - { offset: 0x6974D, size: 0x8, addend: 0x0, symName: __ZN6sentry16SentryAttachmentD0Ev, symObjAddr: 0x7BB0, symBinAddr: 0x86F8, symSize: 0x14 }
  - { offset: 0x697A8, size: 0x8, addend: 0x0, symName: __ZN6sentry16SentryAttachmentD2Ev.cold.1, symObjAddr: 0xDE8C, symBinAddr: 0xEBAF4, symSize: 0x1C }
  - { offset: 0x697C3, size: 0x8, addend: 0x0, symName: __ZN6sentry16SentryAttachmentD2Ev.cold.1, symObjAddr: 0xDE8C, symBinAddr: 0xEBAF4, symSize: 0x1C }
  - { offset: 0x697D7, size: 0x8, addend: 0x0, symName: __ZN6sentry16SentryAttachmentD2Ev.cold.1, symObjAddr: 0xDE8C, symBinAddr: 0xEBAF4, symSize: 0x1C }
  - { offset: 0x697EB, size: 0x8, addend: 0x0, symName: __ZN6sentry16SentryAttachmentD2Ev.cold.1, symObjAddr: 0xDE8C, symBinAddr: 0xEBAF4, symSize: 0x1C }
  - { offset: 0x697FF, size: 0x8, addend: 0x0, symName: __ZN6sentry16SentryAttachmentD2Ev.cold.1, symObjAddr: 0xDE8C, symBinAddr: 0xEBAF4, symSize: 0x1C }
  - { offset: 0x69814, size: 0x8, addend: 0x0, symName: __ZN6sentry16SentryAttachmentD2Ev.cold.1, symObjAddr: 0xDE8C, symBinAddr: 0xEBAF4, symSize: 0x1C }
  - { offset: 0x69840, size: 0x8, addend: 0x0, symName: __ZN5godot7ClassDB15_register_classIN6sentry11SentryEventELb1EEEvbbb.cold.1, symObjAddr: 0xDEA8, symBinAddr: 0xEBB10, symSize: 0x5C }
  - { offset: 0x6986E, size: 0x8, addend: 0x0, symName: __ZN5godot7ClassDB15_register_classIN6sentry11SentryEventELb1EEEvbbb.cold.2, symObjAddr: 0xDF04, symBinAddr: 0xEBB6C, symSize: 0x58 }
  - { offset: 0x6989C, size: 0x8, addend: 0x0, symName: __ZN5godot7ClassDB15_register_classIN6sentry11SentryEventELb1EEEvbbb.cold.3, symObjAddr: 0xDF5C, symBinAddr: 0xEBBC4, symSize: 0x58 }
  - { offset: 0x698DF, size: 0x8, addend: 0x0, symName: __ZN5godot7ClassDB15_register_classIN6sentry11SentryEventELb1EEEvbbb.cold.4, symObjAddr: 0xDFB4, symBinAddr: 0xEBC1C, symSize: 0x58 }
  - { offset: 0x6990E, size: 0x8, addend: 0x0, symName: __ZN6sentry11SentryEvent8set_bindEPvPKvS3_, symObjAddr: 0x7FA8, symBinAddr: 0x8AF0, symSize: 0x8 }
  - { offset: 0x6994E, size: 0x8, addend: 0x0, symName: __ZN6sentry11SentryEvent8get_bindEPvPKvS1_, symObjAddr: 0x7FB0, symBinAddr: 0x8AF8, symSize: 0x8 }
  - { offset: 0x6998E, size: 0x8, addend: 0x0, symName: __ZN6sentry11SentryEvent22get_property_list_bindEPvPj, symObjAddr: 0x7FB8, symBinAddr: 0x8B00, symSize: 0x40 }
  - { offset: 0x69A1A, size: 0x8, addend: 0x0, symName: __ZN6sentry11SentryEvent22get_property_list_bindEPvPj.cold.1, symObjAddr: 0xE00C, symBinAddr: 0xEBC74, symSize: 0x28 }
  - { offset: 0x69A32, size: 0x8, addend: 0x0, symName: __ZN6sentry11SentryEvent23free_property_list_bindEPvPK23GDExtensionPropertyInfoj, symObjAddr: 0x7FF8, symBinAddr: 0x8B40, symSize: 0x58 }
  - { offset: 0x69B4C, size: 0x8, addend: 0x0, symName: __ZN6sentry11SentryEvent24property_can_revert_bindEPvPKv, symObjAddr: 0x8050, symBinAddr: 0x8B98, symSize: 0x8 }
  - { offset: 0x69B7E, size: 0x8, addend: 0x0, symName: __ZN6sentry11SentryEvent24property_get_revert_bindEPvPKvS1_, symObjAddr: 0x8058, symBinAddr: 0x8BA0, symSize: 0x8 }
  - { offset: 0x69BBE, size: 0x8, addend: 0x0, symName: __ZN6sentry11SentryEvent22validate_property_bindEPvP23GDExtensionPropertyInfo, symObjAddr: 0x8060, symBinAddr: 0x8BA8, symSize: 0xB8 }
  - { offset: 0x69C63, size: 0x8, addend: 0x0, symName: __ZN6sentry11SentryEvent17notification_bindEPvih, symObjAddr: 0x8118, symBinAddr: 0x8C60, symSize: 0x4 }
  - { offset: 0x69CA2, size: 0x8, addend: 0x0, symName: __ZN6sentry11SentryEvent14to_string_bindEPvPhS1_, symObjAddr: 0x811C, symBinAddr: 0x8C64, symSize: 0x7C }
  - { offset: 0x69D00, size: 0x8, addend: 0x0, symName: __ZN5godot7ClassDB21_create_instance_funcIN6sentry11SentryEventEEEPvS4_h, symObjAddr: 0x8198, symBinAddr: 0x8CE0, symSize: 0x8 }
  - { offset: 0x69D3B, size: 0x8, addend: 0x0, symName: __ZN6sentry11SentryEvent4freeEPvS1_, symObjAddr: 0x81A0, symBinAddr: 0x8CE8, symSize: 0x3C }
  - { offset: 0x69D96, size: 0x8, addend: 0x0, symName: __ZN5godot7ClassDB23_recreate_instance_funcIN6sentry11SentryEventEEEPvS4_S4_, symObjAddr: 0x81DC, symBinAddr: 0x8D24, symSize: 0x8 }
  - { offset: 0x69DD1, size: 0x8, addend: 0x0, symName: __ZN6sentry11SentryEvent28_gde_binding_create_callbackEPvS1_, symObjAddr: 0x81E4, symBinAddr: 0x8D2C, symSize: 0x8 }
  - { offset: 0x69DFC, size: 0x8, addend: 0x0, symName: __ZN6sentry11SentryEvent26_gde_binding_free_callbackEPvS1_S1_, symObjAddr: 0x81EC, symBinAddr: 0x8D34, symSize: 0x4 }
  - { offset: 0x69E2F, size: 0x8, addend: 0x0, symName: __ZN6sentry11SentryEvent31_gde_binding_reference_callbackEPvS1_h, symObjAddr: 0x81F0, symBinAddr: 0x8D38, symSize: 0x8 }
  - { offset: 0x69E79, size: 0x8, addend: 0x0, symName: __ZN5godot7ClassDB15_register_classIN6sentry16SentryBreadcrumbELb1EEEvbbb.cold.1, symObjAddr: 0xE034, symBinAddr: 0xEBC9C, symSize: 0x5C }
  - { offset: 0x69EA7, size: 0x8, addend: 0x0, symName: __ZN5godot7ClassDB15_register_classIN6sentry16SentryBreadcrumbELb1EEEvbbb.cold.2, symObjAddr: 0xE090, symBinAddr: 0xEBCF8, symSize: 0x58 }
  - { offset: 0x69ED5, size: 0x8, addend: 0x0, symName: __ZN5godot7ClassDB15_register_classIN6sentry16SentryBreadcrumbELb1EEEvbbb.cold.3, symObjAddr: 0xE0E8, symBinAddr: 0xEBD50, symSize: 0x58 }
  - { offset: 0x69F18, size: 0x8, addend: 0x0, symName: __ZN5godot7ClassDB15_register_classIN6sentry16SentryBreadcrumbELb1EEEvbbb.cold.4, symObjAddr: 0xE140, symBinAddr: 0xEBDA8, symSize: 0x58 }
  - { offset: 0x69F47, size: 0x8, addend: 0x0, symName: __ZN6sentry16SentryBreadcrumb8set_bindEPvPKvS3_, symObjAddr: 0x8528, symBinAddr: 0x9070, symSize: 0x8 }
  - { offset: 0x69F87, size: 0x8, addend: 0x0, symName: __ZN6sentry16SentryBreadcrumb8get_bindEPvPKvS1_, symObjAddr: 0x8530, symBinAddr: 0x9078, symSize: 0x8 }
  - { offset: 0x69FC7, size: 0x8, addend: 0x0, symName: __ZN6sentry16SentryBreadcrumb22get_property_list_bindEPvPj, symObjAddr: 0x8538, symBinAddr: 0x9080, symSize: 0x40 }
  - { offset: 0x6A053, size: 0x8, addend: 0x0, symName: __ZN6sentry16SentryBreadcrumb22get_property_list_bindEPvPj.cold.1, symObjAddr: 0xE198, symBinAddr: 0xEBE00, symSize: 0x28 }
  - { offset: 0x6A06B, size: 0x8, addend: 0x0, symName: __ZN6sentry16SentryBreadcrumb23free_property_list_bindEPvPK23GDExtensionPropertyInfoj, symObjAddr: 0x8578, symBinAddr: 0x90C0, symSize: 0x58 }
  - { offset: 0x6A185, size: 0x8, addend: 0x0, symName: __ZN6sentry16SentryBreadcrumb24property_can_revert_bindEPvPKv, symObjAddr: 0x85D0, symBinAddr: 0x9118, symSize: 0x8 }
  - { offset: 0x6A1B7, size: 0x8, addend: 0x0, symName: __ZN6sentry16SentryBreadcrumb24property_get_revert_bindEPvPKvS1_, symObjAddr: 0x85D8, symBinAddr: 0x9120, symSize: 0x8 }
  - { offset: 0x6A1F7, size: 0x8, addend: 0x0, symName: __ZN6sentry16SentryBreadcrumb22validate_property_bindEPvP23GDExtensionPropertyInfo, symObjAddr: 0x85E0, symBinAddr: 0x9128, symSize: 0xB8 }
  - { offset: 0x6A29C, size: 0x8, addend: 0x0, symName: __ZN6sentry16SentryBreadcrumb17notification_bindEPvih, symObjAddr: 0x8698, symBinAddr: 0x91E0, symSize: 0x4 }
  - { offset: 0x6A2DB, size: 0x8, addend: 0x0, symName: __ZN6sentry16SentryBreadcrumb14to_string_bindEPvPhS1_, symObjAddr: 0x869C, symBinAddr: 0x91E4, symSize: 0x7C }
  - { offset: 0x6A339, size: 0x8, addend: 0x0, symName: __ZN5godot7ClassDB21_create_instance_funcIN6sentry16SentryBreadcrumbEEEPvS4_h, symObjAddr: 0x8718, symBinAddr: 0x9260, symSize: 0x8 }
  - { offset: 0x6A374, size: 0x8, addend: 0x0, symName: __ZN6sentry16SentryBreadcrumb4freeEPvS1_, symObjAddr: 0x8720, symBinAddr: 0x9268, symSize: 0x3C }
  - { offset: 0x6A3CF, size: 0x8, addend: 0x0, symName: __ZN5godot7ClassDB23_recreate_instance_funcIN6sentry16SentryBreadcrumbEEEPvS4_S4_, symObjAddr: 0x875C, symBinAddr: 0x92A4, symSize: 0x8 }
  - { offset: 0x6A40A, size: 0x8, addend: 0x0, symName: __ZN6sentry16SentryBreadcrumb28_gde_binding_create_callbackEPvS1_, symObjAddr: 0x8764, symBinAddr: 0x92AC, symSize: 0x8 }
  - { offset: 0x6A435, size: 0x8, addend: 0x0, symName: __ZN6sentry16SentryBreadcrumb26_gde_binding_free_callbackEPvS1_S1_, symObjAddr: 0x876C, symBinAddr: 0x92B4, symSize: 0x4 }
  - { offset: 0x6A468, size: 0x8, addend: 0x0, symName: __ZN6sentry16SentryBreadcrumb31_gde_binding_reference_callbackEPvS1_h, symObjAddr: 0x8770, symBinAddr: 0x92B8, symSize: 0x8 }
  - { offset: 0x6A4B2, size: 0x8, addend: 0x0, symName: __ZN5godot7ClassDB15_register_classIN6sentry9SentryLogELb1EEEvbbb.cold.1, symObjAddr: 0xE1C0, symBinAddr: 0xEBE28, symSize: 0x5C }
  - { offset: 0x6A4E0, size: 0x8, addend: 0x0, symName: __ZN5godot7ClassDB15_register_classIN6sentry9SentryLogELb1EEEvbbb.cold.2, symObjAddr: 0xE21C, symBinAddr: 0xEBE84, symSize: 0x58 }
  - { offset: 0x6A50E, size: 0x8, addend: 0x0, symName: __ZN5godot7ClassDB15_register_classIN6sentry9SentryLogELb1EEEvbbb.cold.3, symObjAddr: 0xE274, symBinAddr: 0xEBEDC, symSize: 0x58 }
  - { offset: 0x6A551, size: 0x8, addend: 0x0, symName: __ZN5godot7ClassDB15_register_classIN6sentry9SentryLogELb1EEEvbbb.cold.4, symObjAddr: 0xE2CC, symBinAddr: 0xEBF34, symSize: 0x58 }
  - { offset: 0x6A580, size: 0x8, addend: 0x0, symName: __ZN6sentry9SentryLog8set_bindEPvPKvS3_, symObjAddr: 0x8AA8, symBinAddr: 0x95F0, symSize: 0x8 }
  - { offset: 0x6A5C0, size: 0x8, addend: 0x0, symName: __ZN6sentry9SentryLog8get_bindEPvPKvS1_, symObjAddr: 0x8AB0, symBinAddr: 0x95F8, symSize: 0x8 }
  - { offset: 0x6A600, size: 0x8, addend: 0x0, symName: __ZN6sentry9SentryLog22get_property_list_bindEPvPj, symObjAddr: 0x8AB8, symBinAddr: 0x9600, symSize: 0x40 }
  - { offset: 0x6A68C, size: 0x8, addend: 0x0, symName: __ZN6sentry9SentryLog22get_property_list_bindEPvPj.cold.1, symObjAddr: 0xE324, symBinAddr: 0xEBF8C, symSize: 0x28 }
  - { offset: 0x6A6A4, size: 0x8, addend: 0x0, symName: __ZN6sentry9SentryLog23free_property_list_bindEPvPK23GDExtensionPropertyInfoj, symObjAddr: 0x8AF8, symBinAddr: 0x9640, symSize: 0x58 }
  - { offset: 0x6A7BE, size: 0x8, addend: 0x0, symName: __ZN6sentry9SentryLog24property_can_revert_bindEPvPKv, symObjAddr: 0x8B50, symBinAddr: 0x9698, symSize: 0x8 }
  - { offset: 0x6A7F0, size: 0x8, addend: 0x0, symName: __ZN6sentry9SentryLog24property_get_revert_bindEPvPKvS1_, symObjAddr: 0x8B58, symBinAddr: 0x96A0, symSize: 0x8 }
  - { offset: 0x6A830, size: 0x8, addend: 0x0, symName: __ZN6sentry9SentryLog22validate_property_bindEPvP23GDExtensionPropertyInfo, symObjAddr: 0x8B60, symBinAddr: 0x96A8, symSize: 0xB8 }
  - { offset: 0x6A8D5, size: 0x8, addend: 0x0, symName: __ZN6sentry9SentryLog17notification_bindEPvih, symObjAddr: 0x8C18, symBinAddr: 0x9760, symSize: 0x4 }
  - { offset: 0x6A914, size: 0x8, addend: 0x0, symName: __ZN6sentry9SentryLog14to_string_bindEPvPhS1_, symObjAddr: 0x8C1C, symBinAddr: 0x9764, symSize: 0x7C }
  - { offset: 0x6A972, size: 0x8, addend: 0x0, symName: __ZN5godot7ClassDB21_create_instance_funcIN6sentry9SentryLogEEEPvS4_h, symObjAddr: 0x8C98, symBinAddr: 0x97E0, symSize: 0x8 }
  - { offset: 0x6A9AD, size: 0x8, addend: 0x0, symName: __ZN6sentry9SentryLog4freeEPvS1_, symObjAddr: 0x8CA0, symBinAddr: 0x97E8, symSize: 0x3C }
  - { offset: 0x6AA08, size: 0x8, addend: 0x0, symName: __ZN5godot7ClassDB23_recreate_instance_funcIN6sentry9SentryLogEEEPvS4_S4_, symObjAddr: 0x8CDC, symBinAddr: 0x9824, symSize: 0x8 }
  - { offset: 0x6AA43, size: 0x8, addend: 0x0, symName: __ZN6sentry9SentryLog28_gde_binding_create_callbackEPvS1_, symObjAddr: 0x8CE4, symBinAddr: 0x982C, symSize: 0x8 }
  - { offset: 0x6AA6E, size: 0x8, addend: 0x0, symName: __ZN6sentry9SentryLog26_gde_binding_free_callbackEPvS1_S1_, symObjAddr: 0x8CEC, symBinAddr: 0x9834, symSize: 0x4 }
  - { offset: 0x6AAA1, size: 0x8, addend: 0x0, symName: __ZN6sentry9SentryLog31_gde_binding_reference_callbackEPvS1_h, symObjAddr: 0x8CF0, symBinAddr: 0x9838, symSize: 0x8 }
  - { offset: 0x6AAEB, size: 0x8, addend: 0x0, symName: __ZN5godot7ClassDB15_register_classIN6sentry13DisabledEventELb0EEEvbbb.cold.1, symObjAddr: 0xE34C, symBinAddr: 0xEBFB4, symSize: 0x5C }
  - { offset: 0x6AB19, size: 0x8, addend: 0x0, symName: __ZN5godot7ClassDB15_register_classIN6sentry13DisabledEventELb0EEEvbbb.cold.2, symObjAddr: 0xE3A8, symBinAddr: 0xEC010, symSize: 0x58 }
  - { offset: 0x6AB47, size: 0x8, addend: 0x0, symName: __ZN5godot7ClassDB15_register_classIN6sentry13DisabledEventELb0EEEvbbb.cold.3, symObjAddr: 0xE400, symBinAddr: 0xEC068, symSize: 0x58 }
  - { offset: 0x6AB8A, size: 0x8, addend: 0x0, symName: __ZN5godot7ClassDB15_register_classIN6sentry13DisabledEventELb0EEEvbbb.cold.4, symObjAddr: 0xE458, symBinAddr: 0xEC0C0, symSize: 0x58 }
  - { offset: 0x6ABB9, size: 0x8, addend: 0x0, symName: __ZN6sentry13DisabledEvent8set_bindEPvPKvS3_, symObjAddr: 0x9030, symBinAddr: 0x9B78, symSize: 0x8 }
  - { offset: 0x6ABF9, size: 0x8, addend: 0x0, symName: __ZN6sentry13DisabledEvent8get_bindEPvPKvS1_, symObjAddr: 0x9038, symBinAddr: 0x9B80, symSize: 0x8 }
  - { offset: 0x6AC39, size: 0x8, addend: 0x0, symName: __ZN6sentry13DisabledEvent23free_property_list_bindEPvPK23GDExtensionPropertyInfoj, symObjAddr: 0x9040, symBinAddr: 0x9B88, symSize: 0x58 }
  - { offset: 0x6AD53, size: 0x8, addend: 0x0, symName: __ZN6sentry13DisabledEvent24property_can_revert_bindEPvPKv, symObjAddr: 0x9098, symBinAddr: 0x9BE0, symSize: 0x8 }
  - { offset: 0x6AD85, size: 0x8, addend: 0x0, symName: __ZN6sentry13DisabledEvent24property_get_revert_bindEPvPKvS1_, symObjAddr: 0x90A0, symBinAddr: 0x9BE8, symSize: 0x8 }
  - { offset: 0x6AE0A, size: 0x8, addend: 0x0, symName: __ZN6sentry13DisabledEvent22validate_property_bindEPvP23GDExtensionPropertyInfo, symObjAddr: 0x90A8, symBinAddr: 0x9BF0, symSize: 0xC8 }
  - { offset: 0x6AEF1, size: 0x8, addend: 0x0, symName: __ZN6sentry13DisabledEvent17notification_bindEPvih, symObjAddr: 0x9170, symBinAddr: 0x9CB8, symSize: 0x4 }
  - { offset: 0x6AF68, size: 0x8, addend: 0x0, symName: __ZN6sentry13DisabledEvent14to_string_bindEPvPhS1_, symObjAddr: 0x9174, symBinAddr: 0x9CBC, symSize: 0x7C }
  - { offset: 0x6B0B6, size: 0x8, addend: 0x0, symName: __ZN5godot7ClassDB21_create_instance_funcIN6sentry13DisabledEventEEEPvS4_h, symObjAddr: 0x91F0, symBinAddr: 0x9D38, symSize: 0x118 }
  - { offset: 0x6B23A, size: 0x8, addend: 0x0, symName: __ZN5godot7ClassDB21_create_instance_funcIN6sentry13DisabledEventEEEPvS4_h.cold.1, symObjAddr: 0xE4B0, symBinAddr: 0xEC118, symSize: 0x5C }
  - { offset: 0x6B292, size: 0x8, addend: 0x0, symName: __ZN6sentry13DisabledEvent4freeEPvS1_, symObjAddr: 0x9308, symBinAddr: 0x9E50, symSize: 0x3C }
  - { offset: 0x6B2ED, size: 0x8, addend: 0x0, symName: __ZN5godot7ClassDB23_recreate_instance_funcIN6sentry13DisabledEventEEEPvS4_S4_, symObjAddr: 0x9344, symBinAddr: 0x9E8C, symSize: 0x8 }
  - { offset: 0x6B328, size: 0x8, addend: 0x0, symName: __ZN6sentry13DisabledEvent28_gde_binding_create_callbackEPvS1_, symObjAddr: 0x934C, symBinAddr: 0x9E94, symSize: 0x8 }
  - { offset: 0x6B353, size: 0x8, addend: 0x0, symName: __ZN6sentry13DisabledEvent26_gde_binding_free_callbackEPvS1_S1_, symObjAddr: 0x9354, symBinAddr: 0x9E9C, symSize: 0x4 }
  - { offset: 0x6B386, size: 0x8, addend: 0x0, symName: __ZN6sentry13DisabledEvent31_gde_binding_reference_callbackEPvS1_h, symObjAddr: 0x9358, symBinAddr: 0x9EA0, symSize: 0x8 }
  - { offset: 0x6B3BB, size: 0x8, addend: 0x0, symName: __ZNK6sentry13DisabledEvent19_is_extension_classEv, symObjAddr: 0x9360, symBinAddr: 0x9EA8, symSize: 0x8 }
  - { offset: 0x6B3E2, size: 0x8, addend: 0x0, symName: __ZN6sentry13DisabledEventD1Ev, symObjAddr: 0x9368, symBinAddr: 0x9EB0, symSize: 0x4 }
  - { offset: 0x6B405, size: 0x8, addend: 0x0, symName: __ZN6sentry13DisabledEventD1Ev, symObjAddr: 0x9368, symBinAddr: 0x9EB0, symSize: 0x4 }
  - { offset: 0x6B418, size: 0x8, addend: 0x0, symName: __ZN6sentry13DisabledEventD2Ev, symObjAddr: 0x94E8, symBinAddr: 0xA030, symSize: 0xE8 }
  - { offset: 0x6B65F, size: 0x8, addend: 0x0, symName: __ZN6sentry13DisabledEventD0Ev, symObjAddr: 0x936C, symBinAddr: 0x9EB4, symSize: 0x14 }
  - { offset: 0x6B6BC, size: 0x8, addend: 0x0, symName: __ZNK6sentry13DisabledEvent6get_idEv, symObjAddr: 0x9380, symBinAddr: 0x9EC8, symSize: 0x10 }
  - { offset: 0x6B6E3, size: 0x8, addend: 0x0, symName: __ZN6sentry13DisabledEvent11set_messageERKN5godot6StringE, symObjAddr: 0x9390, symBinAddr: 0x9ED8, symSize: 0x8 }
  - { offset: 0x6B718, size: 0x8, addend: 0x0, symName: __ZNK6sentry13DisabledEvent11get_messageEv, symObjAddr: 0x9398, symBinAddr: 0x9EE0, symSize: 0xC }
  - { offset: 0x6B797, size: 0x8, addend: 0x0, symName: __ZN6sentry13DisabledEvent13set_timestampERKN5godot3RefINS_15SentryTimestampEEE, symObjAddr: 0x93A4, symBinAddr: 0x9EEC, symSize: 0x70 }
  - { offset: 0x6B8AB, size: 0x8, addend: 0x0, symName: __ZNK6sentry13DisabledEvent13get_timestampEv, symObjAddr: 0x9414, symBinAddr: 0x9F5C, symSize: 0x18 }
  - { offset: 0x6B8D4, size: 0x8, addend: 0x0, symName: __ZNK6sentry13DisabledEvent13get_timestampEv, symObjAddr: 0x9414, symBinAddr: 0x9F5C, symSize: 0x18 }
  - { offset: 0x6B8F8, size: 0x8, addend: 0x0, symName: __ZNK6sentry13DisabledEvent13get_timestampEv, symObjAddr: 0x9414, symBinAddr: 0x9F5C, symSize: 0x18 }
  - { offset: 0x6B941, size: 0x8, addend: 0x0, symName: __ZNK6sentry13DisabledEvent12get_platformEv, symObjAddr: 0x942C, symBinAddr: 0x9F74, symSize: 0x10 }
  - { offset: 0x6B968, size: 0x8, addend: 0x0, symName: __ZN6sentry13DisabledEvent9set_levelENS_5LevelE, symObjAddr: 0x943C, symBinAddr: 0x9F84, symSize: 0x8 }
  - { offset: 0x6B99B, size: 0x8, addend: 0x0, symName: __ZNK6sentry13DisabledEvent9get_levelEv, symObjAddr: 0x9444, symBinAddr: 0x9F8C, symSize: 0x8 }
  - { offset: 0x6B9C2, size: 0x8, addend: 0x0, symName: __ZN6sentry13DisabledEvent10set_loggerERKN5godot6StringE, symObjAddr: 0x944C, symBinAddr: 0x9F94, symSize: 0x8 }
  - { offset: 0x6B9F7, size: 0x8, addend: 0x0, symName: __ZNK6sentry13DisabledEvent10get_loggerEv, symObjAddr: 0x9454, symBinAddr: 0x9F9C, symSize: 0xC }
  - { offset: 0x6BA1E, size: 0x8, addend: 0x0, symName: __ZN6sentry13DisabledEvent11set_releaseERKN5godot6StringE, symObjAddr: 0x9460, symBinAddr: 0x9FA8, symSize: 0x8 }
  - { offset: 0x6BA53, size: 0x8, addend: 0x0, symName: __ZNK6sentry13DisabledEvent11get_releaseEv, symObjAddr: 0x9468, symBinAddr: 0x9FB0, symSize: 0xC }
  - { offset: 0x6BA7A, size: 0x8, addend: 0x0, symName: __ZN6sentry13DisabledEvent8set_distERKN5godot6StringE, symObjAddr: 0x9474, symBinAddr: 0x9FBC, symSize: 0x8 }
  - { offset: 0x6BAAF, size: 0x8, addend: 0x0, symName: __ZNK6sentry13DisabledEvent8get_distEv, symObjAddr: 0x947C, symBinAddr: 0x9FC4, symSize: 0xC }
  - { offset: 0x6BAD6, size: 0x8, addend: 0x0, symName: __ZN6sentry13DisabledEvent15set_environmentERKN5godot6StringE, symObjAddr: 0x9488, symBinAddr: 0x9FD0, symSize: 0x8 }
  - { offset: 0x6BB0B, size: 0x8, addend: 0x0, symName: __ZNK6sentry13DisabledEvent15get_environmentEv, symObjAddr: 0x9490, symBinAddr: 0x9FD8, symSize: 0xC }
  - { offset: 0x6BB32, size: 0x8, addend: 0x0, symName: __ZN6sentry13DisabledEvent7set_tagERKN5godot6StringES4_, symObjAddr: 0x949C, symBinAddr: 0x9FE4, symSize: 0x4 }
  - { offset: 0x6BB73, size: 0x8, addend: 0x0, symName: __ZN6sentry13DisabledEvent10remove_tagERKN5godot6StringE, symObjAddr: 0x94A0, symBinAddr: 0x9FE8, symSize: 0x4 }
  - { offset: 0x6BBA6, size: 0x8, addend: 0x0, symName: __ZN6sentry13DisabledEvent7get_tagERKN5godot6StringE, symObjAddr: 0x94A4, symBinAddr: 0x9FEC, symSize: 0x10 }
  - { offset: 0x6BBDC, size: 0x8, addend: 0x0, symName: __ZN6sentry13DisabledEvent13merge_contextERKN5godot6StringERKNS1_10DictionaryE, symObjAddr: 0x94B4, symBinAddr: 0x9FFC, symSize: 0x4 }
  - { offset: 0x6BC1D, size: 0x8, addend: 0x0, symName: __ZN6sentry13DisabledEvent13add_exceptionERKNS_11SentryEvent9ExceptionE, symObjAddr: 0x94B8, symBinAddr: 0xA000, symSize: 0x4 }
  - { offset: 0x6BC50, size: 0x8, addend: 0x0, symName: __ZNK6sentry13DisabledEvent19get_exception_countEv, symObjAddr: 0x94BC, symBinAddr: 0xA004, symSize: 0x8 }
  - { offset: 0x6BC77, size: 0x8, addend: 0x0, symName: __ZN6sentry13DisabledEvent19set_exception_valueEiRKN5godot6StringE, symObjAddr: 0x94C4, symBinAddr: 0xA00C, symSize: 0x4 }
  - { offset: 0x6BCB8, size: 0x8, addend: 0x0, symName: __ZNK6sentry13DisabledEvent19get_exception_valueEi, symObjAddr: 0x94C8, symBinAddr: 0xA010, symSize: 0x8 }
  - { offset: 0x6BCED, size: 0x8, addend: 0x0, symName: __ZNK6sentry13DisabledEvent8is_crashEv, symObjAddr: 0x94D0, symBinAddr: 0xA018, symSize: 0x8 }
  - { offset: 0x6BD14, size: 0x8, addend: 0x0, symName: __ZNK6sentry13DisabledEvent7to_jsonEv, symObjAddr: 0x94D8, symBinAddr: 0xA020, symSize: 0x10 }
  - { offset: 0x6BD89, size: 0x8, addend: 0x0, symName: __ZN6sentry13DisabledEventD2Ev.cold.1, symObjAddr: 0xE50C, symBinAddr: 0xEC174, symSize: 0x1C }
  - { offset: 0x6BDA4, size: 0x8, addend: 0x0, symName: __ZN6sentry13DisabledEventD2Ev.cold.1, symObjAddr: 0xE50C, symBinAddr: 0xEC174, symSize: 0x1C }
  - { offset: 0x6BDB8, size: 0x8, addend: 0x0, symName: __ZN6sentry13DisabledEventD2Ev.cold.1, symObjAddr: 0xE50C, symBinAddr: 0xEC174, symSize: 0x1C }
  - { offset: 0x6BDCC, size: 0x8, addend: 0x0, symName: __ZN6sentry13DisabledEventD2Ev.cold.1, symObjAddr: 0xE50C, symBinAddr: 0xEC174, symSize: 0x1C }
  - { offset: 0x6BDE0, size: 0x8, addend: 0x0, symName: __ZN6sentry13DisabledEventD2Ev.cold.1, symObjAddr: 0xE50C, symBinAddr: 0xEC174, symSize: 0x1C }
  - { offset: 0x6BDF4, size: 0x8, addend: 0x0, symName: __ZN6sentry13DisabledEventD2Ev.cold.1, symObjAddr: 0xE50C, symBinAddr: 0xEC174, symSize: 0x1C }
  - { offset: 0x6BE09, size: 0x8, addend: 0x0, symName: __ZN6sentry13DisabledEventD2Ev.cold.1, symObjAddr: 0xE50C, symBinAddr: 0xEC174, symSize: 0x1C }
  - { offset: 0x6BE36, size: 0x8, addend: 0x0, symName: __ZN5godot7ClassDB15_register_classIN6sentry20SentryEventProcessorELb0EEEvbbb.cold.1, symObjAddr: 0xE528, symBinAddr: 0xEC190, symSize: 0x5C }
  - { offset: 0x6BE64, size: 0x8, addend: 0x0, symName: __ZN5godot7ClassDB15_register_classIN6sentry20SentryEventProcessorELb0EEEvbbb.cold.2, symObjAddr: 0xE584, symBinAddr: 0xEC1EC, symSize: 0x58 }
  - { offset: 0x6BE92, size: 0x8, addend: 0x0, symName: __ZN5godot7ClassDB15_register_classIN6sentry20SentryEventProcessorELb0EEEvbbb.cold.3, symObjAddr: 0xE5DC, symBinAddr: 0xEC244, symSize: 0x58 }
  - { offset: 0x6BED5, size: 0x8, addend: 0x0, symName: __ZN5godot7ClassDB15_register_classIN6sentry20SentryEventProcessorELb0EEEvbbb.cold.4, symObjAddr: 0xE634, symBinAddr: 0xEC29C, symSize: 0x58 }
  - { offset: 0x6BF04, size: 0x8, addend: 0x0, symName: __ZN6sentry20SentryEventProcessor8set_bindEPvPKvS3_, symObjAddr: 0x98FC, symBinAddr: 0xA444, symSize: 0x8 }
  - { offset: 0x6BF44, size: 0x8, addend: 0x0, symName: __ZN6sentry20SentryEventProcessor8get_bindEPvPKvS1_, symObjAddr: 0x9904, symBinAddr: 0xA44C, symSize: 0x8 }
  - { offset: 0x6BF84, size: 0x8, addend: 0x0, symName: __ZN6sentry20SentryEventProcessor22get_property_list_bindEPvPj, symObjAddr: 0x990C, symBinAddr: 0xA454, symSize: 0x40 }
  - { offset: 0x6C010, size: 0x8, addend: 0x0, symName: __ZN6sentry20SentryEventProcessor22get_property_list_bindEPvPj.cold.1, symObjAddr: 0xE68C, symBinAddr: 0xEC2F4, symSize: 0x28 }
  - { offset: 0x6C028, size: 0x8, addend: 0x0, symName: __ZN6sentry20SentryEventProcessor23free_property_list_bindEPvPK23GDExtensionPropertyInfoj, symObjAddr: 0x994C, symBinAddr: 0xA494, symSize: 0x58 }
  - { offset: 0x6C142, size: 0x8, addend: 0x0, symName: __ZN6sentry20SentryEventProcessor24property_can_revert_bindEPvPKv, symObjAddr: 0x99A4, symBinAddr: 0xA4EC, symSize: 0x8 }
  - { offset: 0x6C174, size: 0x8, addend: 0x0, symName: __ZN6sentry20SentryEventProcessor24property_get_revert_bindEPvPKvS1_, symObjAddr: 0x99AC, symBinAddr: 0xA4F4, symSize: 0x8 }
  - { offset: 0x6C1B4, size: 0x8, addend: 0x0, symName: __ZN6sentry20SentryEventProcessor22validate_property_bindEPvP23GDExtensionPropertyInfo, symObjAddr: 0x99B4, symBinAddr: 0xA4FC, symSize: 0xB8 }
  - { offset: 0x6C259, size: 0x8, addend: 0x0, symName: __ZN6sentry20SentryEventProcessor17notification_bindEPvih, symObjAddr: 0x9A6C, symBinAddr: 0xA5B4, symSize: 0x4 }
  - { offset: 0x6C298, size: 0x8, addend: 0x0, symName: __ZN6sentry20SentryEventProcessor14to_string_bindEPvPhS1_, symObjAddr: 0x9A70, symBinAddr: 0xA5B8, symSize: 0x7C }
  - { offset: 0x6C353, size: 0x8, addend: 0x0, symName: __ZN5godot7ClassDB21_create_instance_funcIN6sentry20SentryEventProcessorEEEPvS4_h, symObjAddr: 0x9AEC, symBinAddr: 0xA634, symSize: 0xE4 }
  - { offset: 0x6C47F, size: 0x8, addend: 0x0, symName: __ZN5godot7ClassDB21_create_instance_funcIN6sentry20SentryEventProcessorEEEPvS4_h.cold.1, symObjAddr: 0xE6B4, symBinAddr: 0xEC31C, symSize: 0x5C }
  - { offset: 0x6C4D7, size: 0x8, addend: 0x0, symName: __ZN6sentry20SentryEventProcessor4freeEPvS1_, symObjAddr: 0x9BD0, symBinAddr: 0xA718, symSize: 0x3C }
  - { offset: 0x6C532, size: 0x8, addend: 0x0, symName: __ZN5godot7ClassDB23_recreate_instance_funcIN6sentry20SentryEventProcessorEEEPvS4_S4_, symObjAddr: 0x9C0C, symBinAddr: 0xA754, symSize: 0x8 }
  - { offset: 0x6C56D, size: 0x8, addend: 0x0, symName: __ZN6sentry20SentryEventProcessor28_gde_binding_create_callbackEPvS1_, symObjAddr: 0x9C14, symBinAddr: 0xA75C, symSize: 0x8 }
  - { offset: 0x6C598, size: 0x8, addend: 0x0, symName: __ZN6sentry20SentryEventProcessor26_gde_binding_free_callbackEPvS1_S1_, symObjAddr: 0x9C1C, symBinAddr: 0xA764, symSize: 0x4 }
  - { offset: 0x6C5CB, size: 0x8, addend: 0x0, symName: __ZN6sentry20SentryEventProcessor31_gde_binding_reference_callbackEPvS1_h, symObjAddr: 0x9C20, symBinAddr: 0xA768, symSize: 0x8 }
  - { offset: 0x6C600, size: 0x8, addend: 0x0, symName: __ZNK6sentry20SentryEventProcessor19_is_extension_classEv, symObjAddr: 0x9C28, symBinAddr: 0xA770, symSize: 0x8 }
  - { offset: 0x6C641, size: 0x8, addend: 0x0, symName: __ZN6sentry20SentryEventProcessorD1Ev, symObjAddr: 0x9C30, symBinAddr: 0xA778, symSize: 0x8C }
  - { offset: 0x6C7DF, size: 0x8, addend: 0x0, symName: __ZN6sentry20SentryEventProcessorD1Ev.cold.1, symObjAddr: 0xE710, symBinAddr: 0xEC378, symSize: 0x1C }
  - { offset: 0x6C7FA, size: 0x8, addend: 0x0, symName: __ZN6sentry20SentryEventProcessorD1Ev.cold.1, symObjAddr: 0xE710, symBinAddr: 0xEC378, symSize: 0x1C }
  - { offset: 0x6C80E, size: 0x8, addend: 0x0, symName: __ZN6sentry20SentryEventProcessorD1Ev.cold.1, symObjAddr: 0xE710, symBinAddr: 0xEC378, symSize: 0x1C }
  - { offset: 0x6C822, size: 0x8, addend: 0x0, symName: __ZN6sentry20SentryEventProcessorD1Ev.cold.1, symObjAddr: 0xE710, symBinAddr: 0xEC378, symSize: 0x1C }
  - { offset: 0x6C836, size: 0x8, addend: 0x0, symName: __ZN6sentry20SentryEventProcessorD1Ev.cold.1, symObjAddr: 0xE710, symBinAddr: 0xEC378, symSize: 0x1C }
  - { offset: 0x6C84A, size: 0x8, addend: 0x0, symName: __ZN6sentry20SentryEventProcessorD1Ev.cold.1, symObjAddr: 0xE710, symBinAddr: 0xEC378, symSize: 0x1C }
  - { offset: 0x6C85F, size: 0x8, addend: 0x0, symName: __ZN6sentry20SentryEventProcessorD1Ev.cold.1, symObjAddr: 0xE710, symBinAddr: 0xEC378, symSize: 0x1C }
  - { offset: 0x6C891, size: 0x8, addend: 0x0, symName: __ZN6sentry20SentryEventProcessorD0Ev, symObjAddr: 0x9CBC, symBinAddr: 0xA804, symSize: 0x74 }
  - { offset: 0x6C9DA, size: 0x8, addend: 0x0, symName: __ZN6sentry20SentryEventProcessorD0Ev.cold.1, symObjAddr: 0xE72C, symBinAddr: 0xEC394, symSize: 0x1C }
  - { offset: 0x6C9F5, size: 0x8, addend: 0x0, symName: __ZN6sentry20SentryEventProcessorD0Ev.cold.1, symObjAddr: 0xE72C, symBinAddr: 0xEC394, symSize: 0x1C }
  - { offset: 0x6CA09, size: 0x8, addend: 0x0, symName: __ZN6sentry20SentryEventProcessorD0Ev.cold.1, symObjAddr: 0xE72C, symBinAddr: 0xEC394, symSize: 0x1C }
  - { offset: 0x6CA1D, size: 0x8, addend: 0x0, symName: __ZN6sentry20SentryEventProcessorD0Ev.cold.1, symObjAddr: 0xE72C, symBinAddr: 0xEC394, symSize: 0x1C }
  - { offset: 0x6CA31, size: 0x8, addend: 0x0, symName: __ZN6sentry20SentryEventProcessorD0Ev.cold.1, symObjAddr: 0xE72C, symBinAddr: 0xEC394, symSize: 0x1C }
  - { offset: 0x6CA45, size: 0x8, addend: 0x0, symName: __ZN6sentry20SentryEventProcessorD0Ev.cold.1, symObjAddr: 0xE72C, symBinAddr: 0xEC394, symSize: 0x1C }
  - { offset: 0x6CA59, size: 0x8, addend: 0x0, symName: __ZN6sentry20SentryEventProcessorD0Ev.cold.1, symObjAddr: 0xE72C, symBinAddr: 0xEC394, symSize: 0x1C }
  - { offset: 0x6CA6E, size: 0x8, addend: 0x0, symName: __ZN6sentry20SentryEventProcessorD0Ev.cold.1, symObjAddr: 0xE72C, symBinAddr: 0xEC394, symSize: 0x1C }
  - { offset: 0x6CAF7, size: 0x8, addend: 0x0, symName: __ZN6sentry20SentryEventProcessor13process_eventERKN5godot3RefINS_11SentryEventEEE, symObjAddr: 0x9D30, symBinAddr: 0xA878, symSize: 0x18 }
  - { offset: 0x6CB2E, size: 0x8, addend: 0x0, symName: __ZN6sentry20SentryEventProcessor13process_eventERKN5godot3RefINS_11SentryEventEEE, symObjAddr: 0x9D30, symBinAddr: 0xA878, symSize: 0x18 }
  - { offset: 0x6CB50, size: 0x8, addend: 0x0, symName: __ZN6sentry20SentryEventProcessor13process_eventERKN5godot3RefINS_11SentryEventEEE, symObjAddr: 0x9D30, symBinAddr: 0xA878, symSize: 0x18 }
  - { offset: 0x6CBAA, size: 0x8, addend: 0x0, symName: __ZN5godot7ClassDB15_register_classIN6sentry19ScreenshotProcessorELb0EEEvbbb.cold.1, symObjAddr: 0xE748, symBinAddr: 0xEC3B0, symSize: 0x5C }
  - { offset: 0x6CBD8, size: 0x8, addend: 0x0, symName: __ZN5godot7ClassDB15_register_classIN6sentry19ScreenshotProcessorELb0EEEvbbb.cold.2, symObjAddr: 0xE7A4, symBinAddr: 0xEC40C, symSize: 0x58 }
  - { offset: 0x6CC06, size: 0x8, addend: 0x0, symName: __ZN5godot7ClassDB15_register_classIN6sentry19ScreenshotProcessorELb0EEEvbbb.cold.3, symObjAddr: 0xE7FC, symBinAddr: 0xEC464, symSize: 0x58 }
  - { offset: 0x6CC49, size: 0x8, addend: 0x0, symName: __ZN5godot7ClassDB15_register_classIN6sentry19ScreenshotProcessorELb0EEEvbbb.cold.4, symObjAddr: 0xE854, symBinAddr: 0xEC4BC, symSize: 0x58 }
  - { offset: 0x6CC78, size: 0x8, addend: 0x0, symName: __ZN6sentry19ScreenshotProcessor8set_bindEPvPKvS3_, symObjAddr: 0xA080, symBinAddr: 0xABC8, symSize: 0x8 }
  - { offset: 0x6CCB8, size: 0x8, addend: 0x0, symName: __ZN6sentry19ScreenshotProcessor8get_bindEPvPKvS1_, symObjAddr: 0xA088, symBinAddr: 0xABD0, symSize: 0x8 }
  - { offset: 0x6CCF8, size: 0x8, addend: 0x0, symName: __ZN6sentry19ScreenshotProcessor23free_property_list_bindEPvPK23GDExtensionPropertyInfoj, symObjAddr: 0xA090, symBinAddr: 0xABD8, symSize: 0x58 }
  - { offset: 0x6CE12, size: 0x8, addend: 0x0, symName: __ZN6sentry19ScreenshotProcessor24property_can_revert_bindEPvPKv, symObjAddr: 0xA0E8, symBinAddr: 0xAC30, symSize: 0x8 }
  - { offset: 0x6CE44, size: 0x8, addend: 0x0, symName: __ZN6sentry19ScreenshotProcessor24property_get_revert_bindEPvPKvS1_, symObjAddr: 0xA0F0, symBinAddr: 0xAC38, symSize: 0x8 }
  - { offset: 0x6CEC9, size: 0x8, addend: 0x0, symName: __ZN6sentry19ScreenshotProcessor22validate_property_bindEPvP23GDExtensionPropertyInfo, symObjAddr: 0xA0F8, symBinAddr: 0xAC40, symSize: 0xC8 }
  - { offset: 0x6CFB0, size: 0x8, addend: 0x0, symName: __ZN6sentry19ScreenshotProcessor17notification_bindEPvih, symObjAddr: 0xA1C0, symBinAddr: 0xAD08, symSize: 0x4 }
  - { offset: 0x6D027, size: 0x8, addend: 0x0, symName: __ZN6sentry19ScreenshotProcessor14to_string_bindEPvPhS1_, symObjAddr: 0xA1C4, symBinAddr: 0xAD0C, symSize: 0x7C }
  - { offset: 0x6D0E8, size: 0x8, addend: 0x0, symName: __ZN5godot7ClassDB21_create_instance_funcIN6sentry19ScreenshotProcessorEEEPvS4_h, symObjAddr: 0xA240, symBinAddr: 0xAD88, symSize: 0x80 }
  - { offset: 0x6D176, size: 0x8, addend: 0x0, symName: __ZN5godot7ClassDB21_create_instance_funcIN6sentry19ScreenshotProcessorEEEPvS4_h.cold.1, symObjAddr: 0xE8AC, symBinAddr: 0xEC514, symSize: 0x5C }
  - { offset: 0x6D1CE, size: 0x8, addend: 0x0, symName: __ZN6sentry19ScreenshotProcessor4freeEPvS1_, symObjAddr: 0xA2C0, symBinAddr: 0xAE08, symSize: 0x3C }
  - { offset: 0x6D229, size: 0x8, addend: 0x0, symName: __ZN5godot7ClassDB23_recreate_instance_funcIN6sentry19ScreenshotProcessorEEEPvS4_S4_, symObjAddr: 0xA2FC, symBinAddr: 0xAE44, symSize: 0x8 }
  - { offset: 0x6D264, size: 0x8, addend: 0x0, symName: __ZN6sentry19ScreenshotProcessor28_gde_binding_create_callbackEPvS1_, symObjAddr: 0xA304, symBinAddr: 0xAE4C, symSize: 0x8 }
  - { offset: 0x6D28F, size: 0x8, addend: 0x0, symName: __ZN6sentry19ScreenshotProcessor26_gde_binding_free_callbackEPvS1_S1_, symObjAddr: 0xA30C, symBinAddr: 0xAE54, symSize: 0x4 }
  - { offset: 0x6D2C2, size: 0x8, addend: 0x0, symName: __ZN6sentry19ScreenshotProcessor31_gde_binding_reference_callbackEPvS1_h, symObjAddr: 0xA310, symBinAddr: 0xAE58, symSize: 0x8 }
  - { offset: 0x6D30C, size: 0x8, addend: 0x0, symName: __ZN5godot7ClassDB15_register_classIN6sentry22ViewHierarchyProcessorELb0EEEvbbb.cold.1, symObjAddr: 0xE908, symBinAddr: 0xEC570, symSize: 0x5C }
  - { offset: 0x6D33A, size: 0x8, addend: 0x0, symName: __ZN5godot7ClassDB15_register_classIN6sentry22ViewHierarchyProcessorELb0EEEvbbb.cold.2, symObjAddr: 0xE964, symBinAddr: 0xEC5CC, symSize: 0x58 }
  - { offset: 0x6D368, size: 0x8, addend: 0x0, symName: __ZN5godot7ClassDB15_register_classIN6sentry22ViewHierarchyProcessorELb0EEEvbbb.cold.3, symObjAddr: 0xE9BC, symBinAddr: 0xEC624, symSize: 0x58 }
  - { offset: 0x6D3AB, size: 0x8, addend: 0x0, symName: __ZN5godot7ClassDB15_register_classIN6sentry22ViewHierarchyProcessorELb0EEEvbbb.cold.4, symObjAddr: 0xEA14, symBinAddr: 0xEC67C, symSize: 0x58 }
  - { offset: 0x6D3DA, size: 0x8, addend: 0x0, symName: __ZN6sentry22ViewHierarchyProcessor8set_bindEPvPKvS3_, symObjAddr: 0xA650, symBinAddr: 0xB198, symSize: 0x8 }
  - { offset: 0x6D41A, size: 0x8, addend: 0x0, symName: __ZN6sentry22ViewHierarchyProcessor8get_bindEPvPKvS1_, symObjAddr: 0xA658, symBinAddr: 0xB1A0, symSize: 0x8 }
  - { offset: 0x6D45A, size: 0x8, addend: 0x0, symName: __ZN6sentry22ViewHierarchyProcessor23free_property_list_bindEPvPK23GDExtensionPropertyInfoj, symObjAddr: 0xA660, symBinAddr: 0xB1A8, symSize: 0x58 }
  - { offset: 0x6D574, size: 0x8, addend: 0x0, symName: __ZN6sentry22ViewHierarchyProcessor24property_can_revert_bindEPvPKv, symObjAddr: 0xA6B8, symBinAddr: 0xB200, symSize: 0x8 }
  - { offset: 0x6D5A6, size: 0x8, addend: 0x0, symName: __ZN6sentry22ViewHierarchyProcessor24property_get_revert_bindEPvPKvS1_, symObjAddr: 0xA6C0, symBinAddr: 0xB208, symSize: 0x8 }
  - { offset: 0x6D5E6, size: 0x8, addend: 0x0, symName: __ZN6sentry22ViewHierarchyProcessor22validate_property_bindEPvP23GDExtensionPropertyInfo, symObjAddr: 0xA6C8, symBinAddr: 0xB210, symSize: 0xC8 }
  - { offset: 0x6D6CD, size: 0x8, addend: 0x0, symName: __ZN6sentry22ViewHierarchyProcessor17notification_bindEPvih, symObjAddr: 0xA790, symBinAddr: 0xB2D8, symSize: 0x4 }
  - { offset: 0x6D70C, size: 0x8, addend: 0x0, symName: __ZN6sentry22ViewHierarchyProcessor14to_string_bindEPvPhS1_, symObjAddr: 0xA794, symBinAddr: 0xB2DC, symSize: 0x7C }
  - { offset: 0x6D7CD, size: 0x8, addend: 0x0, symName: __ZN5godot7ClassDB21_create_instance_funcIN6sentry22ViewHierarchyProcessorEEEPvS4_h, symObjAddr: 0xA810, symBinAddr: 0xB358, symSize: 0x80 }
  - { offset: 0x6D85B, size: 0x8, addend: 0x0, symName: __ZN5godot7ClassDB21_create_instance_funcIN6sentry22ViewHierarchyProcessorEEEPvS4_h.cold.1, symObjAddr: 0xEA6C, symBinAddr: 0xEC6D4, symSize: 0x5C }
  - { offset: 0x6D8B3, size: 0x8, addend: 0x0, symName: __ZN6sentry22ViewHierarchyProcessor4freeEPvS1_, symObjAddr: 0xA890, symBinAddr: 0xB3D8, symSize: 0x3C }
  - { offset: 0x6D90E, size: 0x8, addend: 0x0, symName: __ZN5godot7ClassDB23_recreate_instance_funcIN6sentry22ViewHierarchyProcessorEEEPvS4_S4_, symObjAddr: 0xA8CC, symBinAddr: 0xB414, symSize: 0x8 }
  - { offset: 0x6D949, size: 0x8, addend: 0x0, symName: __ZN6sentry22ViewHierarchyProcessor28_gde_binding_create_callbackEPvS1_, symObjAddr: 0xA8D4, symBinAddr: 0xB41C, symSize: 0x8 }
  - { offset: 0x6D974, size: 0x8, addend: 0x0, symName: __ZN6sentry22ViewHierarchyProcessor26_gde_binding_free_callbackEPvS1_S1_, symObjAddr: 0xA8DC, symBinAddr: 0xB424, symSize: 0x4 }
  - { offset: 0x6D9A7, size: 0x8, addend: 0x0, symName: __ZN6sentry22ViewHierarchyProcessor31_gde_binding_reference_callbackEPvS1_h, symObjAddr: 0xA8E0, symBinAddr: 0xB428, symSize: 0x8 }
  - { offset: 0x6D9F1, size: 0x8, addend: 0x0, symName: __ZN5godot6Logger17register_virtualsIN6sentry7logging17SentryGodotLoggerES0_EEvv, symObjAddr: 0xAEE8, symBinAddr: 0xBA30, symSize: 0xEC }
  - { offset: 0x6DAE2, size: 0x8, addend: 0x0, symName: __ZN5godot7ClassDB15_register_classIN6sentry7logging17SentryGodotLoggerELb0EEEvbbb.cold.1, symObjAddr: 0xEAC8, symBinAddr: 0xEC730, symSize: 0x5C }
  - { offset: 0x6DB10, size: 0x8, addend: 0x0, symName: __ZN5godot7ClassDB15_register_classIN6sentry7logging17SentryGodotLoggerELb0EEEvbbb.cold.2, symObjAddr: 0xEB24, symBinAddr: 0xEC78C, symSize: 0x58 }
  - { offset: 0x6DB3E, size: 0x8, addend: 0x0, symName: __ZN5godot7ClassDB15_register_classIN6sentry7logging17SentryGodotLoggerELb0EEEvbbb.cold.3, symObjAddr: 0xEB7C, symBinAddr: 0xEC7E4, symSize: 0x58 }
  - { offset: 0x6DB81, size: 0x8, addend: 0x0, symName: __ZN5godot7ClassDB15_register_classIN6sentry7logging17SentryGodotLoggerELb0EEEvbbb.cold.4, symObjAddr: 0xEBD4, symBinAddr: 0xEC83C, symSize: 0x58 }
  - { offset: 0x6DBB0, size: 0x8, addend: 0x0, symName: __ZN6sentry7logging17SentryGodotLogger8set_bindEPvPKvS4_, symObjAddr: 0xAC18, symBinAddr: 0xB760, symSize: 0x8 }
  - { offset: 0x6DBF0, size: 0x8, addend: 0x0, symName: __ZN6sentry7logging17SentryGodotLogger8get_bindEPvPKvS2_, symObjAddr: 0xAC20, symBinAddr: 0xB768, symSize: 0x8 }
  - { offset: 0x6DC30, size: 0x8, addend: 0x0, symName: __ZN6sentry7logging17SentryGodotLogger22get_property_list_bindEPvPj, symObjAddr: 0xAC28, symBinAddr: 0xB770, symSize: 0x40 }
  - { offset: 0x6DCBC, size: 0x8, addend: 0x0, symName: __ZN6sentry7logging17SentryGodotLogger22get_property_list_bindEPvPj.cold.1, symObjAddr: 0xEC2C, symBinAddr: 0xEC894, symSize: 0x28 }
  - { offset: 0x6DCD4, size: 0x8, addend: 0x0, symName: __ZN6sentry7logging17SentryGodotLogger23free_property_list_bindEPvPK23GDExtensionPropertyInfoj, symObjAddr: 0xAC68, symBinAddr: 0xB7B0, symSize: 0x58 }
  - { offset: 0x6DDEE, size: 0x8, addend: 0x0, symName: __ZN6sentry7logging17SentryGodotLogger24property_can_revert_bindEPvPKv, symObjAddr: 0xACC0, symBinAddr: 0xB808, symSize: 0x8 }
  - { offset: 0x6DE20, size: 0x8, addend: 0x0, symName: __ZN6sentry7logging17SentryGodotLogger24property_get_revert_bindEPvPKvS2_, symObjAddr: 0xACC8, symBinAddr: 0xB810, symSize: 0x8 }
  - { offset: 0x6DE60, size: 0x8, addend: 0x0, symName: __ZN6sentry7logging17SentryGodotLogger22validate_property_bindEPvP23GDExtensionPropertyInfo, symObjAddr: 0xACD0, symBinAddr: 0xB818, symSize: 0xB8 }
  - { offset: 0x6DF23, size: 0x8, addend: 0x0, symName: __ZN6sentry7logging17SentryGodotLogger17notification_bindEPvih, symObjAddr: 0xAD88, symBinAddr: 0xB8D0, symSize: 0xC }
  - { offset: 0x6DF7F, size: 0x8, addend: 0x0, symName: __ZN6sentry7logging17SentryGodotLogger14to_string_bindEPvPhS2_, symObjAddr: 0xAD94, symBinAddr: 0xB8DC, symSize: 0x7C }
  - { offset: 0x6E01A, size: 0x8, addend: 0x0, symName: __ZN5godot7ClassDB21_create_instance_funcIN6sentry7logging17SentryGodotLoggerEEEPvS5_h, symObjAddr: 0xAE10, symBinAddr: 0xB958, symSize: 0x80 }
  - { offset: 0x6E0A8, size: 0x8, addend: 0x0, symName: __ZN5godot7ClassDB21_create_instance_funcIN6sentry7logging17SentryGodotLoggerEEEPvS5_h.cold.1, symObjAddr: 0xEC54, symBinAddr: 0xEC8BC, symSize: 0x5C }
  - { offset: 0x6E100, size: 0x8, addend: 0x0, symName: __ZN6sentry7logging17SentryGodotLogger4freeEPvS2_, symObjAddr: 0xAE90, symBinAddr: 0xB9D8, symSize: 0x3C }
  - { offset: 0x6E15B, size: 0x8, addend: 0x0, symName: __ZN5godot7ClassDB23_recreate_instance_funcIN6sentry7logging17SentryGodotLoggerEEEPvS5_S5_, symObjAddr: 0xAECC, symBinAddr: 0xBA14, symSize: 0x8 }
  - { offset: 0x6E196, size: 0x8, addend: 0x0, symName: __ZN6sentry7logging17SentryGodotLogger28_gde_binding_create_callbackEPvS2_, symObjAddr: 0xAED4, symBinAddr: 0xBA1C, symSize: 0x8 }
  - { offset: 0x6E1C1, size: 0x8, addend: 0x0, symName: __ZN6sentry7logging17SentryGodotLogger26_gde_binding_free_callbackEPvS2_S2_, symObjAddr: 0xAEDC, symBinAddr: 0xBA24, symSize: 0x4 }
  - { offset: 0x6E1F4, size: 0x8, addend: 0x0, symName: __ZN6sentry7logging17SentryGodotLogger31_gde_binding_reference_callbackEPvS2_h, symObjAddr: 0xAEE0, symBinAddr: 0xBA28, symSize: 0x8 }
  - { offset: 0x6E229, size: 0x8, addend: 0x0, symName: __ZN5godot6Logger17register_virtualsIN6sentry7logging17SentryGodotLoggerES0_EEvv.cold.1, symObjAddr: 0xECB0, symBinAddr: 0xEC918, symSize: 0x5C }
  - { offset: 0x6E257, size: 0x8, addend: 0x0, symName: __ZN5godot6Logger17register_virtualsIN6sentry7logging17SentryGodotLoggerES0_EEvv.cold.2, symObjAddr: 0xED0C, symBinAddr: 0xEC974, symSize: 0x58 }
  - { offset: 0x6E308, size: 0x8, addend: 0x0, symName: __ZZN5godot6Logger17register_virtualsIN6sentry7logging17SentryGodotLoggerES0_EEvvENUlPvPKPKvS5_E_8__invokeES5_S9_S5_, symObjAddr: 0xAFD4, symBinAddr: 0xBB1C, symSize: 0x10 }
  - { offset: 0x6E4A6, size: 0x8, addend: 0x0, symName: __ZN5godot25call_with_ptr_args_helperIN6sentry7logging17SentryGodotLoggerEJRKNS_6StringES6_iS6_S6_biRKNS_10TypedArrayINS_3RefINS_15ScriptBacktraceEEEEEEJLm0ELm1ELm2ELm3ELm4ELm5ELm6ELm7EEEEvPT_MSE_FvDpT0_EPKPKvNS_13IndexSequenceIJXspT1_EEEE.cold.1, symObjAddr: 0xED64, symBinAddr: 0xEC9CC, symSize: 0x58 }
  - { offset: 0x6E58F, size: 0x8, addend: 0x0, symName: __ZZN5godot6Logger17register_virtualsIN6sentry7logging17SentryGodotLoggerES0_EEvvENUlPvPKPKvS5_E0_8__invokeES5_S9_S5_, symObjAddr: 0xB190, symBinAddr: 0xBCD8, symSize: 0x94 }
  - { offset: 0x6E6AD, size: 0x8, addend: 0x0, symName: __ZN5godot7ClassDB15_register_classIN6sentry5cocoa10CocoaEventELb0EEEvbbb.cold.1, symObjAddr: 0xEDBC, symBinAddr: 0xECA24, symSize: 0x5C }
  - { offset: 0x6E6DB, size: 0x8, addend: 0x0, symName: __ZN5godot7ClassDB15_register_classIN6sentry5cocoa10CocoaEventELb0EEEvbbb.cold.2, symObjAddr: 0xEE18, symBinAddr: 0xECA80, symSize: 0x58 }
  - { offset: 0x6E709, size: 0x8, addend: 0x0, symName: __ZN5godot7ClassDB15_register_classIN6sentry5cocoa10CocoaEventELb0EEEvbbb.cold.3, symObjAddr: 0xEE70, symBinAddr: 0xECAD8, symSize: 0x58 }
  - { offset: 0x6E74C, size: 0x8, addend: 0x0, symName: __ZN5godot7ClassDB15_register_classIN6sentry5cocoa10CocoaEventELb0EEEvbbb.cold.4, symObjAddr: 0xEEC8, symBinAddr: 0xECB30, symSize: 0x58 }
  - { offset: 0x6E77B, size: 0x8, addend: 0x0, symName: __ZN6sentry5cocoa10CocoaEvent8set_bindEPvPKvS4_, symObjAddr: 0xB55C, symBinAddr: 0xC0A4, symSize: 0x8 }
  - { offset: 0x6E7BB, size: 0x8, addend: 0x0, symName: __ZN6sentry5cocoa10CocoaEvent8get_bindEPvPKvS2_, symObjAddr: 0xB564, symBinAddr: 0xC0AC, symSize: 0x8 }
  - { offset: 0x6E7FB, size: 0x8, addend: 0x0, symName: __ZN6sentry5cocoa10CocoaEvent23free_property_list_bindEPvPK23GDExtensionPropertyInfoj, symObjAddr: 0xB56C, symBinAddr: 0xC0B4, symSize: 0x58 }
  - { offset: 0x6E915, size: 0x8, addend: 0x0, symName: __ZN6sentry5cocoa10CocoaEvent24property_can_revert_bindEPvPKv, symObjAddr: 0xB5C4, symBinAddr: 0xC10C, symSize: 0x8 }
  - { offset: 0x6E947, size: 0x8, addend: 0x0, symName: __ZN6sentry5cocoa10CocoaEvent24property_get_revert_bindEPvPKvS2_, symObjAddr: 0xB5CC, symBinAddr: 0xC114, symSize: 0x8 }
  - { offset: 0x6E987, size: 0x8, addend: 0x0, symName: __ZN6sentry5cocoa10CocoaEvent22validate_property_bindEPvP23GDExtensionPropertyInfo, symObjAddr: 0xB5D4, symBinAddr: 0xC11C, symSize: 0xC8 }
  - { offset: 0x6EA6E, size: 0x8, addend: 0x0, symName: __ZN6sentry5cocoa10CocoaEvent17notification_bindEPvih, symObjAddr: 0xB69C, symBinAddr: 0xC1E4, symSize: 0x4 }
  - { offset: 0x6EAAD, size: 0x8, addend: 0x0, symName: __ZN6sentry5cocoa10CocoaEvent14to_string_bindEPvPhS2_, symObjAddr: 0xB6A0, symBinAddr: 0xC1E8, symSize: 0x7C }
  - { offset: 0x6EB6E, size: 0x8, addend: 0x0, symName: __ZN5godot7ClassDB21_create_instance_funcIN6sentry5cocoa10CocoaEventEEEPvS5_h, symObjAddr: 0xB71C, symBinAddr: 0xC264, symSize: 0x80 }
  - { offset: 0x6EBFC, size: 0x8, addend: 0x0, symName: __ZN5godot7ClassDB21_create_instance_funcIN6sentry5cocoa10CocoaEventEEEPvS5_h.cold.1, symObjAddr: 0xEF20, symBinAddr: 0xECB88, symSize: 0x5C }
  - { offset: 0x6EC54, size: 0x8, addend: 0x0, symName: __ZN6sentry5cocoa10CocoaEvent4freeEPvS2_, symObjAddr: 0xB79C, symBinAddr: 0xC2E4, symSize: 0x3C }
  - { offset: 0x6ECAF, size: 0x8, addend: 0x0, symName: __ZN5godot7ClassDB23_recreate_instance_funcIN6sentry5cocoa10CocoaEventEEEPvS5_S5_, symObjAddr: 0xB7D8, symBinAddr: 0xC320, symSize: 0x8 }
  - { offset: 0x6ECEA, size: 0x8, addend: 0x0, symName: __ZN6sentry5cocoa10CocoaEvent28_gde_binding_create_callbackEPvS2_, symObjAddr: 0xB7E0, symBinAddr: 0xC328, symSize: 0x8 }
  - { offset: 0x6ED15, size: 0x8, addend: 0x0, symName: __ZN6sentry5cocoa10CocoaEvent26_gde_binding_free_callbackEPvS2_S2_, symObjAddr: 0xB7E8, symBinAddr: 0xC330, symSize: 0x4 }
  - { offset: 0x6ED48, size: 0x8, addend: 0x0, symName: __ZN6sentry5cocoa10CocoaEvent31_gde_binding_reference_callbackEPvS2_h, symObjAddr: 0xB7EC, symBinAddr: 0xC334, symSize: 0x8 }
  - { offset: 0x6ED92, size: 0x8, addend: 0x0, symName: __ZN5godot7ClassDB15_register_classIN6sentry5cocoa15CocoaBreadcrumbELb0EEEvbbb.cold.1, symObjAddr: 0xEF7C, symBinAddr: 0xECBE4, symSize: 0x5C }
  - { offset: 0x6EDC0, size: 0x8, addend: 0x0, symName: __ZN5godot7ClassDB15_register_classIN6sentry5cocoa15CocoaBreadcrumbELb0EEEvbbb.cold.2, symObjAddr: 0xEFD8, symBinAddr: 0xECC40, symSize: 0x58 }
  - { offset: 0x6EDEE, size: 0x8, addend: 0x0, symName: __ZN5godot7ClassDB15_register_classIN6sentry5cocoa15CocoaBreadcrumbELb0EEEvbbb.cold.3, symObjAddr: 0xF030, symBinAddr: 0xECC98, symSize: 0x58 }
  - { offset: 0x6EE31, size: 0x8, addend: 0x0, symName: __ZN5godot7ClassDB15_register_classIN6sentry5cocoa15CocoaBreadcrumbELb0EEEvbbb.cold.4, symObjAddr: 0xF088, symBinAddr: 0xECCF0, symSize: 0x58 }
  - { offset: 0x6EE60, size: 0x8, addend: 0x0, symName: __ZN6sentry5cocoa15CocoaBreadcrumb8set_bindEPvPKvS4_, symObjAddr: 0xBB2C, symBinAddr: 0xC674, symSize: 0x8 }
  - { offset: 0x6EEA0, size: 0x8, addend: 0x0, symName: __ZN6sentry5cocoa15CocoaBreadcrumb8get_bindEPvPKvS2_, symObjAddr: 0xBB34, symBinAddr: 0xC67C, symSize: 0x8 }
  - { offset: 0x6EEE0, size: 0x8, addend: 0x0, symName: __ZN6sentry5cocoa15CocoaBreadcrumb23free_property_list_bindEPvPK23GDExtensionPropertyInfoj, symObjAddr: 0xBB3C, symBinAddr: 0xC684, symSize: 0x58 }
  - { offset: 0x6EFFA, size: 0x8, addend: 0x0, symName: __ZN6sentry5cocoa15CocoaBreadcrumb24property_can_revert_bindEPvPKv, symObjAddr: 0xBB94, symBinAddr: 0xC6DC, symSize: 0x8 }
  - { offset: 0x6F02C, size: 0x8, addend: 0x0, symName: __ZN6sentry5cocoa15CocoaBreadcrumb24property_get_revert_bindEPvPKvS2_, symObjAddr: 0xBB9C, symBinAddr: 0xC6E4, symSize: 0x8 }
  - { offset: 0x6F0B1, size: 0x8, addend: 0x0, symName: __ZN6sentry5cocoa15CocoaBreadcrumb22validate_property_bindEPvP23GDExtensionPropertyInfo, symObjAddr: 0xBBA4, symBinAddr: 0xC6EC, symSize: 0xC8 }
  - { offset: 0x6F198, size: 0x8, addend: 0x0, symName: __ZN6sentry5cocoa15CocoaBreadcrumb17notification_bindEPvih, symObjAddr: 0xBC6C, symBinAddr: 0xC7B4, symSize: 0x4 }
  - { offset: 0x6F20F, size: 0x8, addend: 0x0, symName: __ZN6sentry5cocoa15CocoaBreadcrumb14to_string_bindEPvPhS2_, symObjAddr: 0xBC70, symBinAddr: 0xC7B8, symSize: 0x7C }
  - { offset: 0x6F2D0, size: 0x8, addend: 0x0, symName: __ZN5godot7ClassDB21_create_instance_funcIN6sentry5cocoa15CocoaBreadcrumbEEEPvS5_h, symObjAddr: 0xBCEC, symBinAddr: 0xC834, symSize: 0x80 }
  - { offset: 0x6F35E, size: 0x8, addend: 0x0, symName: __ZN5godot7ClassDB21_create_instance_funcIN6sentry5cocoa15CocoaBreadcrumbEEEPvS5_h.cold.1, symObjAddr: 0xF0E0, symBinAddr: 0xECD48, symSize: 0x5C }
  - { offset: 0x6F3B6, size: 0x8, addend: 0x0, symName: __ZN6sentry5cocoa15CocoaBreadcrumb4freeEPvS2_, symObjAddr: 0xBD6C, symBinAddr: 0xC8B4, symSize: 0x3C }
  - { offset: 0x6F411, size: 0x8, addend: 0x0, symName: __ZN5godot7ClassDB23_recreate_instance_funcIN6sentry5cocoa15CocoaBreadcrumbEEEPvS5_S5_, symObjAddr: 0xBDA8, symBinAddr: 0xC8F0, symSize: 0x8 }
  - { offset: 0x6F44C, size: 0x8, addend: 0x0, symName: __ZN6sentry5cocoa15CocoaBreadcrumb28_gde_binding_create_callbackEPvS2_, symObjAddr: 0xBDB0, symBinAddr: 0xC8F8, symSize: 0x8 }
  - { offset: 0x6F477, size: 0x8, addend: 0x0, symName: __ZN6sentry5cocoa15CocoaBreadcrumb26_gde_binding_free_callbackEPvS2_S2_, symObjAddr: 0xBDB8, symBinAddr: 0xC900, symSize: 0x4 }
  - { offset: 0x6F4AA, size: 0x8, addend: 0x0, symName: __ZN6sentry5cocoa15CocoaBreadcrumb31_gde_binding_reference_callbackEPvS2_h, symObjAddr: 0xBDBC, symBinAddr: 0xC904, symSize: 0x8 }
  - { offset: 0x6F4F4, size: 0x8, addend: 0x0, symName: __ZN5godot7ClassDB15_register_classIN6sentry5cocoa8CocoaLogELb0EEEvbbb.cold.1, symObjAddr: 0xF13C, symBinAddr: 0xECDA4, symSize: 0x5C }
  - { offset: 0x6F522, size: 0x8, addend: 0x0, symName: __ZN5godot7ClassDB15_register_classIN6sentry5cocoa8CocoaLogELb0EEEvbbb.cold.2, symObjAddr: 0xF198, symBinAddr: 0xECE00, symSize: 0x58 }
  - { offset: 0x6F550, size: 0x8, addend: 0x0, symName: __ZN5godot7ClassDB15_register_classIN6sentry5cocoa8CocoaLogELb0EEEvbbb.cold.3, symObjAddr: 0xF1F0, symBinAddr: 0xECE58, symSize: 0x58 }
  - { offset: 0x6F593, size: 0x8, addend: 0x0, symName: __ZN5godot7ClassDB15_register_classIN6sentry5cocoa8CocoaLogELb0EEEvbbb.cold.4, symObjAddr: 0xF248, symBinAddr: 0xECEB0, symSize: 0x58 }
  - { offset: 0x6F5C2, size: 0x8, addend: 0x0, symName: __ZN6sentry5cocoa8CocoaLog8set_bindEPvPKvS4_, symObjAddr: 0xC0FC, symBinAddr: 0xCC44, symSize: 0x8 }
  - { offset: 0x6F602, size: 0x8, addend: 0x0, symName: __ZN6sentry5cocoa8CocoaLog8get_bindEPvPKvS2_, symObjAddr: 0xC104, symBinAddr: 0xCC4C, symSize: 0x8 }
  - { offset: 0x6F642, size: 0x8, addend: 0x0, symName: __ZN6sentry5cocoa8CocoaLog23free_property_list_bindEPvPK23GDExtensionPropertyInfoj, symObjAddr: 0xC10C, symBinAddr: 0xCC54, symSize: 0x58 }
  - { offset: 0x6F75C, size: 0x8, addend: 0x0, symName: __ZN6sentry5cocoa8CocoaLog24property_can_revert_bindEPvPKv, symObjAddr: 0xC164, symBinAddr: 0xCCAC, symSize: 0x8 }
  - { offset: 0x6F78E, size: 0x8, addend: 0x0, symName: __ZN6sentry5cocoa8CocoaLog24property_get_revert_bindEPvPKvS2_, symObjAddr: 0xC16C, symBinAddr: 0xCCB4, symSize: 0x8 }
  - { offset: 0x6F813, size: 0x8, addend: 0x0, symName: __ZN6sentry5cocoa8CocoaLog22validate_property_bindEPvP23GDExtensionPropertyInfo, symObjAddr: 0xC174, symBinAddr: 0xCCBC, symSize: 0xC8 }
  - { offset: 0x6F8FA, size: 0x8, addend: 0x0, symName: __ZN6sentry5cocoa8CocoaLog17notification_bindEPvih, symObjAddr: 0xC23C, symBinAddr: 0xCD84, symSize: 0x4 }
  - { offset: 0x6F971, size: 0x8, addend: 0x0, symName: __ZN6sentry5cocoa8CocoaLog14to_string_bindEPvPhS2_, symObjAddr: 0xC240, symBinAddr: 0xCD88, symSize: 0x7C }
  - { offset: 0x6FA32, size: 0x8, addend: 0x0, symName: __ZN5godot7ClassDB21_create_instance_funcIN6sentry5cocoa8CocoaLogEEEPvS5_h, symObjAddr: 0xC2BC, symBinAddr: 0xCE04, symSize: 0x80 }
  - { offset: 0x6FAC0, size: 0x8, addend: 0x0, symName: __ZN5godot7ClassDB21_create_instance_funcIN6sentry5cocoa8CocoaLogEEEPvS5_h.cold.1, symObjAddr: 0xF2A0, symBinAddr: 0xECF08, symSize: 0x5C }
  - { offset: 0x6FB18, size: 0x8, addend: 0x0, symName: __ZN6sentry5cocoa8CocoaLog4freeEPvS2_, symObjAddr: 0xC33C, symBinAddr: 0xCE84, symSize: 0x3C }
  - { offset: 0x6FB73, size: 0x8, addend: 0x0, symName: __ZN5godot7ClassDB23_recreate_instance_funcIN6sentry5cocoa8CocoaLogEEEPvS5_S5_, symObjAddr: 0xC378, symBinAddr: 0xCEC0, symSize: 0x8 }
  - { offset: 0x6FBAE, size: 0x8, addend: 0x0, symName: __ZN6sentry5cocoa8CocoaLog28_gde_binding_create_callbackEPvS2_, symObjAddr: 0xC380, symBinAddr: 0xCEC8, symSize: 0x8 }
  - { offset: 0x6FBD9, size: 0x8, addend: 0x0, symName: __ZN6sentry5cocoa8CocoaLog26_gde_binding_free_callbackEPvS2_S2_, symObjAddr: 0xC388, symBinAddr: 0xCED0, symSize: 0x4 }
  - { offset: 0x6FC0C, size: 0x8, addend: 0x0, symName: __ZN6sentry5cocoa8CocoaLog31_gde_binding_reference_callbackEPvS2_h, symObjAddr: 0xC38C, symBinAddr: 0xCED4, symSize: 0x8 }
  - { offset: 0x6FC41, size: 0x8, addend: 0x0, symName: _OUTLINED_FUNCTION_0, symObjAddr: 0xF2FC, symBinAddr: 0xCEDC, symSize: 0x10 }
  - { offset: 0x6FC59, size: 0x8, addend: 0x0, symName: _OUTLINED_FUNCTION_1, symObjAddr: 0xF30C, symBinAddr: 0xCEEC, symSize: 0xC }
  - { offset: 0x6FC71, size: 0x8, addend: 0x0, symName: _OUTLINED_FUNCTION_2, symObjAddr: 0xF318, symBinAddr: 0xCEF8, symSize: 0xC }
  - { offset: 0x6FC89, size: 0x8, addend: 0x0, symName: _OUTLINED_FUNCTION_3, symObjAddr: 0xF324, symBinAddr: 0xCF04, symSize: 0xC }
  - { offset: 0x6FCA1, size: 0x8, addend: 0x0, symName: _OUTLINED_FUNCTION_4, symObjAddr: 0xF330, symBinAddr: 0xCF10, symSize: 0x8 }
  - { offset: 0x6FCB9, size: 0x8, addend: 0x0, symName: _OUTLINED_FUNCTION_5, symObjAddr: 0xF338, symBinAddr: 0xCF18, symSize: 0x8 }
  - { offset: 0x6FCD1, size: 0x8, addend: 0x0, symName: _OUTLINED_FUNCTION_6, symObjAddr: 0xF340, symBinAddr: 0xCF20, symSize: 0x8 }
  - { offset: 0x6FCE9, size: 0x8, addend: 0x0, symName: _OUTLINED_FUNCTION_7, symObjAddr: 0xF348, symBinAddr: 0xCF28, symSize: 0x8 }
  - { offset: 0x7E17B, size: 0x8, addend: 0x0, symName: __ZN5godot22hash_table_size_primesE, symObjAddr: 0x6264, symBinAddr: 0x1521A4, symSize: 0x0 }
  - { offset: 0x7E196, size: 0x8, addend: 0x0, symName: __ZN5godot26hash_table_size_primes_invE, symObjAddr: 0x62D8, symBinAddr: 0x152218, symSize: 0x0 }
  - { offset: 0x80AE3, size: 0x8, addend: 0x0, symName: __ZN5godot9DirAccess22_gde_binding_callbacksE, symObjAddr: 0x5F10, symBinAddr: 0x16CB88, symSize: 0x0 }
  - { offset: 0x80AF7, size: 0x8, addend: 0x0, symName: __ZN5godot2OS22_gde_binding_callbacksE, symObjAddr: 0x5F98, symBinAddr: 0x16CBE0, symSize: 0x0 }
  - { offset: 0x80B0B, size: 0x8, addend: 0x0, symName: __ZN5godot11Performance22_gde_binding_callbacksE, symObjAddr: 0x5FB0, symBinAddr: 0x16CBF8, symSize: 0x0 }
  - { offset: 0x80B1F, size: 0x8, addend: 0x0, symName: __ZN5godot15ProjectSettings22_gde_binding_callbacksE, symObjAddr: 0x5FC8, symBinAddr: 0x16CC10, symSize: 0x0 }
  - { offset: 0x80B33, size: 0x8, addend: 0x0, symName: __ZN5godot8Resource22_gde_binding_callbacksE, symObjAddr: 0x5FE0, symBinAddr: 0x16CC28, symSize: 0x0 }
  - { offset: 0x80B47, size: 0x8, addend: 0x0, symName: __ZN5godot5Image22_gde_binding_callbacksE, symObjAddr: 0x5FF8, symBinAddr: 0x16CC40, symSize: 0x0 }
  - { offset: 0x80B5B, size: 0x8, addend: 0x0, symName: __ZN5godot32RDPipelineSpecializationConstant22_gde_binding_callbacksE, symObjAddr: 0x6070, symBinAddr: 0x16CCB8, symSize: 0x0 }
  - { offset: 0x80B6F, size: 0x8, addend: 0x0, symName: __ZN5godot15RenderingDevice22_gde_binding_callbacksE, symObjAddr: 0x60C8, symBinAddr: 0x16CD10, symSize: 0x0 }
  - { offset: 0x80B83, size: 0x8, addend: 0x0, symName: __ZN5godot15RenderingServer22_gde_binding_callbacksE, symObjAddr: 0x6120, symBinAddr: 0x16CD68, symSize: 0x0 }
  - { offset: 0x80B97, size: 0x8, addend: 0x0, symName: __ZN5godot4Time22_gde_binding_callbacksE, symObjAddr: 0x6138, symBinAddr: 0x16CD80, symSize: 0x0 }
  - { offset: 0x81634, size: 0x8, addend: 0x0, symName: __ZN6sentry8contexts19make_device_contextERKN5godot3RefINS_13RuntimeConfigEEE, symObjAddr: 0x0, symBinAddr: 0xD358, symSize: 0x7E0 }
  - { offset: 0x81C64, size: 0x8, addend: 0x0, symName: __ZN6sentry8contexts26make_device_context_updateEv, symObjAddr: 0x860, symBinAddr: 0xDBB8, symSize: 0x2D8 }
  - { offset: 0x81E99, size: 0x8, addend: 0x0, symName: __ZN6sentry8contexts16make_app_contextEv, symObjAddr: 0xB38, symBinAddr: 0xDE90, symSize: 0x344 }
  - { offset: 0x82016, size: 0x8, addend: 0x0, symName: __ZN6sentry8contexts16make_gpu_contextEv, symObjAddr: 0xE7C, symBinAddr: 0xE1D4, symSize: 0x380 }
  - { offset: 0x821AF, size: 0x8, addend: 0x0, symName: __ZN6sentry8contexts20make_culture_contextEv, symObjAddr: 0x11FC, symBinAddr: 0xE554, symSize: 0x248 }
  - { offset: 0x822F1, size: 0x8, addend: 0x0, symName: __ZN6sentry8contexts20make_display_contextEv, symObjAddr: 0x1444, symBinAddr: 0xE79C, symSize: 0x57C }
  - { offset: 0x8262E, size: 0x8, addend: 0x0, symName: __ZN6sentry8contexts25make_godot_engine_contextEv, symObjAddr: 0x19C0, symBinAddr: 0xED18, symSize: 0x400 }
  - { offset: 0x8285F, size: 0x8, addend: 0x0, symName: __ZN6sentry8contexts24make_environment_contextEv, symObjAddr: 0x1DC0, symBinAddr: 0xF118, symSize: 0x19C }
  - { offset: 0x82918, size: 0x8, addend: 0x0, symName: __ZN6sentry8contexts24make_performance_contextEv, symObjAddr: 0x1F5C, symBinAddr: 0xF2B4, symSize: 0x600 }
  - { offset: 0x82C70, size: 0x8, addend: 0x0, symName: __ZN6sentry8contexts19make_event_contextsEv, symObjAddr: 0x255C, symBinAddr: 0xF8B4, symSize: 0xA4 }
  - { offset: 0x82EBD, size: 0x8, addend: 0x0, symName: ___cxx_global_var_init, symObjAddr: 0x4DA8, symBinAddr: 0x10AFC, symSize: 0x4C }
  - { offset: 0x82F42, size: 0x8, addend: 0x0, symName: ___cxx_global_var_init.1, symObjAddr: 0x4DF4, symBinAddr: 0x10B48, symSize: 0x4C }
  - { offset: 0x82FC7, size: 0x8, addend: 0x0, symName: ___cxx_global_var_init.2, symObjAddr: 0x4E40, symBinAddr: 0x10B94, symSize: 0x4C }
  - { offset: 0x8304C, size: 0x8, addend: 0x0, symName: ___cxx_global_var_init.3, symObjAddr: 0x4E8C, symBinAddr: 0x10BE0, symSize: 0x4C }
  - { offset: 0x830D1, size: 0x8, addend: 0x0, symName: ___cxx_global_var_init.4, symObjAddr: 0x4ED8, symBinAddr: 0x10C2C, symSize: 0x4C }
  - { offset: 0x83156, size: 0x8, addend: 0x0, symName: ___cxx_global_var_init.5, symObjAddr: 0x4F24, symBinAddr: 0x10C78, symSize: 0x4C }
  - { offset: 0x831DB, size: 0x8, addend: 0x0, symName: ___cxx_global_var_init.6, symObjAddr: 0x4F70, symBinAddr: 0x10CC4, symSize: 0x4C }
  - { offset: 0x83260, size: 0x8, addend: 0x0, symName: ___cxx_global_var_init.7, symObjAddr: 0x4FBC, symBinAddr: 0x10D10, symSize: 0x4C }
  - { offset: 0x832E5, size: 0x8, addend: 0x0, symName: ___cxx_global_var_init.8, symObjAddr: 0x5008, symBinAddr: 0x10D5C, symSize: 0x4C }
  - { offset: 0x8336A, size: 0x8, addend: 0x0, symName: ___cxx_global_var_init.9, symObjAddr: 0x5054, symBinAddr: 0x10DA8, symSize: 0x4C }
  - { offset: 0x833EF, size: 0x8, addend: 0x0, symName: ___cxx_global_var_init.10, symObjAddr: 0x50A0, symBinAddr: 0x10DF4, symSize: 0x4C }
  - { offset: 0x83474, size: 0x8, addend: 0x0, symName: ___cxx_global_var_init.11, symObjAddr: 0x50EC, symBinAddr: 0x10E40, symSize: 0x4C }
  - { offset: 0x834F9, size: 0x8, addend: 0x0, symName: ___cxx_global_var_init.12, symObjAddr: 0x5138, symBinAddr: 0x10E8C, symSize: 0x4C }
  - { offset: 0x8357E, size: 0x8, addend: 0x0, symName: ___cxx_global_var_init.13, symObjAddr: 0x5184, symBinAddr: 0x10ED8, symSize: 0x4C }
  - { offset: 0x83603, size: 0x8, addend: 0x0, symName: ___cxx_global_var_init.14, symObjAddr: 0x51D0, symBinAddr: 0x10F24, symSize: 0x4C }
  - { offset: 0x83688, size: 0x8, addend: 0x0, symName: ___cxx_global_var_init.15, symObjAddr: 0x521C, symBinAddr: 0x10F70, symSize: 0x4C }
  - { offset: 0x8370D, size: 0x8, addend: 0x0, symName: ___cxx_global_var_init.16, symObjAddr: 0x5268, symBinAddr: 0x10FBC, symSize: 0x4C }
  - { offset: 0x83868, size: 0x8, addend: 0x0, symName: __ZN12_GLOBAL__N_129_screen_orientation_as_stringEi, symObjAddr: 0x7E0, symBinAddr: 0xDB38, symSize: 0x80 }
  - { offset: 0x83978, size: 0x8, addend: 0x0, symName: __ZN6sentry8contexts19make_device_contextERKN5godot3RefINS_13RuntimeConfigEEE.cold.3, symObjAddr: 0x4200, symBinAddr: 0xECFA4, symSize: 0x20 }
  - { offset: 0x83990, size: 0x8, addend: 0x0, symName: __ZN6sentry8contexts19make_device_contextERKN5godot3RefINS_13RuntimeConfigEEE.cold.2, symObjAddr: 0x41E0, symBinAddr: 0xECF84, symSize: 0x20 }
  - { offset: 0x839A8, size: 0x8, addend: 0x0, symName: __ZN6sentry8contexts19make_device_contextERKN5godot3RefINS_13RuntimeConfigEEE.cold.1, symObjAddr: 0x41C0, symBinAddr: 0xECF64, symSize: 0x20 }
  - { offset: 0x839C0, size: 0x8, addend: 0x0, symName: __ZN12_GLOBAL__N_129_screen_orientation_as_stringEi.cold.1, symObjAddr: 0x4220, symBinAddr: 0xECFC4, symSize: 0x20 }
  - { offset: 0x839D8, size: 0x8, addend: 0x0, symName: __ZN6sentry8contexts26make_device_context_updateEv.cold.2, symObjAddr: 0x4260, symBinAddr: 0xED004, symSize: 0x20 }
  - { offset: 0x839F0, size: 0x8, addend: 0x0, symName: __ZN6sentry8contexts26make_device_context_updateEv.cold.1, symObjAddr: 0x4240, symBinAddr: 0xECFE4, symSize: 0x20 }
  - { offset: 0x83A08, size: 0x8, addend: 0x0, symName: __ZN6sentry8contexts16make_app_contextEv.cold.3, symObjAddr: 0x42C0, symBinAddr: 0xED064, symSize: 0x20 }
  - { offset: 0x83A20, size: 0x8, addend: 0x0, symName: __ZN6sentry8contexts16make_app_contextEv.cold.2, symObjAddr: 0x42A0, symBinAddr: 0xED044, symSize: 0x20 }
  - { offset: 0x83A38, size: 0x8, addend: 0x0, symName: __ZN6sentry8contexts16make_app_contextEv.cold.1, symObjAddr: 0x4280, symBinAddr: 0xED024, symSize: 0x20 }
  - { offset: 0x83A50, size: 0x8, addend: 0x0, symName: __ZN6sentry8contexts16make_gpu_contextEv.cold.2, symObjAddr: 0x4320, symBinAddr: 0xED0C4, symSize: 0x40 }
  - { offset: 0x83A68, size: 0x8, addend: 0x0, symName: __ZN6sentry8contexts16make_gpu_contextEv.cold.1, symObjAddr: 0x42E0, symBinAddr: 0xED084, symSize: 0x40 }
  - { offset: 0x83A80, size: 0x8, addend: 0x0, symName: __ZN6sentry8contexts20make_culture_contextEv.cold.1, symObjAddr: 0x4360, symBinAddr: 0xED104, symSize: 0x20 }
  - { offset: 0x83ABD, size: 0x8, addend: 0x0, symName: __ZN6sentry8contexts20make_display_contextEv.cold.1, symObjAddr: 0x4380, symBinAddr: 0xED124, symSize: 0x20 }
  - { offset: 0x83AD5, size: 0x8, addend: 0x0, symName: __ZN6sentry8contexts25make_godot_engine_contextEv.cold.2, symObjAddr: 0x43C0, symBinAddr: 0xED164, symSize: 0x20 }
  - { offset: 0x83AED, size: 0x8, addend: 0x0, symName: __ZN6sentry8contexts25make_godot_engine_contextEv.cold.1, symObjAddr: 0x43A0, symBinAddr: 0xED144, symSize: 0x20 }
  - { offset: 0x83B05, size: 0x8, addend: 0x0, symName: __ZN6sentry8contexts24make_environment_contextEv.cold.1, symObjAddr: 0x43E0, symBinAddr: 0xED184, symSize: 0x20 }
  - { offset: 0x83B42, size: 0x8, addend: 0x0, symName: __ZN6sentry8contexts24make_performance_contextEv.cold.4, symObjAddr: 0x4460, symBinAddr: 0xED204, symSize: 0x20 }
  - { offset: 0x83B5A, size: 0x8, addend: 0x0, symName: __ZN6sentry8contexts24make_performance_contextEv.cold.3, symObjAddr: 0x4440, symBinAddr: 0xED1E4, symSize: 0x20 }
  - { offset: 0x83B72, size: 0x8, addend: 0x0, symName: __ZN6sentry8contexts24make_performance_contextEv.cold.2, symObjAddr: 0x4420, symBinAddr: 0xED1C4, symSize: 0x20 }
  - { offset: 0x83B8A, size: 0x8, addend: 0x0, symName: __ZN6sentry8contexts24make_performance_contextEv.cold.1, symObjAddr: 0x4400, symBinAddr: 0xED1A4, symSize: 0x20 }
  - { offset: 0x83BDB, size: 0x8, addend: 0x0, symName: __ZN5godot7HashMapINS_6StringENS_10DictionaryENS_20HashMapHasherDefaultENS_24HashMapComparatorDefaultIS1_EENS_21DefaultTypedAllocatorINS_14HashMapElementIS1_S2_EEEEEixERKS1_, symObjAddr: 0x2600, symBinAddr: 0xF958, symSize: 0x2B0 }
  - { offset: 0x843F9, size: 0x8, addend: 0x0, symName: __ZNK5godot7HashMapINS_6StringENS_10DictionaryENS_20HashMapHasherDefaultENS_24HashMapComparatorDefaultIS1_EENS_21DefaultTypedAllocatorINS_14HashMapElementIS1_S2_EEEEE11_lookup_posERKS1_Rj, symObjAddr: 0x3F0C, symBinAddr: 0x107F0, symSize: 0x128 }
  - { offset: 0x845FB, size: 0x8, addend: 0x0, symName: __ZN5godot7HashMapINS_6StringENS_10DictionaryENS_20HashMapHasherDefaultENS_24HashMapComparatorDefaultIS1_EENS_21DefaultTypedAllocatorINS_14HashMapElementIS1_S2_EEEEEixERKS1_.cold.1, symObjAddr: 0x4480, symBinAddr: 0xED224, symSize: 0x74 }
  - { offset: 0x84644, size: 0x8, addend: 0x0, symName: __ZN5godot7HashMapINS_6StringENS_10DictionaryENS_20HashMapHasherDefaultENS_24HashMapComparatorDefaultIS1_EENS_21DefaultTypedAllocatorINS_14HashMapElementIS1_S2_EEEEE18_resize_and_rehashEj, symObjAddr: 0x4034, symBinAddr: 0x10918, symSize: 0x18C }
  - { offset: 0x848C1, size: 0x8, addend: 0x0, symName: __ZN5godot7HashMapINS_6StringENS_10DictionaryENS_20HashMapHasherDefaultENS_24HashMapComparatorDefaultIS1_EENS_21DefaultTypedAllocatorINS_14HashMapElementIS1_S2_EEEEEixERKS1_.cold.2, symObjAddr: 0x44F4, symBinAddr: 0xED298, symSize: 0x40 }
  - { offset: 0x848F7, size: 0x8, addend: 0x0, symName: __ZN5godot8internal23EngineClassRegistrationINS_6ObjectEE8callbackEv.cold.1, symObjAddr: 0x4534, symBinAddr: 0xED2D8, symSize: 0x5C }
  - { offset: 0x84AC3, size: 0x8, addend: 0x0, symName: __ZN5godot6ObjectD1Ev.cold.1, symObjAddr: 0x4590, symBinAddr: 0xED334, symSize: 0x1C }
  - { offset: 0x84ADE, size: 0x8, addend: 0x0, symName: __ZN5godot6ObjectD1Ev.cold.1, symObjAddr: 0x4590, symBinAddr: 0xED334, symSize: 0x1C }
  - { offset: 0x84AF2, size: 0x8, addend: 0x0, symName: __ZN5godot6ObjectD1Ev.cold.1, symObjAddr: 0x4590, symBinAddr: 0xED334, symSize: 0x1C }
  - { offset: 0x84B06, size: 0x8, addend: 0x0, symName: __ZN5godot6ObjectD1Ev.cold.1, symObjAddr: 0x4590, symBinAddr: 0xED334, symSize: 0x1C }
  - { offset: 0x84B1B, size: 0x8, addend: 0x0, symName: __ZN5godot6ObjectD1Ev.cold.1, symObjAddr: 0x4590, symBinAddr: 0xED334, symSize: 0x1C }
  - { offset: 0x84B4B, size: 0x8, addend: 0x0, symName: __ZN5godot6ObjectD0Ev.cold.1, symObjAddr: 0x45AC, symBinAddr: 0xED350, symSize: 0x1C }
  - { offset: 0x84B66, size: 0x8, addend: 0x0, symName: __ZN5godot6ObjectD0Ev.cold.1, symObjAddr: 0x45AC, symBinAddr: 0xED350, symSize: 0x1C }
  - { offset: 0x84B7A, size: 0x8, addend: 0x0, symName: __ZN5godot6ObjectD0Ev.cold.1, symObjAddr: 0x45AC, symBinAddr: 0xED350, symSize: 0x1C }
  - { offset: 0x84B8E, size: 0x8, addend: 0x0, symName: __ZN5godot6ObjectD0Ev.cold.1, symObjAddr: 0x45AC, symBinAddr: 0xED350, symSize: 0x1C }
  - { offset: 0x84BA2, size: 0x8, addend: 0x0, symName: __ZN5godot6ObjectD0Ev.cold.1, symObjAddr: 0x45AC, symBinAddr: 0xED350, symSize: 0x1C }
  - { offset: 0x84BB7, size: 0x8, addend: 0x0, symName: __ZN5godot6ObjectD0Ev.cold.1, symObjAddr: 0x45AC, symBinAddr: 0xED350, symSize: 0x1C }
  - { offset: 0x84BCE, size: 0x8, addend: 0x0, symName: __ZN5godot7WrappedD1Ev.cold.1, symObjAddr: 0x45C8, symBinAddr: 0xED36C, symSize: 0x1C }
  - { offset: 0x84BE9, size: 0x8, addend: 0x0, symName: __ZN5godot7WrappedD1Ev.cold.1, symObjAddr: 0x45C8, symBinAddr: 0xED36C, symSize: 0x1C }
  - { offset: 0x84BFD, size: 0x8, addend: 0x0, symName: __ZN5godot7WrappedD1Ev.cold.1, symObjAddr: 0x45C8, symBinAddr: 0xED36C, symSize: 0x1C }
  - { offset: 0x84C12, size: 0x8, addend: 0x0, symName: __ZN5godot7WrappedD1Ev.cold.1, symObjAddr: 0x45C8, symBinAddr: 0xED36C, symSize: 0x1C }
  - { offset: 0x84C41, size: 0x8, addend: 0x0, symName: __ZN5godot7WrappedD0Ev.cold.1, symObjAddr: 0x45E4, symBinAddr: 0xED388, symSize: 0x1C }
  - { offset: 0x84C5C, size: 0x8, addend: 0x0, symName: __ZN5godot7WrappedD0Ev.cold.1, symObjAddr: 0x45E4, symBinAddr: 0xED388, symSize: 0x1C }
  - { offset: 0x84C70, size: 0x8, addend: 0x0, symName: __ZN5godot7WrappedD0Ev.cold.1, symObjAddr: 0x45E4, symBinAddr: 0xED388, symSize: 0x1C }
  - { offset: 0x84C84, size: 0x8, addend: 0x0, symName: __ZN5godot7WrappedD0Ev.cold.1, symObjAddr: 0x45E4, symBinAddr: 0xED388, symSize: 0x1C }
  - { offset: 0x84C99, size: 0x8, addend: 0x0, symName: __ZN5godot7WrappedD0Ev.cold.1, symObjAddr: 0x45E4, symBinAddr: 0xED388, symSize: 0x1C }
  - { offset: 0x84D1F, size: 0x8, addend: 0x0, symName: __ZN5godot4ListINS_12PropertyInfoENS_16DefaultAllocatorEE5_Data5eraseEPNS3_7ElementE.cold.2, symObjAddr: 0x4620, symBinAddr: 0xED3C4, symSize: 0x20 }
  - { offset: 0x84D37, size: 0x8, addend: 0x0, symName: __ZN5godot4ListINS_12PropertyInfoENS_16DefaultAllocatorEE5_Data5eraseEPNS3_7ElementE.cold.1, symObjAddr: 0x4600, symBinAddr: 0xED3A4, symSize: 0x20 }
  - { offset: 0x84D56, size: 0x8, addend: 0x0, symName: __ZN5godot8internal23EngineClassRegistrationINS_16ClassDBSingletonEE8callbackEv.cold.1, symObjAddr: 0x4640, symBinAddr: 0xED3E4, symSize: 0x5C }
  - { offset: 0x84D8B, size: 0x8, addend: 0x0, symName: __ZN5godot8internal23EngineClassRegistrationINS_10RefCountedEE8callbackEv.cold.1, symObjAddr: 0x469C, symBinAddr: 0xED440, symSize: 0x5C }
  - { offset: 0x84DFA, size: 0x8, addend: 0x0, symName: __ZN5godot10RefCountedD1Ev.cold.1, symObjAddr: 0x46F8, symBinAddr: 0xED49C, symSize: 0x1C }
  - { offset: 0x84E15, size: 0x8, addend: 0x0, symName: __ZN5godot10RefCountedD1Ev.cold.1, symObjAddr: 0x46F8, symBinAddr: 0xED49C, symSize: 0x1C }
  - { offset: 0x84E29, size: 0x8, addend: 0x0, symName: __ZN5godot10RefCountedD1Ev.cold.1, symObjAddr: 0x46F8, symBinAddr: 0xED49C, symSize: 0x1C }
  - { offset: 0x84E3D, size: 0x8, addend: 0x0, symName: __ZN5godot10RefCountedD1Ev.cold.1, symObjAddr: 0x46F8, symBinAddr: 0xED49C, symSize: 0x1C }
  - { offset: 0x84E51, size: 0x8, addend: 0x0, symName: __ZN5godot10RefCountedD1Ev.cold.1, symObjAddr: 0x46F8, symBinAddr: 0xED49C, symSize: 0x1C }
  - { offset: 0x84E66, size: 0x8, addend: 0x0, symName: __ZN5godot10RefCountedD1Ev.cold.1, symObjAddr: 0x46F8, symBinAddr: 0xED49C, symSize: 0x1C }
  - { offset: 0x84E99, size: 0x8, addend: 0x0, symName: __ZN5godot10RefCountedD0Ev.cold.1, symObjAddr: 0x4714, symBinAddr: 0xED4B8, symSize: 0x1C }
  - { offset: 0x84EB4, size: 0x8, addend: 0x0, symName: __ZN5godot10RefCountedD0Ev.cold.1, symObjAddr: 0x4714, symBinAddr: 0xED4B8, symSize: 0x1C }
  - { offset: 0x84EC8, size: 0x8, addend: 0x0, symName: __ZN5godot10RefCountedD0Ev.cold.1, symObjAddr: 0x4714, symBinAddr: 0xED4B8, symSize: 0x1C }
  - { offset: 0x84EDC, size: 0x8, addend: 0x0, symName: __ZN5godot10RefCountedD0Ev.cold.1, symObjAddr: 0x4714, symBinAddr: 0xED4B8, symSize: 0x1C }
  - { offset: 0x84EF0, size: 0x8, addend: 0x0, symName: __ZN5godot10RefCountedD0Ev.cold.1, symObjAddr: 0x4714, symBinAddr: 0xED4B8, symSize: 0x1C }
  - { offset: 0x84F04, size: 0x8, addend: 0x0, symName: __ZN5godot10RefCountedD0Ev.cold.1, symObjAddr: 0x4714, symBinAddr: 0xED4B8, symSize: 0x1C }
  - { offset: 0x84F19, size: 0x8, addend: 0x0, symName: __ZN5godot10RefCountedD0Ev.cold.1, symObjAddr: 0x4714, symBinAddr: 0xED4B8, symSize: 0x1C }
  - { offset: 0x84F38, size: 0x8, addend: 0x0, symName: __ZN5godot8internal23EngineClassRegistrationINS_10ConfigFileEE8callbackEv.cold.1, symObjAddr: 0x4730, symBinAddr: 0xED4D4, symSize: 0x5C }
  - { offset: 0x84F82, size: 0x8, addend: 0x0, symName: __ZN5godot10ConfigFileD1Ev.cold.1, symObjAddr: 0x478C, symBinAddr: 0xED530, symSize: 0x1C }
  - { offset: 0x84F9D, size: 0x8, addend: 0x0, symName: __ZN5godot10ConfigFileD1Ev.cold.1, symObjAddr: 0x478C, symBinAddr: 0xED530, symSize: 0x1C }
  - { offset: 0x84FB1, size: 0x8, addend: 0x0, symName: __ZN5godot10ConfigFileD1Ev.cold.1, symObjAddr: 0x478C, symBinAddr: 0xED530, symSize: 0x1C }
  - { offset: 0x84FC5, size: 0x8, addend: 0x0, symName: __ZN5godot10ConfigFileD1Ev.cold.1, symObjAddr: 0x478C, symBinAddr: 0xED530, symSize: 0x1C }
  - { offset: 0x84FD9, size: 0x8, addend: 0x0, symName: __ZN5godot10ConfigFileD1Ev.cold.1, symObjAddr: 0x478C, symBinAddr: 0xED530, symSize: 0x1C }
  - { offset: 0x84FED, size: 0x8, addend: 0x0, symName: __ZN5godot10ConfigFileD1Ev.cold.1, symObjAddr: 0x478C, symBinAddr: 0xED530, symSize: 0x1C }
  - { offset: 0x85002, size: 0x8, addend: 0x0, symName: __ZN5godot10ConfigFileD1Ev.cold.1, symObjAddr: 0x478C, symBinAddr: 0xED530, symSize: 0x1C }
  - { offset: 0x85036, size: 0x8, addend: 0x0, symName: __ZN5godot10ConfigFileD0Ev.cold.1, symObjAddr: 0x47A8, symBinAddr: 0xED54C, symSize: 0x1C }
  - { offset: 0x85051, size: 0x8, addend: 0x0, symName: __ZN5godot10ConfigFileD0Ev.cold.1, symObjAddr: 0x47A8, symBinAddr: 0xED54C, symSize: 0x1C }
  - { offset: 0x85065, size: 0x8, addend: 0x0, symName: __ZN5godot10ConfigFileD0Ev.cold.1, symObjAddr: 0x47A8, symBinAddr: 0xED54C, symSize: 0x1C }
  - { offset: 0x85079, size: 0x8, addend: 0x0, symName: __ZN5godot10ConfigFileD0Ev.cold.1, symObjAddr: 0x47A8, symBinAddr: 0xED54C, symSize: 0x1C }
  - { offset: 0x8508D, size: 0x8, addend: 0x0, symName: __ZN5godot10ConfigFileD0Ev.cold.1, symObjAddr: 0x47A8, symBinAddr: 0xED54C, symSize: 0x1C }
  - { offset: 0x850A1, size: 0x8, addend: 0x0, symName: __ZN5godot10ConfigFileD0Ev.cold.1, symObjAddr: 0x47A8, symBinAddr: 0xED54C, symSize: 0x1C }
  - { offset: 0x850B5, size: 0x8, addend: 0x0, symName: __ZN5godot10ConfigFileD0Ev.cold.1, symObjAddr: 0x47A8, symBinAddr: 0xED54C, symSize: 0x1C }
  - { offset: 0x850CA, size: 0x8, addend: 0x0, symName: __ZN5godot10ConfigFileD0Ev.cold.1, symObjAddr: 0x47A8, symBinAddr: 0xED54C, symSize: 0x1C }
  - { offset: 0x850EA, size: 0x8, addend: 0x0, symName: __ZN5godot8internal23EngineClassRegistrationINS_6LoggerEE8callbackEv.cold.1, symObjAddr: 0x47C4, symBinAddr: 0xED568, symSize: 0x5C }
  - { offset: 0x8511F, size: 0x8, addend: 0x0, symName: __ZN5godot8internal23EngineClassRegistrationINS_9DirAccessEE8callbackEv, symObjAddr: 0x318C, symBinAddr: 0xFC08, symSize: 0x48 }
  - { offset: 0x85169, size: 0x8, addend: 0x0, symName: __ZN5godot8internal23EngineClassRegistrationINS_9DirAccessEE8callbackEv.cold.1, symObjAddr: 0x4820, symBinAddr: 0xED5C4, symSize: 0x5C }
  - { offset: 0x851E1, size: 0x8, addend: 0x0, symName: __ZN5godot9DirAccess28_gde_binding_create_callbackEPvS1_, symObjAddr: 0x31D4, symBinAddr: 0xFC50, symSize: 0x44 }
  - { offset: 0x852A0, size: 0x8, addend: 0x0, symName: __ZN5godot9DirAccess26_gde_binding_free_callbackEPvS1_S1_, symObjAddr: 0x3218, symBinAddr: 0xFC94, symSize: 0x34 }
  - { offset: 0x852F5, size: 0x8, addend: 0x0, symName: __ZN5godot9DirAccess31_gde_binding_reference_callbackEPvS1_h, symObjAddr: 0x324C, symBinAddr: 0xFCC8, symSize: 0x8 }
  - { offset: 0x85351, size: 0x8, addend: 0x0, symName: __ZN5godot9DirAccessD1Ev, symObjAddr: 0x3254, symBinAddr: 0xFCD0, symSize: 0x8C }
  - { offset: 0x854EF, size: 0x8, addend: 0x0, symName: __ZN5godot9DirAccessD1Ev.cold.1, symObjAddr: 0x487C, symBinAddr: 0xED620, symSize: 0x1C }
  - { offset: 0x8550A, size: 0x8, addend: 0x0, symName: __ZN5godot9DirAccessD1Ev.cold.1, symObjAddr: 0x487C, symBinAddr: 0xED620, symSize: 0x1C }
  - { offset: 0x8551E, size: 0x8, addend: 0x0, symName: __ZN5godot9DirAccessD1Ev.cold.1, symObjAddr: 0x487C, symBinAddr: 0xED620, symSize: 0x1C }
  - { offset: 0x85532, size: 0x8, addend: 0x0, symName: __ZN5godot9DirAccessD1Ev.cold.1, symObjAddr: 0x487C, symBinAddr: 0xED620, symSize: 0x1C }
  - { offset: 0x85546, size: 0x8, addend: 0x0, symName: __ZN5godot9DirAccessD1Ev.cold.1, symObjAddr: 0x487C, symBinAddr: 0xED620, symSize: 0x1C }
  - { offset: 0x8555A, size: 0x8, addend: 0x0, symName: __ZN5godot9DirAccessD1Ev.cold.1, symObjAddr: 0x487C, symBinAddr: 0xED620, symSize: 0x1C }
  - { offset: 0x8556F, size: 0x8, addend: 0x0, symName: __ZN5godot9DirAccessD1Ev.cold.1, symObjAddr: 0x487C, symBinAddr: 0xED620, symSize: 0x1C }
  - { offset: 0x855A3, size: 0x8, addend: 0x0, symName: __ZN5godot9DirAccessD0Ev, symObjAddr: 0x32E0, symBinAddr: 0xFD5C, symSize: 0x74 }
  - { offset: 0x856EE, size: 0x8, addend: 0x0, symName: __ZN5godot9DirAccessD0Ev.cold.1, symObjAddr: 0x4898, symBinAddr: 0xED63C, symSize: 0x1C }
  - { offset: 0x85709, size: 0x8, addend: 0x0, symName: __ZN5godot9DirAccessD0Ev.cold.1, symObjAddr: 0x4898, symBinAddr: 0xED63C, symSize: 0x1C }
  - { offset: 0x8571D, size: 0x8, addend: 0x0, symName: __ZN5godot9DirAccessD0Ev.cold.1, symObjAddr: 0x4898, symBinAddr: 0xED63C, symSize: 0x1C }
  - { offset: 0x85731, size: 0x8, addend: 0x0, symName: __ZN5godot9DirAccessD0Ev.cold.1, symObjAddr: 0x4898, symBinAddr: 0xED63C, symSize: 0x1C }
  - { offset: 0x85745, size: 0x8, addend: 0x0, symName: __ZN5godot9DirAccessD0Ev.cold.1, symObjAddr: 0x4898, symBinAddr: 0xED63C, symSize: 0x1C }
  - { offset: 0x85759, size: 0x8, addend: 0x0, symName: __ZN5godot9DirAccessD0Ev.cold.1, symObjAddr: 0x4898, symBinAddr: 0xED63C, symSize: 0x1C }
  - { offset: 0x8576D, size: 0x8, addend: 0x0, symName: __ZN5godot9DirAccessD0Ev.cold.1, symObjAddr: 0x4898, symBinAddr: 0xED63C, symSize: 0x1C }
  - { offset: 0x85782, size: 0x8, addend: 0x0, symName: __ZN5godot9DirAccessD0Ev.cold.1, symObjAddr: 0x4898, symBinAddr: 0xED63C, symSize: 0x1C }
  - { offset: 0x857A2, size: 0x8, addend: 0x0, symName: __ZN5godot8internal23EngineClassRegistrationINS_13DisplayServerEE8callbackEv.cold.1, symObjAddr: 0x48B4, symBinAddr: 0xED658, symSize: 0x5C }
  - { offset: 0x857D7, size: 0x8, addend: 0x0, symName: __ZN5godot8internal23EngineClassRegistrationINS_6EngineEE8callbackEv.cold.1, symObjAddr: 0x4910, symBinAddr: 0xED6B4, symSize: 0x5C }
  - { offset: 0x8580C, size: 0x8, addend: 0x0, symName: __ZN5godot8internal23EngineClassRegistrationINS_2OSEE8callbackEv, symObjAddr: 0x34EC, symBinAddr: 0xFDD0, symSize: 0x48 }
  - { offset: 0x85856, size: 0x8, addend: 0x0, symName: __ZN5godot8internal23EngineClassRegistrationINS_2OSEE8callbackEv.cold.1, symObjAddr: 0x496C, symBinAddr: 0xED710, symSize: 0x5C }
  - { offset: 0x858CE, size: 0x8, addend: 0x0, symName: __ZN5godot2OS28_gde_binding_create_callbackEPvS1_, symObjAddr: 0x3534, symBinAddr: 0xFE18, symSize: 0x48 }
  - { offset: 0x8596A, size: 0x8, addend: 0x0, symName: __ZN5godot2OS26_gde_binding_free_callbackEPvS1_S1_, symObjAddr: 0x357C, symBinAddr: 0xFE60, symSize: 0x34 }
  - { offset: 0x859BF, size: 0x8, addend: 0x0, symName: __ZN5godot2OS31_gde_binding_reference_callbackEPvS1_h, symObjAddr: 0x35B0, symBinAddr: 0xFE94, symSize: 0x8 }
  - { offset: 0x85A06, size: 0x8, addend: 0x0, symName: __ZN5godot8internal23EngineClassRegistrationINS_11PerformanceEE8callbackEv, symObjAddr: 0x35B8, symBinAddr: 0xFE9C, symSize: 0x48 }
  - { offset: 0x85A50, size: 0x8, addend: 0x0, symName: __ZN5godot8internal23EngineClassRegistrationINS_11PerformanceEE8callbackEv.cold.1, symObjAddr: 0x49C8, symBinAddr: 0xED76C, symSize: 0x5C }
  - { offset: 0x85AC8, size: 0x8, addend: 0x0, symName: __ZN5godot11Performance28_gde_binding_create_callbackEPvS1_, symObjAddr: 0x3600, symBinAddr: 0xFEE4, symSize: 0x48 }
  - { offset: 0x85B64, size: 0x8, addend: 0x0, symName: __ZN5godot11Performance26_gde_binding_free_callbackEPvS1_S1_, symObjAddr: 0x3648, symBinAddr: 0xFF2C, symSize: 0x34 }
  - { offset: 0x85BB9, size: 0x8, addend: 0x0, symName: __ZN5godot11Performance31_gde_binding_reference_callbackEPvS1_h, symObjAddr: 0x367C, symBinAddr: 0xFF60, symSize: 0x8 }
  - { offset: 0x85C00, size: 0x8, addend: 0x0, symName: __ZN5godot8internal23EngineClassRegistrationINS_15ProjectSettingsEE8callbackEv, symObjAddr: 0x3684, symBinAddr: 0xFF68, symSize: 0x48 }
  - { offset: 0x85C4A, size: 0x8, addend: 0x0, symName: __ZN5godot8internal23EngineClassRegistrationINS_15ProjectSettingsEE8callbackEv.cold.1, symObjAddr: 0x4A24, symBinAddr: 0xED7C8, symSize: 0x5C }
  - { offset: 0x85CC2, size: 0x8, addend: 0x0, symName: __ZN5godot15ProjectSettings28_gde_binding_create_callbackEPvS1_, symObjAddr: 0x36CC, symBinAddr: 0xFFB0, symSize: 0x48 }
  - { offset: 0x85D5E, size: 0x8, addend: 0x0, symName: __ZN5godot15ProjectSettings26_gde_binding_free_callbackEPvS1_S1_, symObjAddr: 0x3714, symBinAddr: 0xFFF8, symSize: 0x34 }
  - { offset: 0x85DB3, size: 0x8, addend: 0x0, symName: __ZN5godot15ProjectSettings31_gde_binding_reference_callbackEPvS1_h, symObjAddr: 0x3748, symBinAddr: 0x1002C, symSize: 0x8 }
  - { offset: 0x85DFA, size: 0x8, addend: 0x0, symName: __ZN5godot8internal23EngineClassRegistrationINS_8ResourceEE8callbackEv, symObjAddr: 0x3750, symBinAddr: 0x10034, symSize: 0x48 }
  - { offset: 0x85E44, size: 0x8, addend: 0x0, symName: __ZN5godot8internal23EngineClassRegistrationINS_8ResourceEE8callbackEv.cold.1, symObjAddr: 0x4A80, symBinAddr: 0xED824, symSize: 0x5C }
  - { offset: 0x85EBC, size: 0x8, addend: 0x0, symName: __ZN5godot8Resource28_gde_binding_create_callbackEPvS1_, symObjAddr: 0x3798, symBinAddr: 0x1007C, symSize: 0x48 }
  - { offset: 0x85F7B, size: 0x8, addend: 0x0, symName: __ZN5godot8Resource26_gde_binding_free_callbackEPvS1_S1_, symObjAddr: 0x37E0, symBinAddr: 0x100C4, symSize: 0x34 }
  - { offset: 0x85FD0, size: 0x8, addend: 0x0, symName: __ZN5godot8Resource31_gde_binding_reference_callbackEPvS1_h, symObjAddr: 0x3814, symBinAddr: 0x100F8, symSize: 0x8 }
  - { offset: 0x86017, size: 0x8, addend: 0x0, symName: __ZN5godot8internal23EngineClassRegistrationINS_5ImageEE8callbackEv, symObjAddr: 0x381C, symBinAddr: 0x10100, symSize: 0x48 }
  - { offset: 0x86061, size: 0x8, addend: 0x0, symName: __ZN5godot8internal23EngineClassRegistrationINS_5ImageEE8callbackEv.cold.1, symObjAddr: 0x4ADC, symBinAddr: 0xED880, symSize: 0x5C }
  - { offset: 0x860D9, size: 0x8, addend: 0x0, symName: __ZN5godot5Image28_gde_binding_create_callbackEPvS1_, symObjAddr: 0x3864, symBinAddr: 0x10148, symSize: 0x44 }
  - { offset: 0x861BB, size: 0x8, addend: 0x0, symName: __ZN5godot5Image26_gde_binding_free_callbackEPvS1_S1_, symObjAddr: 0x38A8, symBinAddr: 0x1018C, symSize: 0x34 }
  - { offset: 0x86210, size: 0x8, addend: 0x0, symName: __ZN5godot5Image31_gde_binding_reference_callbackEPvS1_h, symObjAddr: 0x38DC, symBinAddr: 0x101C0, symSize: 0x8 }
  - { offset: 0x86288, size: 0x8, addend: 0x0, symName: __ZN5godot5ImageD1Ev, symObjAddr: 0x38E4, symBinAddr: 0x101C8, symSize: 0x8C }
  - { offset: 0x8643C, size: 0x8, addend: 0x0, symName: __ZN5godot5ImageD1Ev.cold.1, symObjAddr: 0x4B38, symBinAddr: 0xED8DC, symSize: 0x1C }
  - { offset: 0x86457, size: 0x8, addend: 0x0, symName: __ZN5godot5ImageD1Ev.cold.1, symObjAddr: 0x4B38, symBinAddr: 0xED8DC, symSize: 0x1C }
  - { offset: 0x8646B, size: 0x8, addend: 0x0, symName: __ZN5godot5ImageD1Ev.cold.1, symObjAddr: 0x4B38, symBinAddr: 0xED8DC, symSize: 0x1C }
  - { offset: 0x8647F, size: 0x8, addend: 0x0, symName: __ZN5godot5ImageD1Ev.cold.1, symObjAddr: 0x4B38, symBinAddr: 0xED8DC, symSize: 0x1C }
  - { offset: 0x86493, size: 0x8, addend: 0x0, symName: __ZN5godot5ImageD1Ev.cold.1, symObjAddr: 0x4B38, symBinAddr: 0xED8DC, symSize: 0x1C }
  - { offset: 0x864A7, size: 0x8, addend: 0x0, symName: __ZN5godot5ImageD1Ev.cold.1, symObjAddr: 0x4B38, symBinAddr: 0xED8DC, symSize: 0x1C }
  - { offset: 0x864BB, size: 0x8, addend: 0x0, symName: __ZN5godot5ImageD1Ev.cold.1, symObjAddr: 0x4B38, symBinAddr: 0xED8DC, symSize: 0x1C }
  - { offset: 0x864D0, size: 0x8, addend: 0x0, symName: __ZN5godot5ImageD1Ev.cold.1, symObjAddr: 0x4B38, symBinAddr: 0xED8DC, symSize: 0x1C }
  - { offset: 0x86505, size: 0x8, addend: 0x0, symName: __ZN5godot5ImageD0Ev, symObjAddr: 0x3970, symBinAddr: 0x10254, symSize: 0x74 }
  - { offset: 0x86666, size: 0x8, addend: 0x0, symName: __ZN5godot5ImageD0Ev.cold.1, symObjAddr: 0x4B54, symBinAddr: 0xED8F8, symSize: 0x1C }
  - { offset: 0x86681, size: 0x8, addend: 0x0, symName: __ZN5godot5ImageD0Ev.cold.1, symObjAddr: 0x4B54, symBinAddr: 0xED8F8, symSize: 0x1C }
  - { offset: 0x86695, size: 0x8, addend: 0x0, symName: __ZN5godot5ImageD0Ev.cold.1, symObjAddr: 0x4B54, symBinAddr: 0xED8F8, symSize: 0x1C }
  - { offset: 0x866A9, size: 0x8, addend: 0x0, symName: __ZN5godot5ImageD0Ev.cold.1, symObjAddr: 0x4B54, symBinAddr: 0xED8F8, symSize: 0x1C }
  - { offset: 0x866BD, size: 0x8, addend: 0x0, symName: __ZN5godot5ImageD0Ev.cold.1, symObjAddr: 0x4B54, symBinAddr: 0xED8F8, symSize: 0x1C }
  - { offset: 0x866D1, size: 0x8, addend: 0x0, symName: __ZN5godot5ImageD0Ev.cold.1, symObjAddr: 0x4B54, symBinAddr: 0xED8F8, symSize: 0x1C }
  - { offset: 0x866E5, size: 0x8, addend: 0x0, symName: __ZN5godot5ImageD0Ev.cold.1, symObjAddr: 0x4B54, symBinAddr: 0xED8F8, symSize: 0x1C }
  - { offset: 0x866F9, size: 0x8, addend: 0x0, symName: __ZN5godot5ImageD0Ev.cold.1, symObjAddr: 0x4B54, symBinAddr: 0xED8F8, symSize: 0x1C }
  - { offset: 0x8670E, size: 0x8, addend: 0x0, symName: __ZN5godot5ImageD0Ev.cold.1, symObjAddr: 0x4B54, symBinAddr: 0xED8F8, symSize: 0x1C }
  - { offset: 0x8672F, size: 0x8, addend: 0x0, symName: __ZN5godot8internal23EngineClassRegistrationINS_32RDPipelineSpecializationConstantEE8callbackEv, symObjAddr: 0x39E4, symBinAddr: 0x102C8, symSize: 0x48 }
  - { offset: 0x86779, size: 0x8, addend: 0x0, symName: __ZN5godot8internal23EngineClassRegistrationINS_32RDPipelineSpecializationConstantEE8callbackEv.cold.1, symObjAddr: 0x4B70, symBinAddr: 0xED914, symSize: 0x5C }
  - { offset: 0x867F1, size: 0x8, addend: 0x0, symName: __ZN5godot32RDPipelineSpecializationConstant28_gde_binding_create_callbackEPvS1_, symObjAddr: 0x3A2C, symBinAddr: 0x10310, symSize: 0x44 }
  - { offset: 0x868B0, size: 0x8, addend: 0x0, symName: __ZN5godot32RDPipelineSpecializationConstant26_gde_binding_free_callbackEPvS1_S1_, symObjAddr: 0x3A70, symBinAddr: 0x10354, symSize: 0x34 }
  - { offset: 0x86905, size: 0x8, addend: 0x0, symName: __ZN5godot32RDPipelineSpecializationConstant31_gde_binding_reference_callbackEPvS1_h, symObjAddr: 0x3AA4, symBinAddr: 0x10388, symSize: 0x8 }
  - { offset: 0x86961, size: 0x8, addend: 0x0, symName: __ZN5godot32RDPipelineSpecializationConstantD1Ev, symObjAddr: 0x3AAC, symBinAddr: 0x10390, symSize: 0x8C }
  - { offset: 0x86AFF, size: 0x8, addend: 0x0, symName: __ZN5godot32RDPipelineSpecializationConstantD1Ev.cold.1, symObjAddr: 0x4BCC, symBinAddr: 0xED970, symSize: 0x1C }
  - { offset: 0x86B1A, size: 0x8, addend: 0x0, symName: __ZN5godot32RDPipelineSpecializationConstantD1Ev.cold.1, symObjAddr: 0x4BCC, symBinAddr: 0xED970, symSize: 0x1C }
  - { offset: 0x86B2E, size: 0x8, addend: 0x0, symName: __ZN5godot32RDPipelineSpecializationConstantD1Ev.cold.1, symObjAddr: 0x4BCC, symBinAddr: 0xED970, symSize: 0x1C }
  - { offset: 0x86B42, size: 0x8, addend: 0x0, symName: __ZN5godot32RDPipelineSpecializationConstantD1Ev.cold.1, symObjAddr: 0x4BCC, symBinAddr: 0xED970, symSize: 0x1C }
  - { offset: 0x86B56, size: 0x8, addend: 0x0, symName: __ZN5godot32RDPipelineSpecializationConstantD1Ev.cold.1, symObjAddr: 0x4BCC, symBinAddr: 0xED970, symSize: 0x1C }
  - { offset: 0x86B6A, size: 0x8, addend: 0x0, symName: __ZN5godot32RDPipelineSpecializationConstantD1Ev.cold.1, symObjAddr: 0x4BCC, symBinAddr: 0xED970, symSize: 0x1C }
  - { offset: 0x86B7F, size: 0x8, addend: 0x0, symName: __ZN5godot32RDPipelineSpecializationConstantD1Ev.cold.1, symObjAddr: 0x4BCC, symBinAddr: 0xED970, symSize: 0x1C }
  - { offset: 0x86BB3, size: 0x8, addend: 0x0, symName: __ZN5godot32RDPipelineSpecializationConstantD0Ev, symObjAddr: 0x3B38, symBinAddr: 0x1041C, symSize: 0x74 }
  - { offset: 0x86CFE, size: 0x8, addend: 0x0, symName: __ZN5godot32RDPipelineSpecializationConstantD0Ev.cold.1, symObjAddr: 0x4BE8, symBinAddr: 0xED98C, symSize: 0x1C }
  - { offset: 0x86D19, size: 0x8, addend: 0x0, symName: __ZN5godot32RDPipelineSpecializationConstantD0Ev.cold.1, symObjAddr: 0x4BE8, symBinAddr: 0xED98C, symSize: 0x1C }
  - { offset: 0x86D2D, size: 0x8, addend: 0x0, symName: __ZN5godot32RDPipelineSpecializationConstantD0Ev.cold.1, symObjAddr: 0x4BE8, symBinAddr: 0xED98C, symSize: 0x1C }
  - { offset: 0x86D41, size: 0x8, addend: 0x0, symName: __ZN5godot32RDPipelineSpecializationConstantD0Ev.cold.1, symObjAddr: 0x4BE8, symBinAddr: 0xED98C, symSize: 0x1C }
  - { offset: 0x86D55, size: 0x8, addend: 0x0, symName: __ZN5godot32RDPipelineSpecializationConstantD0Ev.cold.1, symObjAddr: 0x4BE8, symBinAddr: 0xED98C, symSize: 0x1C }
  - { offset: 0x86D69, size: 0x8, addend: 0x0, symName: __ZN5godot32RDPipelineSpecializationConstantD0Ev.cold.1, symObjAddr: 0x4BE8, symBinAddr: 0xED98C, symSize: 0x1C }
  - { offset: 0x86D7D, size: 0x8, addend: 0x0, symName: __ZN5godot32RDPipelineSpecializationConstantD0Ev.cold.1, symObjAddr: 0x4BE8, symBinAddr: 0xED98C, symSize: 0x1C }
  - { offset: 0x86D92, size: 0x8, addend: 0x0, symName: __ZN5godot32RDPipelineSpecializationConstantD0Ev.cold.1, symObjAddr: 0x4BE8, symBinAddr: 0xED98C, symSize: 0x1C }
  - { offset: 0x86DB2, size: 0x8, addend: 0x0, symName: __ZN5godot8internal23EngineClassRegistrationINS_15RenderingDeviceEE8callbackEv, symObjAddr: 0x3BAC, symBinAddr: 0x10490, symSize: 0x48 }
  - { offset: 0x86DFC, size: 0x8, addend: 0x0, symName: __ZN5godot8internal23EngineClassRegistrationINS_15RenderingDeviceEE8callbackEv.cold.1, symObjAddr: 0x4C04, symBinAddr: 0xED9A8, symSize: 0x5C }
  - { offset: 0x86E74, size: 0x8, addend: 0x0, symName: __ZN5godot15RenderingDevice28_gde_binding_create_callbackEPvS1_, symObjAddr: 0x3BF4, symBinAddr: 0x104D8, symSize: 0x44 }
  - { offset: 0x86F10, size: 0x8, addend: 0x0, symName: __ZN5godot15RenderingDevice26_gde_binding_free_callbackEPvS1_S1_, symObjAddr: 0x3C38, symBinAddr: 0x1051C, symSize: 0x34 }
  - { offset: 0x86F65, size: 0x8, addend: 0x0, symName: __ZN5godot15RenderingDevice31_gde_binding_reference_callbackEPvS1_h, symObjAddr: 0x3C6C, symBinAddr: 0x10550, symSize: 0x8 }
  - { offset: 0x86FC1, size: 0x8, addend: 0x0, symName: __ZN5godot15RenderingDeviceD1Ev, symObjAddr: 0x3C74, symBinAddr: 0x10558, symSize: 0x8C }
  - { offset: 0x87149, size: 0x8, addend: 0x0, symName: __ZN5godot15RenderingDeviceD1Ev.cold.1, symObjAddr: 0x4C60, symBinAddr: 0xEDA04, symSize: 0x1C }
  - { offset: 0x87164, size: 0x8, addend: 0x0, symName: __ZN5godot15RenderingDeviceD1Ev.cold.1, symObjAddr: 0x4C60, symBinAddr: 0xEDA04, symSize: 0x1C }
  - { offset: 0x87178, size: 0x8, addend: 0x0, symName: __ZN5godot15RenderingDeviceD1Ev.cold.1, symObjAddr: 0x4C60, symBinAddr: 0xEDA04, symSize: 0x1C }
  - { offset: 0x8718C, size: 0x8, addend: 0x0, symName: __ZN5godot15RenderingDeviceD1Ev.cold.1, symObjAddr: 0x4C60, symBinAddr: 0xEDA04, symSize: 0x1C }
  - { offset: 0x871A0, size: 0x8, addend: 0x0, symName: __ZN5godot15RenderingDeviceD1Ev.cold.1, symObjAddr: 0x4C60, symBinAddr: 0xEDA04, symSize: 0x1C }
  - { offset: 0x871B5, size: 0x8, addend: 0x0, symName: __ZN5godot15RenderingDeviceD1Ev.cold.1, symObjAddr: 0x4C60, symBinAddr: 0xEDA04, symSize: 0x1C }
  - { offset: 0x871E8, size: 0x8, addend: 0x0, symName: __ZN5godot15RenderingDeviceD0Ev, symObjAddr: 0x3D00, symBinAddr: 0x105E4, symSize: 0x74 }
  - { offset: 0x8731D, size: 0x8, addend: 0x0, symName: __ZN5godot15RenderingDeviceD0Ev.cold.1, symObjAddr: 0x4C7C, symBinAddr: 0xEDA20, symSize: 0x1C }
  - { offset: 0x87338, size: 0x8, addend: 0x0, symName: __ZN5godot15RenderingDeviceD0Ev.cold.1, symObjAddr: 0x4C7C, symBinAddr: 0xEDA20, symSize: 0x1C }
  - { offset: 0x8734C, size: 0x8, addend: 0x0, symName: __ZN5godot15RenderingDeviceD0Ev.cold.1, symObjAddr: 0x4C7C, symBinAddr: 0xEDA20, symSize: 0x1C }
  - { offset: 0x87360, size: 0x8, addend: 0x0, symName: __ZN5godot15RenderingDeviceD0Ev.cold.1, symObjAddr: 0x4C7C, symBinAddr: 0xEDA20, symSize: 0x1C }
  - { offset: 0x87374, size: 0x8, addend: 0x0, symName: __ZN5godot15RenderingDeviceD0Ev.cold.1, symObjAddr: 0x4C7C, symBinAddr: 0xEDA20, symSize: 0x1C }
  - { offset: 0x87388, size: 0x8, addend: 0x0, symName: __ZN5godot15RenderingDeviceD0Ev.cold.1, symObjAddr: 0x4C7C, symBinAddr: 0xEDA20, symSize: 0x1C }
  - { offset: 0x8739D, size: 0x8, addend: 0x0, symName: __ZN5godot15RenderingDeviceD0Ev.cold.1, symObjAddr: 0x4C7C, symBinAddr: 0xEDA20, symSize: 0x1C }
  - { offset: 0x873BC, size: 0x8, addend: 0x0, symName: __ZN5godot8internal23EngineClassRegistrationINS_15RenderingServerEE8callbackEv, symObjAddr: 0x3D74, symBinAddr: 0x10658, symSize: 0x48 }
  - { offset: 0x87406, size: 0x8, addend: 0x0, symName: __ZN5godot8internal23EngineClassRegistrationINS_15RenderingServerEE8callbackEv.cold.1, symObjAddr: 0x4C98, symBinAddr: 0xEDA3C, symSize: 0x5C }
  - { offset: 0x8747E, size: 0x8, addend: 0x0, symName: __ZN5godot15RenderingServer28_gde_binding_create_callbackEPvS1_, symObjAddr: 0x3DBC, symBinAddr: 0x106A0, symSize: 0x48 }
  - { offset: 0x8751A, size: 0x8, addend: 0x0, symName: __ZN5godot15RenderingServer26_gde_binding_free_callbackEPvS1_S1_, symObjAddr: 0x3E04, symBinAddr: 0x106E8, symSize: 0x34 }
  - { offset: 0x8756F, size: 0x8, addend: 0x0, symName: __ZN5godot15RenderingServer31_gde_binding_reference_callbackEPvS1_h, symObjAddr: 0x3E38, symBinAddr: 0x1071C, symSize: 0x8 }
  - { offset: 0x875B6, size: 0x8, addend: 0x0, symName: __ZN5godot8internal23EngineClassRegistrationINS_4TimeEE8callbackEv, symObjAddr: 0x3E40, symBinAddr: 0x10724, symSize: 0x48 }
  - { offset: 0x87600, size: 0x8, addend: 0x0, symName: __ZN5godot8internal23EngineClassRegistrationINS_4TimeEE8callbackEv.cold.1, symObjAddr: 0x4CF4, symBinAddr: 0xEDA98, symSize: 0x5C }
  - { offset: 0x87678, size: 0x8, addend: 0x0, symName: __ZN5godot4Time28_gde_binding_create_callbackEPvS1_, symObjAddr: 0x3E88, symBinAddr: 0x1076C, symSize: 0x48 }
  - { offset: 0x87714, size: 0x8, addend: 0x0, symName: __ZN5godot4Time26_gde_binding_free_callbackEPvS1_S1_, symObjAddr: 0x3ED0, symBinAddr: 0x107B4, symSize: 0x34 }
  - { offset: 0x87769, size: 0x8, addend: 0x0, symName: __ZN5godot4Time31_gde_binding_reference_callbackEPvS1_h, symObjAddr: 0x3F04, symBinAddr: 0x107E8, symSize: 0x8 }
  - { offset: 0x877D0, size: 0x8, addend: 0x0, symName: _OUTLINED_FUNCTION_0, symObjAddr: 0x4D50, symBinAddr: 0x10AA4, symSize: 0x10 }
  - { offset: 0x877E8, size: 0x8, addend: 0x0, symName: _OUTLINED_FUNCTION_1, symObjAddr: 0x4D60, symBinAddr: 0x10AB4, symSize: 0xC }
  - { offset: 0x87800, size: 0x8, addend: 0x0, symName: _OUTLINED_FUNCTION_2, symObjAddr: 0x4D6C, symBinAddr: 0x10AC0, symSize: 0xC }
  - { offset: 0x87818, size: 0x8, addend: 0x0, symName: _OUTLINED_FUNCTION_3, symObjAddr: 0x4D78, symBinAddr: 0x10ACC, symSize: 0x8 }
  - { offset: 0x87830, size: 0x8, addend: 0x0, symName: _OUTLINED_FUNCTION_4, symObjAddr: 0x4D80, symBinAddr: 0x10AD4, symSize: 0x8 }
  - { offset: 0x87848, size: 0x8, addend: 0x0, symName: _OUTLINED_FUNCTION_5, symObjAddr: 0x4D88, symBinAddr: 0x10ADC, symSize: 0x8 }
  - { offset: 0x87860, size: 0x8, addend: 0x0, symName: _OUTLINED_FUNCTION_6, symObjAddr: 0x4D90, symBinAddr: 0x10AE4, symSize: 0xC }
  - { offset: 0x87878, size: 0x8, addend: 0x0, symName: _OUTLINED_FUNCTION_7, symObjAddr: 0x4D9C, symBinAddr: 0x10AF0, symSize: 0xC }
  - { offset: 0x8B0E0, size: 0x8, addend: 0x0, symName: ___cxx_global_var_init, symObjAddr: 0xCA8, symBinAddr: 0x1118C, symSize: 0x4C }
  - { offset: 0x8B165, size: 0x8, addend: 0x0, symName: ___cxx_global_var_init.1, symObjAddr: 0xCF4, symBinAddr: 0x111D8, symSize: 0x4C }
  - { offset: 0x8B1EA, size: 0x8, addend: 0x0, symName: ___cxx_global_var_init.2, symObjAddr: 0xD40, symBinAddr: 0x11224, symSize: 0x4C }
  - { offset: 0x8B26F, size: 0x8, addend: 0x0, symName: ___cxx_global_var_init.3, symObjAddr: 0xD8C, symBinAddr: 0x11270, symSize: 0x4C }
  - { offset: 0x8B2F4, size: 0x8, addend: 0x0, symName: ___cxx_global_var_init.4, symObjAddr: 0xDD8, symBinAddr: 0x112BC, symSize: 0x4C }
  - { offset: 0x8B34A, size: 0x8, addend: 0x0, symName: __ZN6sentry11environment24detect_godot_environmentEv, symObjAddr: 0x0, symBinAddr: 0x11008, symSize: 0x138 }
  - { offset: 0x8B395, size: 0x8, addend: 0x0, symName: __ZN6sentry11environment24detect_godot_environmentEv.cold.2, symObjAddr: 0x960, symBinAddr: 0xEDB3C, symSize: 0x48 }
  - { offset: 0x8B3AD, size: 0x8, addend: 0x0, symName: __ZN6sentry11environment24detect_godot_environmentEv.cold.1, symObjAddr: 0x918, symBinAddr: 0xEDAF4, symSize: 0x48 }
  - { offset: 0x8B3CC, size: 0x8, addend: 0x0, symName: __ZN5godot8internal23EngineClassRegistrationINS_6ObjectEE8callbackEv.cold.1, symObjAddr: 0x9A8, symBinAddr: 0xEDB84, symSize: 0x5C }
  - { offset: 0x8B467, size: 0x8, addend: 0x0, symName: __ZN5godot6ObjectD1Ev.cold.1, symObjAddr: 0xA04, symBinAddr: 0xEDBE0, symSize: 0x1C }
  - { offset: 0x8B482, size: 0x8, addend: 0x0, symName: __ZN5godot6ObjectD1Ev.cold.1, symObjAddr: 0xA04, symBinAddr: 0xEDBE0, symSize: 0x1C }
  - { offset: 0x8B496, size: 0x8, addend: 0x0, symName: __ZN5godot6ObjectD1Ev.cold.1, symObjAddr: 0xA04, symBinAddr: 0xEDBE0, symSize: 0x1C }
  - { offset: 0x8B4AA, size: 0x8, addend: 0x0, symName: __ZN5godot6ObjectD1Ev.cold.1, symObjAddr: 0xA04, symBinAddr: 0xEDBE0, symSize: 0x1C }
  - { offset: 0x8B4BF, size: 0x8, addend: 0x0, symName: __ZN5godot6ObjectD1Ev.cold.1, symObjAddr: 0xA04, symBinAddr: 0xEDBE0, symSize: 0x1C }
  - { offset: 0x8B4EF, size: 0x8, addend: 0x0, symName: __ZN5godot6ObjectD0Ev.cold.1, symObjAddr: 0xA20, symBinAddr: 0xEDBFC, symSize: 0x1C }
  - { offset: 0x8B50A, size: 0x8, addend: 0x0, symName: __ZN5godot6ObjectD0Ev.cold.1, symObjAddr: 0xA20, symBinAddr: 0xEDBFC, symSize: 0x1C }
  - { offset: 0x8B51E, size: 0x8, addend: 0x0, symName: __ZN5godot6ObjectD0Ev.cold.1, symObjAddr: 0xA20, symBinAddr: 0xEDBFC, symSize: 0x1C }
  - { offset: 0x8B532, size: 0x8, addend: 0x0, symName: __ZN5godot6ObjectD0Ev.cold.1, symObjAddr: 0xA20, symBinAddr: 0xEDBFC, symSize: 0x1C }
  - { offset: 0x8B546, size: 0x8, addend: 0x0, symName: __ZN5godot6ObjectD0Ev.cold.1, symObjAddr: 0xA20, symBinAddr: 0xEDBFC, symSize: 0x1C }
  - { offset: 0x8B55B, size: 0x8, addend: 0x0, symName: __ZN5godot6ObjectD0Ev.cold.1, symObjAddr: 0xA20, symBinAddr: 0xEDBFC, symSize: 0x1C }
  - { offset: 0x8B572, size: 0x8, addend: 0x0, symName: __ZN5godot7WrappedD1Ev.cold.1, symObjAddr: 0xA3C, symBinAddr: 0xEDC18, symSize: 0x1C }
  - { offset: 0x8B58D, size: 0x8, addend: 0x0, symName: __ZN5godot7WrappedD1Ev.cold.1, symObjAddr: 0xA3C, symBinAddr: 0xEDC18, symSize: 0x1C }
  - { offset: 0x8B5A1, size: 0x8, addend: 0x0, symName: __ZN5godot7WrappedD1Ev.cold.1, symObjAddr: 0xA3C, symBinAddr: 0xEDC18, symSize: 0x1C }
  - { offset: 0x8B5B6, size: 0x8, addend: 0x0, symName: __ZN5godot7WrappedD1Ev.cold.1, symObjAddr: 0xA3C, symBinAddr: 0xEDC18, symSize: 0x1C }
  - { offset: 0x8B5E5, size: 0x8, addend: 0x0, symName: __ZN5godot7WrappedD0Ev.cold.1, symObjAddr: 0xA58, symBinAddr: 0xEDC34, symSize: 0x1C }
  - { offset: 0x8B600, size: 0x8, addend: 0x0, symName: __ZN5godot7WrappedD0Ev.cold.1, symObjAddr: 0xA58, symBinAddr: 0xEDC34, symSize: 0x1C }
  - { offset: 0x8B614, size: 0x8, addend: 0x0, symName: __ZN5godot7WrappedD0Ev.cold.1, symObjAddr: 0xA58, symBinAddr: 0xEDC34, symSize: 0x1C }
  - { offset: 0x8B628, size: 0x8, addend: 0x0, symName: __ZN5godot7WrappedD0Ev.cold.1, symObjAddr: 0xA58, symBinAddr: 0xEDC34, symSize: 0x1C }
  - { offset: 0x8B63D, size: 0x8, addend: 0x0, symName: __ZN5godot7WrappedD0Ev.cold.1, symObjAddr: 0xA58, symBinAddr: 0xEDC34, symSize: 0x1C }
  - { offset: 0x8B653, size: 0x8, addend: 0x0, symName: __ZN5godot4ListINS_12PropertyInfoENS_16DefaultAllocatorEE5_Data5eraseEPNS3_7ElementE.cold.2, symObjAddr: 0xA94, symBinAddr: 0xEDC70, symSize: 0x20 }
  - { offset: 0x8B66B, size: 0x8, addend: 0x0, symName: __ZN5godot4ListINS_12PropertyInfoENS_16DefaultAllocatorEE5_Data5eraseEPNS3_7ElementE.cold.1, symObjAddr: 0xA74, symBinAddr: 0xEDC50, symSize: 0x20 }
  - { offset: 0x8B68A, size: 0x8, addend: 0x0, symName: __ZN5godot8internal23EngineClassRegistrationINS_16ClassDBSingletonEE8callbackEv.cold.1, symObjAddr: 0xAB4, symBinAddr: 0xEDC90, symSize: 0x5C }
  - { offset: 0x8B6BF, size: 0x8, addend: 0x0, symName: __ZN5godot8internal23EngineClassRegistrationINS_6EngineEE8callbackEv.cold.1, symObjAddr: 0xB10, symBinAddr: 0xEDCEC, symSize: 0x5C }
  - { offset: 0x8B6F4, size: 0x8, addend: 0x0, symName: __ZN5godot8internal23EngineClassRegistrationINS_10RefCountedEE8callbackEv.cold.1, symObjAddr: 0xB6C, symBinAddr: 0xEDD48, symSize: 0x5C }
  - { offset: 0x8B73E, size: 0x8, addend: 0x0, symName: __ZN5godot10RefCountedD1Ev.cold.1, symObjAddr: 0xBC8, symBinAddr: 0xEDDA4, symSize: 0x1C }
  - { offset: 0x8B759, size: 0x8, addend: 0x0, symName: __ZN5godot10RefCountedD1Ev.cold.1, symObjAddr: 0xBC8, symBinAddr: 0xEDDA4, symSize: 0x1C }
  - { offset: 0x8B76D, size: 0x8, addend: 0x0, symName: __ZN5godot10RefCountedD1Ev.cold.1, symObjAddr: 0xBC8, symBinAddr: 0xEDDA4, symSize: 0x1C }
  - { offset: 0x8B781, size: 0x8, addend: 0x0, symName: __ZN5godot10RefCountedD1Ev.cold.1, symObjAddr: 0xBC8, symBinAddr: 0xEDDA4, symSize: 0x1C }
  - { offset: 0x8B795, size: 0x8, addend: 0x0, symName: __ZN5godot10RefCountedD1Ev.cold.1, symObjAddr: 0xBC8, symBinAddr: 0xEDDA4, symSize: 0x1C }
  - { offset: 0x8B7AA, size: 0x8, addend: 0x0, symName: __ZN5godot10RefCountedD1Ev.cold.1, symObjAddr: 0xBC8, symBinAddr: 0xEDDA4, symSize: 0x1C }
  - { offset: 0x8B7DD, size: 0x8, addend: 0x0, symName: __ZN5godot10RefCountedD0Ev.cold.1, symObjAddr: 0xBE4, symBinAddr: 0xEDDC0, symSize: 0x1C }
  - { offset: 0x8B7F8, size: 0x8, addend: 0x0, symName: __ZN5godot10RefCountedD0Ev.cold.1, symObjAddr: 0xBE4, symBinAddr: 0xEDDC0, symSize: 0x1C }
  - { offset: 0x8B80C, size: 0x8, addend: 0x0, symName: __ZN5godot10RefCountedD0Ev.cold.1, symObjAddr: 0xBE4, symBinAddr: 0xEDDC0, symSize: 0x1C }
  - { offset: 0x8B820, size: 0x8, addend: 0x0, symName: __ZN5godot10RefCountedD0Ev.cold.1, symObjAddr: 0xBE4, symBinAddr: 0xEDDC0, symSize: 0x1C }
  - { offset: 0x8B834, size: 0x8, addend: 0x0, symName: __ZN5godot10RefCountedD0Ev.cold.1, symObjAddr: 0xBE4, symBinAddr: 0xEDDC0, symSize: 0x1C }
  - { offset: 0x8B848, size: 0x8, addend: 0x0, symName: __ZN5godot10RefCountedD0Ev.cold.1, symObjAddr: 0xBE4, symBinAddr: 0xEDDC0, symSize: 0x1C }
  - { offset: 0x8B85D, size: 0x8, addend: 0x0, symName: __ZN5godot10RefCountedD0Ev.cold.1, symObjAddr: 0xBE4, symBinAddr: 0xEDDC0, symSize: 0x1C }
  - { offset: 0x8B87C, size: 0x8, addend: 0x0, symName: __ZN5godot8internal23EngineClassRegistrationINS_2OSEE8callbackEv.cold.1, symObjAddr: 0xC00, symBinAddr: 0xEDDDC, symSize: 0x5C }
  - { offset: 0x8B8AA, size: 0x8, addend: 0x0, symName: _OUTLINED_FUNCTION_0, symObjAddr: 0xC5C, symBinAddr: 0x11140, symSize: 0x10 }
  - { offset: 0x8B8C2, size: 0x8, addend: 0x0, symName: _OUTLINED_FUNCTION_1, symObjAddr: 0xC6C, symBinAddr: 0x11150, symSize: 0xC }
  - { offset: 0x8B8DA, size: 0x8, addend: 0x0, symName: _OUTLINED_FUNCTION_2, symObjAddr: 0xC78, symBinAddr: 0x1115C, symSize: 0xC }
  - { offset: 0x8B8F2, size: 0x8, addend: 0x0, symName: _OUTLINED_FUNCTION_3, symObjAddr: 0xC84, symBinAddr: 0x11168, symSize: 0x8 }
  - { offset: 0x8B90A, size: 0x8, addend: 0x0, symName: _OUTLINED_FUNCTION_4, symObjAddr: 0xC8C, symBinAddr: 0x11170, symSize: 0x8 }
  - { offset: 0x8B922, size: 0x8, addend: 0x0, symName: _OUTLINED_FUNCTION_5, symObjAddr: 0xC94, symBinAddr: 0x11178, symSize: 0x8 }
  - { offset: 0x8B93A, size: 0x8, addend: 0x0, symName: _OUTLINED_FUNCTION_6, symObjAddr: 0xC9C, symBinAddr: 0x11180, symSize: 0xC }
  - { offset: 0x91859, size: 0x8, addend: 0x0, symName: __ZN6sentry16level_as_cstringENS_5LevelE, symObjAddr: 0x0, symBinAddr: 0x11308, symSize: 0x30 }
  - { offset: 0x918CC, size: 0x8, addend: 0x0, symName: __ZN6sentry24make_level_enum_propertyERKN5godot6StringE, symObjAddr: 0x30, symBinAddr: 0x11338, symSize: 0x108 }
  - { offset: 0x919B3, size: 0x8, addend: 0x0, symName: __ZN6sentry7logging5printIJEEEvNS_5LevelERKN5godot7VariantEDpRKT_, symObjAddr: 0x904, symBinAddr: 0x114F8, symSize: 0x244 }
  - { offset: 0x91CCD, size: 0x8, addend: 0x0, symName: __ZN6sentry7logging15print_no_loggerIJEEEvNS_5LevelERKN5godot7VariantEDpRKT_, symObjAddr: 0xB48, symBinAddr: 0x1173C, symSize: 0x1A0 }
  - { offset: 0x92077, size: 0x8, addend: 0x0, symName: __ZN6sentry12int_to_levelEi, symObjAddr: 0x138, symBinAddr: 0x11440, symSize: 0xB8 }
  - { offset: 0x921BE, size: 0x8, addend: 0x0, symName: ___cxx_global_var_init, symObjAddr: 0xF80, symBinAddr: 0x1191C, symSize: 0x4C }
  - { offset: 0x92243, size: 0x8, addend: 0x0, symName: ___cxx_global_var_init.1, symObjAddr: 0xFCC, symBinAddr: 0x11968, symSize: 0x4C }
  - { offset: 0x922C8, size: 0x8, addend: 0x0, symName: ___cxx_global_var_init.2, symObjAddr: 0x1018, symBinAddr: 0x119B4, symSize: 0x4C }
  - { offset: 0x9234D, size: 0x8, addend: 0x0, symName: ___cxx_global_var_init.3, symObjAddr: 0x1064, symBinAddr: 0x11A00, symSize: 0x4C }
  - { offset: 0x924E0, size: 0x8, addend: 0x0, symName: __ZN5godot8internal23EngineClassRegistrationINS_6ObjectEE8callbackEv.cold.1, symObjAddr: 0xCE8, symBinAddr: 0xEDE38, symSize: 0x5C }
  - { offset: 0x9257B, size: 0x8, addend: 0x0, symName: __ZN5godot6ObjectD1Ev.cold.1, symObjAddr: 0xD44, symBinAddr: 0xEDE94, symSize: 0x1C }
  - { offset: 0x92596, size: 0x8, addend: 0x0, symName: __ZN5godot6ObjectD1Ev.cold.1, symObjAddr: 0xD44, symBinAddr: 0xEDE94, symSize: 0x1C }
  - { offset: 0x925AA, size: 0x8, addend: 0x0, symName: __ZN5godot6ObjectD1Ev.cold.1, symObjAddr: 0xD44, symBinAddr: 0xEDE94, symSize: 0x1C }
  - { offset: 0x925BE, size: 0x8, addend: 0x0, symName: __ZN5godot6ObjectD1Ev.cold.1, symObjAddr: 0xD44, symBinAddr: 0xEDE94, symSize: 0x1C }
  - { offset: 0x925D3, size: 0x8, addend: 0x0, symName: __ZN5godot6ObjectD1Ev.cold.1, symObjAddr: 0xD44, symBinAddr: 0xEDE94, symSize: 0x1C }
  - { offset: 0x92603, size: 0x8, addend: 0x0, symName: __ZN5godot6ObjectD0Ev.cold.1, symObjAddr: 0xD60, symBinAddr: 0xEDEB0, symSize: 0x1C }
  - { offset: 0x9261E, size: 0x8, addend: 0x0, symName: __ZN5godot6ObjectD0Ev.cold.1, symObjAddr: 0xD60, symBinAddr: 0xEDEB0, symSize: 0x1C }
  - { offset: 0x92632, size: 0x8, addend: 0x0, symName: __ZN5godot6ObjectD0Ev.cold.1, symObjAddr: 0xD60, symBinAddr: 0xEDEB0, symSize: 0x1C }
  - { offset: 0x92646, size: 0x8, addend: 0x0, symName: __ZN5godot6ObjectD0Ev.cold.1, symObjAddr: 0xD60, symBinAddr: 0xEDEB0, symSize: 0x1C }
  - { offset: 0x9265A, size: 0x8, addend: 0x0, symName: __ZN5godot6ObjectD0Ev.cold.1, symObjAddr: 0xD60, symBinAddr: 0xEDEB0, symSize: 0x1C }
  - { offset: 0x9266F, size: 0x8, addend: 0x0, symName: __ZN5godot6ObjectD0Ev.cold.1, symObjAddr: 0xD60, symBinAddr: 0xEDEB0, symSize: 0x1C }
  - { offset: 0x92686, size: 0x8, addend: 0x0, symName: __ZN5godot7WrappedD1Ev.cold.1, symObjAddr: 0xD7C, symBinAddr: 0xEDECC, symSize: 0x1C }
  - { offset: 0x926A1, size: 0x8, addend: 0x0, symName: __ZN5godot7WrappedD1Ev.cold.1, symObjAddr: 0xD7C, symBinAddr: 0xEDECC, symSize: 0x1C }
  - { offset: 0x926B5, size: 0x8, addend: 0x0, symName: __ZN5godot7WrappedD1Ev.cold.1, symObjAddr: 0xD7C, symBinAddr: 0xEDECC, symSize: 0x1C }
  - { offset: 0x926CA, size: 0x8, addend: 0x0, symName: __ZN5godot7WrappedD1Ev.cold.1, symObjAddr: 0xD7C, symBinAddr: 0xEDECC, symSize: 0x1C }
  - { offset: 0x926F9, size: 0x8, addend: 0x0, symName: __ZN5godot7WrappedD0Ev.cold.1, symObjAddr: 0xD98, symBinAddr: 0xEDEE8, symSize: 0x1C }
  - { offset: 0x92714, size: 0x8, addend: 0x0, symName: __ZN5godot7WrappedD0Ev.cold.1, symObjAddr: 0xD98, symBinAddr: 0xEDEE8, symSize: 0x1C }
  - { offset: 0x92728, size: 0x8, addend: 0x0, symName: __ZN5godot7WrappedD0Ev.cold.1, symObjAddr: 0xD98, symBinAddr: 0xEDEE8, symSize: 0x1C }
  - { offset: 0x9273C, size: 0x8, addend: 0x0, symName: __ZN5godot7WrappedD0Ev.cold.1, symObjAddr: 0xD98, symBinAddr: 0xEDEE8, symSize: 0x1C }
  - { offset: 0x92751, size: 0x8, addend: 0x0, symName: __ZN5godot7WrappedD0Ev.cold.1, symObjAddr: 0xD98, symBinAddr: 0xEDEE8, symSize: 0x1C }
  - { offset: 0x92767, size: 0x8, addend: 0x0, symName: __ZN5godot4ListINS_12PropertyInfoENS_16DefaultAllocatorEE5_Data5eraseEPNS3_7ElementE.cold.2, symObjAddr: 0xDD4, symBinAddr: 0xEDF24, symSize: 0x20 }
  - { offset: 0x9277F, size: 0x8, addend: 0x0, symName: __ZN5godot4ListINS_12PropertyInfoENS_16DefaultAllocatorEE5_Data5eraseEPNS3_7ElementE.cold.1, symObjAddr: 0xDB4, symBinAddr: 0xEDF04, symSize: 0x20 }
  - { offset: 0x9279E, size: 0x8, addend: 0x0, symName: __ZN5godot8internal23EngineClassRegistrationINS_16ClassDBSingletonEE8callbackEv.cold.1, symObjAddr: 0xDF4, symBinAddr: 0xEDF44, symSize: 0x5C }
  - { offset: 0x927D3, size: 0x8, addend: 0x0, symName: __ZN5godot8internal23EngineClassRegistrationINS_10RefCountedEE8callbackEv.cold.1, symObjAddr: 0xE50, symBinAddr: 0xEDFA0, symSize: 0x5C }
  - { offset: 0x9281D, size: 0x8, addend: 0x0, symName: __ZN5godot10RefCountedD1Ev.cold.1, symObjAddr: 0xEAC, symBinAddr: 0xEDFFC, symSize: 0x1C }
  - { offset: 0x92838, size: 0x8, addend: 0x0, symName: __ZN5godot10RefCountedD1Ev.cold.1, symObjAddr: 0xEAC, symBinAddr: 0xEDFFC, symSize: 0x1C }
  - { offset: 0x9284C, size: 0x8, addend: 0x0, symName: __ZN5godot10RefCountedD1Ev.cold.1, symObjAddr: 0xEAC, symBinAddr: 0xEDFFC, symSize: 0x1C }
  - { offset: 0x92860, size: 0x8, addend: 0x0, symName: __ZN5godot10RefCountedD1Ev.cold.1, symObjAddr: 0xEAC, symBinAddr: 0xEDFFC, symSize: 0x1C }
  - { offset: 0x92874, size: 0x8, addend: 0x0, symName: __ZN5godot10RefCountedD1Ev.cold.1, symObjAddr: 0xEAC, symBinAddr: 0xEDFFC, symSize: 0x1C }
  - { offset: 0x92889, size: 0x8, addend: 0x0, symName: __ZN5godot10RefCountedD1Ev.cold.1, symObjAddr: 0xEAC, symBinAddr: 0xEDFFC, symSize: 0x1C }
  - { offset: 0x928BC, size: 0x8, addend: 0x0, symName: __ZN5godot10RefCountedD0Ev.cold.1, symObjAddr: 0xEC8, symBinAddr: 0xEE018, symSize: 0x1C }
  - { offset: 0x928D7, size: 0x8, addend: 0x0, symName: __ZN5godot10RefCountedD0Ev.cold.1, symObjAddr: 0xEC8, symBinAddr: 0xEE018, symSize: 0x1C }
  - { offset: 0x928EB, size: 0x8, addend: 0x0, symName: __ZN5godot10RefCountedD0Ev.cold.1, symObjAddr: 0xEC8, symBinAddr: 0xEE018, symSize: 0x1C }
  - { offset: 0x928FF, size: 0x8, addend: 0x0, symName: __ZN5godot10RefCountedD0Ev.cold.1, symObjAddr: 0xEC8, symBinAddr: 0xEE018, symSize: 0x1C }
  - { offset: 0x92913, size: 0x8, addend: 0x0, symName: __ZN5godot10RefCountedD0Ev.cold.1, symObjAddr: 0xEC8, symBinAddr: 0xEE018, symSize: 0x1C }
  - { offset: 0x92927, size: 0x8, addend: 0x0, symName: __ZN5godot10RefCountedD0Ev.cold.1, symObjAddr: 0xEC8, symBinAddr: 0xEE018, symSize: 0x1C }
  - { offset: 0x9293C, size: 0x8, addend: 0x0, symName: __ZN5godot10RefCountedD0Ev.cold.1, symObjAddr: 0xEC8, symBinAddr: 0xEE018, symSize: 0x1C }
  - { offset: 0x9295B, size: 0x8, addend: 0x0, symName: __ZN5godot8internal23EngineClassRegistrationINS_6LoggerEE8callbackEv.cold.1, symObjAddr: 0xEE4, symBinAddr: 0xEE034, symSize: 0x5C }
  - { offset: 0x92EAC, size: 0x8, addend: 0x0, symName: _OUTLINED_FUNCTION_0, symObjAddr: 0xF40, symBinAddr: 0x118DC, symSize: 0x10 }
  - { offset: 0x92EC4, size: 0x8, addend: 0x0, symName: _OUTLINED_FUNCTION_1, symObjAddr: 0xF50, symBinAddr: 0x118EC, symSize: 0xC }
  - { offset: 0x92EDC, size: 0x8, addend: 0x0, symName: _OUTLINED_FUNCTION_2, symObjAddr: 0xF5C, symBinAddr: 0x118F8, symSize: 0xC }
  - { offset: 0x92EF4, size: 0x8, addend: 0x0, symName: _OUTLINED_FUNCTION_3, symObjAddr: 0xF68, symBinAddr: 0x11904, symSize: 0x8 }
  - { offset: 0x92F0C, size: 0x8, addend: 0x0, symName: _OUTLINED_FUNCTION_4, symObjAddr: 0xF70, symBinAddr: 0x1190C, symSize: 0x8 }
  - { offset: 0x92F24, size: 0x8, addend: 0x0, symName: _OUTLINED_FUNCTION_5, symObjAddr: 0xF78, symBinAddr: 0x11914, symSize: 0x8 }
  - { offset: 0x972F9, size: 0x8, addend: 0x0, symName: ___cxx_global_var_init, symObjAddr: 0x1178, symBinAddr: 0x120C8, symSize: 0x4C }
  - { offset: 0x9737E, size: 0x8, addend: 0x0, symName: ___cxx_global_var_init.1, symObjAddr: 0x11C4, symBinAddr: 0x12114, symSize: 0x4C }
  - { offset: 0x97403, size: 0x8, addend: 0x0, symName: ___cxx_global_var_init.2, symObjAddr: 0x1210, symBinAddr: 0x12160, symSize: 0x4C }
  - { offset: 0x97488, size: 0x8, addend: 0x0, symName: ___cxx_global_var_init.3, symObjAddr: 0x125C, symBinAddr: 0x121AC, symSize: 0x4C }
  - { offset: 0x97862, size: 0x8, addend: 0x0, symName: __ZN6sentry13RuntimeConfig19set_installation_idERKN5godot6StringE, symObjAddr: 0x0, symBinAddr: 0x11A4C, symSize: 0x104 }
  - { offset: 0x978E3, size: 0x8, addend: 0x0, symName: __ZN6sentry13RuntimeConfig19set_installation_idERKN5godot6StringE.cold.1, symObjAddr: 0xE4C, symBinAddr: 0xEE090, symSize: 0x20 }
  - { offset: 0x9794B, size: 0x8, addend: 0x0, symName: __ZN6sentry13RuntimeConfig9load_fileERKN5godot6StringE, symObjAddr: 0x104, symBinAddr: 0x11B50, symSize: 0x19C }
  - { offset: 0x97A4A, size: 0x8, addend: 0x0, symName: __ZN6sentry13RuntimeConfig9load_fileERKN5godot6StringE.cold.1, symObjAddr: 0xE6C, symBinAddr: 0xEE0B0, symSize: 0x20 }
  - { offset: 0x97AFF, size: 0x8, addend: 0x0, symName: __ZN6sentry13RuntimeConfigC2Ev, symObjAddr: 0x2A0, symBinAddr: 0x11CEC, symSize: 0xB4 }
  - { offset: 0x97BC6, size: 0x8, addend: 0x0, symName: __ZN5godot3RefINS_10ConfigFileEE11instantiateEv, symObjAddr: 0x354, symBinAddr: 0x11DA0, symSize: 0x144 }
  - { offset: 0x97F5D, size: 0x8, addend: 0x0, symName: __ZN6sentry13RuntimeConfigC1Ev, symObjAddr: 0x498, symBinAddr: 0x11EE4, symSize: 0xB4 }
  - { offset: 0x9804B, size: 0x8, addend: 0x0, symName: __ZNK6sentry13RuntimeConfig19_is_extension_classEv, symObjAddr: 0x54C, symBinAddr: 0x11F98, symSize: 0x8 }
  - { offset: 0x98072, size: 0x8, addend: 0x0, symName: __ZN6sentry13RuntimeConfigD1Ev, symObjAddr: 0x554, symBinAddr: 0x11FA0, symSize: 0x4 }
  - { offset: 0x98095, size: 0x8, addend: 0x0, symName: __ZN6sentry13RuntimeConfigD1Ev, symObjAddr: 0x554, symBinAddr: 0x11FA0, symSize: 0x4 }
  - { offset: 0x980A8, size: 0x8, addend: 0x0, symName: __ZN6sentry13RuntimeConfigD2Ev, symObjAddr: 0xD7C, symBinAddr: 0x11FB8, symSize: 0xD0 }
  - { offset: 0x982D9, size: 0x8, addend: 0x0, symName: __ZN6sentry13RuntimeConfigD0Ev, symObjAddr: 0x558, symBinAddr: 0x11FA4, symSize: 0x14 }
  - { offset: 0x984C6, size: 0x8, addend: 0x0, symName: __ZN5godot10RefCountedD1Ev.cold.1, symObjAddr: 0xE8C, symBinAddr: 0xEE0D0, symSize: 0x1C }
  - { offset: 0x984E1, size: 0x8, addend: 0x0, symName: __ZN5godot10RefCountedD1Ev.cold.1, symObjAddr: 0xE8C, symBinAddr: 0xEE0D0, symSize: 0x1C }
  - { offset: 0x984F5, size: 0x8, addend: 0x0, symName: __ZN5godot10RefCountedD1Ev.cold.1, symObjAddr: 0xE8C, symBinAddr: 0xEE0D0, symSize: 0x1C }
  - { offset: 0x98509, size: 0x8, addend: 0x0, symName: __ZN5godot10RefCountedD1Ev.cold.1, symObjAddr: 0xE8C, symBinAddr: 0xEE0D0, symSize: 0x1C }
  - { offset: 0x9851D, size: 0x8, addend: 0x0, symName: __ZN5godot10RefCountedD1Ev.cold.1, symObjAddr: 0xE8C, symBinAddr: 0xEE0D0, symSize: 0x1C }
  - { offset: 0x98532, size: 0x8, addend: 0x0, symName: __ZN5godot10RefCountedD1Ev.cold.1, symObjAddr: 0xE8C, symBinAddr: 0xEE0D0, symSize: 0x1C }
  - { offset: 0x98565, size: 0x8, addend: 0x0, symName: __ZN5godot10RefCountedD0Ev.cold.1, symObjAddr: 0xEA8, symBinAddr: 0xEE0EC, symSize: 0x1C }
  - { offset: 0x98580, size: 0x8, addend: 0x0, symName: __ZN5godot10RefCountedD0Ev.cold.1, symObjAddr: 0xEA8, symBinAddr: 0xEE0EC, symSize: 0x1C }
  - { offset: 0x98594, size: 0x8, addend: 0x0, symName: __ZN5godot10RefCountedD0Ev.cold.1, symObjAddr: 0xEA8, symBinAddr: 0xEE0EC, symSize: 0x1C }
  - { offset: 0x985A8, size: 0x8, addend: 0x0, symName: __ZN5godot10RefCountedD0Ev.cold.1, symObjAddr: 0xEA8, symBinAddr: 0xEE0EC, symSize: 0x1C }
  - { offset: 0x985BC, size: 0x8, addend: 0x0, symName: __ZN5godot10RefCountedD0Ev.cold.1, symObjAddr: 0xEA8, symBinAddr: 0xEE0EC, symSize: 0x1C }
  - { offset: 0x985D0, size: 0x8, addend: 0x0, symName: __ZN5godot10RefCountedD0Ev.cold.1, symObjAddr: 0xEA8, symBinAddr: 0xEE0EC, symSize: 0x1C }
  - { offset: 0x985E5, size: 0x8, addend: 0x0, symName: __ZN5godot10RefCountedD0Ev.cold.1, symObjAddr: 0xEA8, symBinAddr: 0xEE0EC, symSize: 0x1C }
  - { offset: 0x985FD, size: 0x8, addend: 0x0, symName: __ZN5godot6ObjectD1Ev.cold.1, symObjAddr: 0xEC4, symBinAddr: 0xEE108, symSize: 0x1C }
  - { offset: 0x98618, size: 0x8, addend: 0x0, symName: __ZN5godot6ObjectD1Ev.cold.1, symObjAddr: 0xEC4, symBinAddr: 0xEE108, symSize: 0x1C }
  - { offset: 0x9862C, size: 0x8, addend: 0x0, symName: __ZN5godot6ObjectD1Ev.cold.1, symObjAddr: 0xEC4, symBinAddr: 0xEE108, symSize: 0x1C }
  - { offset: 0x98640, size: 0x8, addend: 0x0, symName: __ZN5godot6ObjectD1Ev.cold.1, symObjAddr: 0xEC4, symBinAddr: 0xEE108, symSize: 0x1C }
  - { offset: 0x98655, size: 0x8, addend: 0x0, symName: __ZN5godot6ObjectD1Ev.cold.1, symObjAddr: 0xEC4, symBinAddr: 0xEE108, symSize: 0x1C }
  - { offset: 0x98685, size: 0x8, addend: 0x0, symName: __ZN5godot6ObjectD0Ev.cold.1, symObjAddr: 0xEE0, symBinAddr: 0xEE124, symSize: 0x1C }
  - { offset: 0x986A0, size: 0x8, addend: 0x0, symName: __ZN5godot6ObjectD0Ev.cold.1, symObjAddr: 0xEE0, symBinAddr: 0xEE124, symSize: 0x1C }
  - { offset: 0x986B4, size: 0x8, addend: 0x0, symName: __ZN5godot6ObjectD0Ev.cold.1, symObjAddr: 0xEE0, symBinAddr: 0xEE124, symSize: 0x1C }
  - { offset: 0x986C8, size: 0x8, addend: 0x0, symName: __ZN5godot6ObjectD0Ev.cold.1, symObjAddr: 0xEE0, symBinAddr: 0xEE124, symSize: 0x1C }
  - { offset: 0x986DC, size: 0x8, addend: 0x0, symName: __ZN5godot6ObjectD0Ev.cold.1, symObjAddr: 0xEE0, symBinAddr: 0xEE124, symSize: 0x1C }
  - { offset: 0x986F1, size: 0x8, addend: 0x0, symName: __ZN5godot6ObjectD0Ev.cold.1, symObjAddr: 0xEE0, symBinAddr: 0xEE124, symSize: 0x1C }
  - { offset: 0x98708, size: 0x8, addend: 0x0, symName: __ZN5godot7WrappedD1Ev.cold.1, symObjAddr: 0xEFC, symBinAddr: 0xEE140, symSize: 0x1C }
  - { offset: 0x98723, size: 0x8, addend: 0x0, symName: __ZN5godot7WrappedD1Ev.cold.1, symObjAddr: 0xEFC, symBinAddr: 0xEE140, symSize: 0x1C }
  - { offset: 0x98737, size: 0x8, addend: 0x0, symName: __ZN5godot7WrappedD1Ev.cold.1, symObjAddr: 0xEFC, symBinAddr: 0xEE140, symSize: 0x1C }
  - { offset: 0x9874C, size: 0x8, addend: 0x0, symName: __ZN5godot7WrappedD1Ev.cold.1, symObjAddr: 0xEFC, symBinAddr: 0xEE140, symSize: 0x1C }
  - { offset: 0x9877B, size: 0x8, addend: 0x0, symName: __ZN5godot7WrappedD0Ev.cold.1, symObjAddr: 0xF18, symBinAddr: 0xEE15C, symSize: 0x1C }
  - { offset: 0x98796, size: 0x8, addend: 0x0, symName: __ZN5godot7WrappedD0Ev.cold.1, symObjAddr: 0xF18, symBinAddr: 0xEE15C, symSize: 0x1C }
  - { offset: 0x987AA, size: 0x8, addend: 0x0, symName: __ZN5godot7WrappedD0Ev.cold.1, symObjAddr: 0xF18, symBinAddr: 0xEE15C, symSize: 0x1C }
  - { offset: 0x987BE, size: 0x8, addend: 0x0, symName: __ZN5godot7WrappedD0Ev.cold.1, symObjAddr: 0xF18, symBinAddr: 0xEE15C, symSize: 0x1C }
  - { offset: 0x987D3, size: 0x8, addend: 0x0, symName: __ZN5godot7WrappedD0Ev.cold.1, symObjAddr: 0xF18, symBinAddr: 0xEE15C, symSize: 0x1C }
  - { offset: 0x98859, size: 0x8, addend: 0x0, symName: __ZN5godot4ListINS_12PropertyInfoENS_16DefaultAllocatorEE5_Data5eraseEPNS3_7ElementE.cold.2, symObjAddr: 0xF54, symBinAddr: 0xEE198, symSize: 0x20 }
  - { offset: 0x98871, size: 0x8, addend: 0x0, symName: __ZN5godot4ListINS_12PropertyInfoENS_16DefaultAllocatorEE5_Data5eraseEPNS3_7ElementE.cold.1, symObjAddr: 0xF34, symBinAddr: 0xEE178, symSize: 0x20 }
  - { offset: 0x98890, size: 0x8, addend: 0x0, symName: __ZN5godot8internal23EngineClassRegistrationINS_6ObjectEE8callbackEv.cold.1, symObjAddr: 0xF74, symBinAddr: 0xEE1B8, symSize: 0x5C }
  - { offset: 0x988C5, size: 0x8, addend: 0x0, symName: __ZN5godot8internal23EngineClassRegistrationINS_16ClassDBSingletonEE8callbackEv.cold.1, symObjAddr: 0xFD0, symBinAddr: 0xEE214, symSize: 0x5C }
  - { offset: 0x988FA, size: 0x8, addend: 0x0, symName: __ZN5godot8internal23EngineClassRegistrationINS_10RefCountedEE8callbackEv.cold.1, symObjAddr: 0x102C, symBinAddr: 0xEE270, symSize: 0x5C }
  - { offset: 0x9892F, size: 0x8, addend: 0x0, symName: __ZN5godot8internal23EngineClassRegistrationINS_10ConfigFileEE8callbackEv.cold.1, symObjAddr: 0x1088, symBinAddr: 0xEE2CC, symSize: 0x5C }
  - { offset: 0x98979, size: 0x8, addend: 0x0, symName: __ZN5godot10ConfigFileD1Ev.cold.1, symObjAddr: 0x10E4, symBinAddr: 0xEE328, symSize: 0x1C }
  - { offset: 0x98994, size: 0x8, addend: 0x0, symName: __ZN5godot10ConfigFileD1Ev.cold.1, symObjAddr: 0x10E4, symBinAddr: 0xEE328, symSize: 0x1C }
  - { offset: 0x989A8, size: 0x8, addend: 0x0, symName: __ZN5godot10ConfigFileD1Ev.cold.1, symObjAddr: 0x10E4, symBinAddr: 0xEE328, symSize: 0x1C }
  - { offset: 0x989BC, size: 0x8, addend: 0x0, symName: __ZN5godot10ConfigFileD1Ev.cold.1, symObjAddr: 0x10E4, symBinAddr: 0xEE328, symSize: 0x1C }
  - { offset: 0x989D0, size: 0x8, addend: 0x0, symName: __ZN5godot10ConfigFileD1Ev.cold.1, symObjAddr: 0x10E4, symBinAddr: 0xEE328, symSize: 0x1C }
  - { offset: 0x989E4, size: 0x8, addend: 0x0, symName: __ZN5godot10ConfigFileD1Ev.cold.1, symObjAddr: 0x10E4, symBinAddr: 0xEE328, symSize: 0x1C }
  - { offset: 0x989F9, size: 0x8, addend: 0x0, symName: __ZN5godot10ConfigFileD1Ev.cold.1, symObjAddr: 0x10E4, symBinAddr: 0xEE328, symSize: 0x1C }
  - { offset: 0x98A2D, size: 0x8, addend: 0x0, symName: __ZN5godot10ConfigFileD0Ev.cold.1, symObjAddr: 0x1100, symBinAddr: 0xEE344, symSize: 0x1C }
  - { offset: 0x98A48, size: 0x8, addend: 0x0, symName: __ZN5godot10ConfigFileD0Ev.cold.1, symObjAddr: 0x1100, symBinAddr: 0xEE344, symSize: 0x1C }
  - { offset: 0x98A5C, size: 0x8, addend: 0x0, symName: __ZN5godot10ConfigFileD0Ev.cold.1, symObjAddr: 0x1100, symBinAddr: 0xEE344, symSize: 0x1C }
  - { offset: 0x98A70, size: 0x8, addend: 0x0, symName: __ZN5godot10ConfigFileD0Ev.cold.1, symObjAddr: 0x1100, symBinAddr: 0xEE344, symSize: 0x1C }
  - { offset: 0x98A84, size: 0x8, addend: 0x0, symName: __ZN5godot10ConfigFileD0Ev.cold.1, symObjAddr: 0x1100, symBinAddr: 0xEE344, symSize: 0x1C }
  - { offset: 0x98A98, size: 0x8, addend: 0x0, symName: __ZN5godot10ConfigFileD0Ev.cold.1, symObjAddr: 0x1100, symBinAddr: 0xEE344, symSize: 0x1C }
  - { offset: 0x98AAC, size: 0x8, addend: 0x0, symName: __ZN5godot10ConfigFileD0Ev.cold.1, symObjAddr: 0x1100, symBinAddr: 0xEE344, symSize: 0x1C }
  - { offset: 0x98AC1, size: 0x8, addend: 0x0, symName: __ZN5godot10ConfigFileD0Ev.cold.1, symObjAddr: 0x1100, symBinAddr: 0xEE344, symSize: 0x1C }
  - { offset: 0x98ADA, size: 0x8, addend: 0x0, symName: __ZN6sentry13RuntimeConfigD2Ev.cold.1, symObjAddr: 0x111C, symBinAddr: 0xEE360, symSize: 0x1C }
  - { offset: 0x98AF5, size: 0x8, addend: 0x0, symName: __ZN6sentry13RuntimeConfigD2Ev.cold.1, symObjAddr: 0x111C, symBinAddr: 0xEE360, symSize: 0x1C }
  - { offset: 0x98B09, size: 0x8, addend: 0x0, symName: __ZN6sentry13RuntimeConfigD2Ev.cold.1, symObjAddr: 0x111C, symBinAddr: 0xEE360, symSize: 0x1C }
  - { offset: 0x98B1D, size: 0x8, addend: 0x0, symName: __ZN6sentry13RuntimeConfigD2Ev.cold.1, symObjAddr: 0x111C, symBinAddr: 0xEE360, symSize: 0x1C }
  - { offset: 0x98B31, size: 0x8, addend: 0x0, symName: __ZN6sentry13RuntimeConfigD2Ev.cold.1, symObjAddr: 0x111C, symBinAddr: 0xEE360, symSize: 0x1C }
  - { offset: 0x98B46, size: 0x8, addend: 0x0, symName: __ZN6sentry13RuntimeConfigD2Ev.cold.1, symObjAddr: 0x111C, symBinAddr: 0xEE360, symSize: 0x1C }
  - { offset: 0x98B5D, size: 0x8, addend: 0x0, symName: _OUTLINED_FUNCTION_0, symObjAddr: 0x1138, symBinAddr: 0x12088, symSize: 0x10 }
  - { offset: 0x98B75, size: 0x8, addend: 0x0, symName: _OUTLINED_FUNCTION_1, symObjAddr: 0x1148, symBinAddr: 0x12098, symSize: 0xC }
  - { offset: 0x98B8D, size: 0x8, addend: 0x0, symName: _OUTLINED_FUNCTION_2, symObjAddr: 0x1154, symBinAddr: 0x120A4, symSize: 0xC }
  - { offset: 0x98BA5, size: 0x8, addend: 0x0, symName: _OUTLINED_FUNCTION_3, symObjAddr: 0x1160, symBinAddr: 0x120B0, symSize: 0x8 }
  - { offset: 0x98BBD, size: 0x8, addend: 0x0, symName: _OUTLINED_FUNCTION_4, symObjAddr: 0x1168, symBinAddr: 0x120B8, symSize: 0x8 }
  - { offset: 0x98BD5, size: 0x8, addend: 0x0, symName: _OUTLINED_FUNCTION_5, symObjAddr: 0x1170, symBinAddr: 0x120C0, symSize: 0x8 }
  - { offset: 0x9D6AE, size: 0x8, addend: 0x0, symName: __ZN5godot18create_method_bindIN6sentry16SentryAttachmentEJRKNS_15PackedByteArrayEEEEPNS_10MethodBindEMT_FvDpT0_E, symObjAddr: 0x25E4, symBinAddr: 0x140AC, symSize: 0x114 }
  - { offset: 0x9D7F6, size: 0x8, addend: 0x0, symName: __ZN5godot18create_method_bindIN6sentry16SentryAttachmentENS_15PackedByteArrayEJEEEPNS_10MethodBindEMT_KFT0_DpT1_E, symObjAddr: 0x2A54, symBinAddr: 0x1451C, symSize: 0x12C }
  - { offset: 0x9D92C, size: 0x8, addend: 0x0, symName: __ZN5godot18create_method_bindIN6sentry16SentryAttachmentEJRKNS_6StringEEEEPNS_10MethodBindEMT_FvDpT0_E, symObjAddr: 0x2E00, symBinAddr: 0x148C8, symSize: 0x114 }
  - { offset: 0x9DA5F, size: 0x8, addend: 0x0, symName: __ZN5godot18create_method_bindIN6sentry16SentryAttachmentENS_6StringEJEEEPNS_10MethodBindEMT_KFT0_DpT1_E, symObjAddr: 0x3270, symBinAddr: 0x14D38, symSize: 0x12C }
  - { offset: 0x9DECB, size: 0x8, addend: 0x0, symName: __ZN5godot34call_get_argument_type_info_helperIRKNS_6StringEEEviRiRNS_12PropertyInfoE, symObjAddr: 0x1BD0, symBinAddr: 0x13698, symSize: 0x174 }
  - { offset: 0x9DFEE, size: 0x8, addend: 0x0, symName: __ZN5godot36call_with_variant_args_static_ret_dvINS_3RefIN6sentry16SentryAttachmentEEEJRKNS_6StringEEEEvPFT_DpT0_EPKPKviRNS_7VariantER20GDExtensionCallErrorRKNSt3__16vectorISH_NSL_9allocatorISH_EEEE, symObjAddr: 0x1D44, symBinAddr: 0x1380C, symSize: 0x104 }
  - { offset: 0x9E180, size: 0x8, addend: 0x0, symName: __ZN5godot43call_with_ptr_args_static_method_ret_helperINS_3RefIN6sentry16SentryAttachmentEEEJRKNS_6StringEEJLm0EEEEvPFT_DpT0_EPKPKvPvNS_13IndexSequenceIJXspT1_EEEE, symObjAddr: 0x1F0C, symBinAddr: 0x139D4, symSize: 0xD4 }
  - { offset: 0x9E360, size: 0x8, addend: 0x0, symName: __ZN5godot33call_with_variant_args_static_retINS_3RefIN6sentry16SentryAttachmentEEEJRKNS_6StringEEJLm0EEEEvPFT_DpT0_EPPKNS_7VariantERSD_R20GDExtensionCallErrorNS_13IndexSequenceIJXspT1_EEEE, symObjAddr: 0x1E48, symBinAddr: 0x13910, symSize: 0xC4 }
  - { offset: 0x9E59B, size: 0x8, addend: 0x0, symName: __ZN5godot34call_get_argument_type_info_helperIRKNS_15PackedByteArrayEEEviRiRNS_12PropertyInfoE, symObjAddr: 0x2114, symBinAddr: 0x13BDC, symSize: 0x174 }
  - { offset: 0x9E6BE, size: 0x8, addend: 0x0, symName: __ZN5godot36call_with_variant_args_static_ret_dvINS_3RefIN6sentry16SentryAttachmentEEEJRKNS_15PackedByteArrayERKNS_6StringEEEEvPFT_DpT0_EPKPKviRNS_7VariantER20GDExtensionCallErrorRKNSt3__16vectorISK_NSO_9allocatorISK_EEEE, symObjAddr: 0x2288, symBinAddr: 0x13D50, symSize: 0x168 }
  - { offset: 0x9E866, size: 0x8, addend: 0x0, symName: __ZN5godot43call_with_ptr_args_static_method_ret_helperINS_3RefIN6sentry16SentryAttachmentEEEJRKNS_15PackedByteArrayERKNS_6StringEEJLm0ELm1EEEEvPFT_DpT0_EPKPKvPvNS_13IndexSequenceIJXspT1_EEEE, symObjAddr: 0x24D8, symBinAddr: 0x13FA0, symSize: 0xF8 }
  - { offset: 0x9EA15, size: 0x8, addend: 0x0, symName: __ZN5godot33call_with_variant_args_static_retINS_3RefIN6sentry16SentryAttachmentEEEJRKNS_15PackedByteArrayERKNS_6StringEEJLm0ELm1EEEEvPFT_DpT0_EPPKNS_7VariantERSG_R20GDExtensionCallErrorNS_13IndexSequenceIJXspT1_EEEE, symObjAddr: 0x23F0, symBinAddr: 0x13EB8, symSize: 0xE8 }
  - { offset: 0x9ED78, size: 0x8, addend: 0x0, symName: __ZN5godot25call_with_variant_args_dvINS_20_gde_UnexistingClassEJRKNS_15PackedByteArrayEEEEvPT_MS5_FvDpT0_EPKPKviR20GDExtensionCallErrorRKNSt3__16vectorINS_7VariantENSH_9allocatorISJ_EEEE, symObjAddr: 0x2920, symBinAddr: 0x143E8, symSize: 0x134 }
  - { offset: 0x9F48B, size: 0x8, addend: 0x0, symName: __ZN5godot25call_with_variant_args_dvINS_20_gde_UnexistingClassEJRKNS_6StringEEEEvPT_MS5_FvDpT0_EPKPKviR20GDExtensionCallErrorRKNSt3__16vectorINS_7VariantENSH_9allocatorISJ_EEEE, symObjAddr: 0x313C, symBinAddr: 0x14C04, symSize: 0x134 }
  - { offset: 0xAD9BE, size: 0x8, addend: 0x0, symName: ___cxx_global_var_init, symObjAddr: 0x3D6C, symBinAddr: 0x1515C, symSize: 0x4C }
  - { offset: 0xADA43, size: 0x8, addend: 0x0, symName: ___cxx_global_var_init.1, symObjAddr: 0x3DB8, symBinAddr: 0x151A8, symSize: 0x4C }
  - { offset: 0xADAC8, size: 0x8, addend: 0x0, symName: ___cxx_global_var_init.2, symObjAddr: 0x3E04, symBinAddr: 0x151F4, symSize: 0x4C }
  - { offset: 0xADC4C, size: 0x8, addend: 0x0, symName: __ZN6sentry16SentryAttachment16create_with_pathERKN5godot6StringE, symObjAddr: 0x0, symBinAddr: 0x121F8, symSize: 0x14C }
  - { offset: 0xADE00, size: 0x8, addend: 0x0, symName: __ZN6sentry16SentryAttachment16create_with_pathERKN5godot6StringE.cold.2, symObjAddr: 0x368C, symBinAddr: 0xEE3D8, symSize: 0x44 }
  - { offset: 0xADE43, size: 0x8, addend: 0x0, symName: __ZN6sentry16SentryAttachment16create_with_pathERKN5godot6StringE.cold.1, symObjAddr: 0x3630, symBinAddr: 0xEE37C, symSize: 0x5C }
  - { offset: 0xADEB0, size: 0x8, addend: 0x0, symName: __ZN6sentry16SentryAttachment17create_with_bytesERKN5godot15PackedByteArrayERKNS1_6StringE, symObjAddr: 0x14C, symBinAddr: 0x12344, symSize: 0x160 }
  - { offset: 0xAE06E, size: 0x8, addend: 0x0, symName: __ZN6sentry16SentryAttachment17create_with_bytesERKN5godot15PackedByteArrayERKNS1_6StringE.cold.2, symObjAddr: 0x372C, symBinAddr: 0xEE478, symSize: 0x44 }
  - { offset: 0xAE0B1, size: 0x8, addend: 0x0, symName: __ZN6sentry16SentryAttachment17create_with_bytesERKN5godot15PackedByteArrayERKNS1_6StringE.cold.1, symObjAddr: 0x36D0, symBinAddr: 0xEE41C, symSize: 0x5C }
  - { offset: 0xAE90D, size: 0x8, addend: 0x0, symName: __ZN6sentry16SentryAttachment13_bind_methodsEv, symObjAddr: 0x2AC, symBinAddr: 0x124A4, symSize: 0xD3C }
  - { offset: 0xB0B63, size: 0x8, addend: 0x0, symName: __ZN5godot7ClassDB18bind_static_methodINS_16MethodDefinitionEPFNS_3RefIN6sentry16SentryAttachmentEEERKNS_6StringEEJEEEPNS_10MethodBindENS_10StringNameET_T0_DpT1_, symObjAddr: 0xFE8, symBinAddr: 0x131E0, symSize: 0x144 }
  - { offset: 0xB0CEA, size: 0x8, addend: 0x0, symName: __ZN5godot7ClassDB18bind_static_methodINS_16MethodDefinitionEPFNS_3RefIN6sentry16SentryAttachmentEEERKNS_15PackedByteArrayERKNS_6StringEEJEEEPNS_10MethodBindENS_10StringNameET_T0_DpT1_, symObjAddr: 0x112C, symBinAddr: 0x13324, symSize: 0x140 }
  - { offset: 0xB0E61, size: 0x8, addend: 0x0, symName: __ZN6sentry16SentryAttachment13_bind_methodsEv.cold.1, symObjAddr: 0x3770, symBinAddr: 0xEE4BC, symSize: 0x58 }
  - { offset: 0xB0E8F, size: 0x8, addend: 0x0, symName: __ZN6sentry16SentryAttachment13_bind_methodsEv.cold.2, symObjAddr: 0x37C8, symBinAddr: 0xEE514, symSize: 0x58 }
  - { offset: 0xB0EBD, size: 0x8, addend: 0x0, symName: __ZN6sentry16SentryAttachment13_bind_methodsEv.cold.3, symObjAddr: 0x3820, symBinAddr: 0xEE56C, symSize: 0x58 }
  - { offset: 0xB0EEB, size: 0x8, addend: 0x0, symName: __ZN6sentry16SentryAttachment13_bind_methodsEv.cold.4, symObjAddr: 0x3878, symBinAddr: 0xEE5C4, symSize: 0x58 }
  - { offset: 0xB10F8, size: 0x8, addend: 0x0, symName: __ZN5godot10RefCountedD1Ev.cold.1, symObjAddr: 0x38D0, symBinAddr: 0xEE61C, symSize: 0x1C }
  - { offset: 0xB1113, size: 0x8, addend: 0x0, symName: __ZN5godot10RefCountedD1Ev.cold.1, symObjAddr: 0x38D0, symBinAddr: 0xEE61C, symSize: 0x1C }
  - { offset: 0xB1127, size: 0x8, addend: 0x0, symName: __ZN5godot10RefCountedD1Ev.cold.1, symObjAddr: 0x38D0, symBinAddr: 0xEE61C, symSize: 0x1C }
  - { offset: 0xB113B, size: 0x8, addend: 0x0, symName: __ZN5godot10RefCountedD1Ev.cold.1, symObjAddr: 0x38D0, symBinAddr: 0xEE61C, symSize: 0x1C }
  - { offset: 0xB114F, size: 0x8, addend: 0x0, symName: __ZN5godot10RefCountedD1Ev.cold.1, symObjAddr: 0x38D0, symBinAddr: 0xEE61C, symSize: 0x1C }
  - { offset: 0xB1164, size: 0x8, addend: 0x0, symName: __ZN5godot10RefCountedD1Ev.cold.1, symObjAddr: 0x38D0, symBinAddr: 0xEE61C, symSize: 0x1C }
  - { offset: 0xB1197, size: 0x8, addend: 0x0, symName: __ZN5godot10RefCountedD0Ev.cold.1, symObjAddr: 0x38EC, symBinAddr: 0xEE638, symSize: 0x1C }
  - { offset: 0xB11B2, size: 0x8, addend: 0x0, symName: __ZN5godot10RefCountedD0Ev.cold.1, symObjAddr: 0x38EC, symBinAddr: 0xEE638, symSize: 0x1C }
  - { offset: 0xB11C6, size: 0x8, addend: 0x0, symName: __ZN5godot10RefCountedD0Ev.cold.1, symObjAddr: 0x38EC, symBinAddr: 0xEE638, symSize: 0x1C }
  - { offset: 0xB11DA, size: 0x8, addend: 0x0, symName: __ZN5godot10RefCountedD0Ev.cold.1, symObjAddr: 0x38EC, symBinAddr: 0xEE638, symSize: 0x1C }
  - { offset: 0xB11EE, size: 0x8, addend: 0x0, symName: __ZN5godot10RefCountedD0Ev.cold.1, symObjAddr: 0x38EC, symBinAddr: 0xEE638, symSize: 0x1C }
  - { offset: 0xB1202, size: 0x8, addend: 0x0, symName: __ZN5godot10RefCountedD0Ev.cold.1, symObjAddr: 0x38EC, symBinAddr: 0xEE638, symSize: 0x1C }
  - { offset: 0xB1217, size: 0x8, addend: 0x0, symName: __ZN5godot10RefCountedD0Ev.cold.1, symObjAddr: 0x38EC, symBinAddr: 0xEE638, symSize: 0x1C }
  - { offset: 0xB122F, size: 0x8, addend: 0x0, symName: __ZN5godot6ObjectD1Ev.cold.1, symObjAddr: 0x3908, symBinAddr: 0xEE654, symSize: 0x1C }
  - { offset: 0xB124A, size: 0x8, addend: 0x0, symName: __ZN5godot6ObjectD1Ev.cold.1, symObjAddr: 0x3908, symBinAddr: 0xEE654, symSize: 0x1C }
  - { offset: 0xB125E, size: 0x8, addend: 0x0, symName: __ZN5godot6ObjectD1Ev.cold.1, symObjAddr: 0x3908, symBinAddr: 0xEE654, symSize: 0x1C }
  - { offset: 0xB1272, size: 0x8, addend: 0x0, symName: __ZN5godot6ObjectD1Ev.cold.1, symObjAddr: 0x3908, symBinAddr: 0xEE654, symSize: 0x1C }
  - { offset: 0xB1287, size: 0x8, addend: 0x0, symName: __ZN5godot6ObjectD1Ev.cold.1, symObjAddr: 0x3908, symBinAddr: 0xEE654, symSize: 0x1C }
  - { offset: 0xB12B7, size: 0x8, addend: 0x0, symName: __ZN5godot6ObjectD0Ev.cold.1, symObjAddr: 0x3924, symBinAddr: 0xEE670, symSize: 0x1C }
  - { offset: 0xB12D2, size: 0x8, addend: 0x0, symName: __ZN5godot6ObjectD0Ev.cold.1, symObjAddr: 0x3924, symBinAddr: 0xEE670, symSize: 0x1C }
  - { offset: 0xB12E6, size: 0x8, addend: 0x0, symName: __ZN5godot6ObjectD0Ev.cold.1, symObjAddr: 0x3924, symBinAddr: 0xEE670, symSize: 0x1C }
  - { offset: 0xB12FA, size: 0x8, addend: 0x0, symName: __ZN5godot6ObjectD0Ev.cold.1, symObjAddr: 0x3924, symBinAddr: 0xEE670, symSize: 0x1C }
  - { offset: 0xB130E, size: 0x8, addend: 0x0, symName: __ZN5godot6ObjectD0Ev.cold.1, symObjAddr: 0x3924, symBinAddr: 0xEE670, symSize: 0x1C }
  - { offset: 0xB1323, size: 0x8, addend: 0x0, symName: __ZN5godot6ObjectD0Ev.cold.1, symObjAddr: 0x3924, symBinAddr: 0xEE670, symSize: 0x1C }
  - { offset: 0xB133A, size: 0x8, addend: 0x0, symName: __ZN5godot7WrappedD1Ev.cold.1, symObjAddr: 0x3940, symBinAddr: 0xEE68C, symSize: 0x1C }
  - { offset: 0xB1355, size: 0x8, addend: 0x0, symName: __ZN5godot7WrappedD1Ev.cold.1, symObjAddr: 0x3940, symBinAddr: 0xEE68C, symSize: 0x1C }
  - { offset: 0xB1369, size: 0x8, addend: 0x0, symName: __ZN5godot7WrappedD1Ev.cold.1, symObjAddr: 0x3940, symBinAddr: 0xEE68C, symSize: 0x1C }
  - { offset: 0xB137E, size: 0x8, addend: 0x0, symName: __ZN5godot7WrappedD1Ev.cold.1, symObjAddr: 0x3940, symBinAddr: 0xEE68C, symSize: 0x1C }
  - { offset: 0xB13AD, size: 0x8, addend: 0x0, symName: __ZN5godot7WrappedD0Ev.cold.1, symObjAddr: 0x395C, symBinAddr: 0xEE6A8, symSize: 0x1C }
  - { offset: 0xB13C8, size: 0x8, addend: 0x0, symName: __ZN5godot7WrappedD0Ev.cold.1, symObjAddr: 0x395C, symBinAddr: 0xEE6A8, symSize: 0x1C }
  - { offset: 0xB13DC, size: 0x8, addend: 0x0, symName: __ZN5godot7WrappedD0Ev.cold.1, symObjAddr: 0x395C, symBinAddr: 0xEE6A8, symSize: 0x1C }
  - { offset: 0xB13F0, size: 0x8, addend: 0x0, symName: __ZN5godot7WrappedD0Ev.cold.1, symObjAddr: 0x395C, symBinAddr: 0xEE6A8, symSize: 0x1C }
  - { offset: 0xB1405, size: 0x8, addend: 0x0, symName: __ZN5godot7WrappedD0Ev.cold.1, symObjAddr: 0x395C, symBinAddr: 0xEE6A8, symSize: 0x1C }
  - { offset: 0xB141B, size: 0x8, addend: 0x0, symName: __ZN5godot4ListINS_12PropertyInfoENS_16DefaultAllocatorEE5_Data5eraseEPNS3_7ElementE.cold.2, symObjAddr: 0x3998, symBinAddr: 0xEE6E4, symSize: 0x20 }
  - { offset: 0xB1433, size: 0x8, addend: 0x0, symName: __ZN5godot4ListINS_12PropertyInfoENS_16DefaultAllocatorEE5_Data5eraseEPNS3_7ElementE.cold.1, symObjAddr: 0x3978, symBinAddr: 0xEE6C4, symSize: 0x20 }
  - { offset: 0xB144B, size: 0x8, addend: 0x0, symName: __ZN6sentry16SentryAttachmentD2Ev.cold.1, symObjAddr: 0x39B8, symBinAddr: 0xEE704, symSize: 0x1C }
  - { offset: 0xB1466, size: 0x8, addend: 0x0, symName: __ZN6sentry16SentryAttachmentD2Ev.cold.1, symObjAddr: 0x39B8, symBinAddr: 0xEE704, symSize: 0x1C }
  - { offset: 0xB147A, size: 0x8, addend: 0x0, symName: __ZN6sentry16SentryAttachmentD2Ev.cold.1, symObjAddr: 0x39B8, symBinAddr: 0xEE704, symSize: 0x1C }
  - { offset: 0xB148E, size: 0x8, addend: 0x0, symName: __ZN6sentry16SentryAttachmentD2Ev.cold.1, symObjAddr: 0x39B8, symBinAddr: 0xEE704, symSize: 0x1C }
  - { offset: 0xB14A2, size: 0x8, addend: 0x0, symName: __ZN6sentry16SentryAttachmentD2Ev.cold.1, symObjAddr: 0x39B8, symBinAddr: 0xEE704, symSize: 0x1C }
  - { offset: 0xB14B7, size: 0x8, addend: 0x0, symName: __ZN6sentry16SentryAttachmentD2Ev.cold.1, symObjAddr: 0x39B8, symBinAddr: 0xEE704, symSize: 0x1C }
  - { offset: 0xB14D5, size: 0x8, addend: 0x0, symName: __ZN5godot8internal23EngineClassRegistrationINS_6ObjectEE8callbackEv.cold.1, symObjAddr: 0x39D4, symBinAddr: 0xEE720, symSize: 0x5C }
  - { offset: 0xB150A, size: 0x8, addend: 0x0, symName: __ZN5godot8internal23EngineClassRegistrationINS_16ClassDBSingletonEE8callbackEv.cold.1, symObjAddr: 0x3A30, symBinAddr: 0xEE77C, symSize: 0x5C }
  - { offset: 0xB153F, size: 0x8, addend: 0x0, symName: __ZN5godot8internal23EngineClassRegistrationINS_10RefCountedEE8callbackEv.cold.1, symObjAddr: 0x3A8C, symBinAddr: 0xEE7D8, symSize: 0x5C }
  - { offset: 0xB156D, size: 0x8, addend: 0x0, symName: __ZNK5godot13MethodBindTRSINS_3RefIN6sentry16SentryAttachmentEEEJRKNS_6StringEEE17gen_argument_typeEi, symObjAddr: 0x199C, symBinAddr: 0x13464, symSize: 0x14 }
  - { offset: 0xB15E3, size: 0x8, addend: 0x0, symName: __ZNK5godot13MethodBindTRSINS_3RefIN6sentry16SentryAttachmentEEEJRKNS_6StringEEE22gen_argument_type_infoEi, symObjAddr: 0x19B0, symBinAddr: 0x13478, symSize: 0x68 }
  - { offset: 0xB16DC, size: 0x8, addend: 0x0, symName: __ZN5godot11GetTypeInfoINS_3RefIN6sentry16SentryAttachmentEEEvE14get_class_infoEv, symObjAddr: 0x1AA4, symBinAddr: 0x1356C, symSize: 0x12C }
  - { offset: 0xB1784, size: 0x8, addend: 0x0, symName: __ZNK5godot13MethodBindTRSINS_3RefIN6sentry16SentryAttachmentEEEJRKNS_6StringEEE21get_argument_metadataEi, symObjAddr: 0x1A18, symBinAddr: 0x134E0, symSize: 0x8 }
  - { offset: 0xB17D5, size: 0x8, addend: 0x0, symName: __ZNK5godot13MethodBindTRSINS_3RefIN6sentry16SentryAttachmentEEEJRKNS_6StringEEE4callEPvPKPKvxR20GDExtensionCallError, symObjAddr: 0x1A20, symBinAddr: 0x134E8, symSize: 0x5C }
  - { offset: 0xB187D, size: 0x8, addend: 0x0, symName: __ZNK5godot13MethodBindTRSINS_3RefIN6sentry16SentryAttachmentEEEJRKNS_6StringEEE7ptrcallEPvPKPKvS9_, symObjAddr: 0x1A7C, symBinAddr: 0x13544, symSize: 0x10 }
  - { offset: 0xB193D, size: 0x8, addend: 0x0, symName: __ZN5godot13MethodBindTRSINS_3RefIN6sentry16SentryAttachmentEEEJRKNS_6StringEEED1Ev, symObjAddr: 0x1A8C, symBinAddr: 0x13554, symSize: 0x4 }
  - { offset: 0xB1960, size: 0x8, addend: 0x0, symName: __ZN5godot13MethodBindTRSINS_3RefIN6sentry16SentryAttachmentEEEJRKNS_6StringEEED1Ev, symObjAddr: 0x1A8C, symBinAddr: 0x13554, symSize: 0x4 }
  - { offset: 0xB1998, size: 0x8, addend: 0x0, symName: __ZN5godot13MethodBindTRSINS_3RefIN6sentry16SentryAttachmentEEEJRKNS_6StringEEED0Ev, symObjAddr: 0x1A90, symBinAddr: 0x13558, symSize: 0x14 }
  - { offset: 0xB1A00, size: 0x8, addend: 0x0, symName: __ZN5godot11GetTypeInfoINS_3RefIN6sentry16SentryAttachmentEEEvE14get_class_infoEv.cold.1, symObjAddr: 0x3AE8, symBinAddr: 0xEE834, symSize: 0x58 }
  - { offset: 0xB1B61, size: 0x8, addend: 0x0, symName: __ZN5godot43call_with_ptr_args_static_method_ret_helperINS_3RefIN6sentry16SentryAttachmentEEEJRKNS_6StringEEJLm0EEEEvPFT_DpT0_EPKPKvPvNS_13IndexSequenceIJXspT1_EEEE.cold.1, symObjAddr: 0x3B40, symBinAddr: 0xEE88C, symSize: 0x2C }
  - { offset: 0xB1B90, size: 0x8, addend: 0x0, symName: __ZNK5godot13MethodBindTRSINS_3RefIN6sentry16SentryAttachmentEEEJRKNS_15PackedByteArrayERKNS_6StringEEE17gen_argument_typeEi, symObjAddr: 0x1FE0, symBinAddr: 0x13AA8, symSize: 0x28 }
  - { offset: 0xB1BD2, size: 0x8, addend: 0x0, symName: __ZNK5godot13MethodBindTRSINS_3RefIN6sentry16SentryAttachmentEEEJRKNS_15PackedByteArrayERKNS_6StringEEE22gen_argument_type_infoEi, symObjAddr: 0x2008, symBinAddr: 0x13AD0, symSize: 0x80 }
  - { offset: 0xB1CED, size: 0x8, addend: 0x0, symName: __ZNK5godot13MethodBindTRSINS_3RefIN6sentry16SentryAttachmentEEEJRKNS_15PackedByteArrayERKNS_6StringEEE21get_argument_metadataEi, symObjAddr: 0x2088, symBinAddr: 0x13B50, symSize: 0x8 }
  - { offset: 0xB1D23, size: 0x8, addend: 0x0, symName: __ZNK5godot13MethodBindTRSINS_3RefIN6sentry16SentryAttachmentEEEJRKNS_15PackedByteArrayERKNS_6StringEEE4callEPvPKPKvxR20GDExtensionCallError, symObjAddr: 0x2090, symBinAddr: 0x13B58, symSize: 0x5C }
  - { offset: 0xB1DCB, size: 0x8, addend: 0x0, symName: __ZNK5godot13MethodBindTRSINS_3RefIN6sentry16SentryAttachmentEEEJRKNS_15PackedByteArrayERKNS_6StringEEE7ptrcallEPvPKPKvSC_, symObjAddr: 0x20EC, symBinAddr: 0x13BB4, symSize: 0x10 }
  - { offset: 0xB1E8B, size: 0x8, addend: 0x0, symName: __ZN5godot13MethodBindTRSINS_3RefIN6sentry16SentryAttachmentEEEJRKNS_15PackedByteArrayERKNS_6StringEEED1Ev, symObjAddr: 0x20FC, symBinAddr: 0x13BC4, symSize: 0x4 }
  - { offset: 0xB1EAE, size: 0x8, addend: 0x0, symName: __ZN5godot13MethodBindTRSINS_3RefIN6sentry16SentryAttachmentEEEJRKNS_15PackedByteArrayERKNS_6StringEEED1Ev, symObjAddr: 0x20FC, symBinAddr: 0x13BC4, symSize: 0x4 }
  - { offset: 0xB1EE6, size: 0x8, addend: 0x0, symName: __ZN5godot13MethodBindTRSINS_3RefIN6sentry16SentryAttachmentEEEJRKNS_15PackedByteArrayERKNS_6StringEEED0Ev, symObjAddr: 0x2100, symBinAddr: 0x13BC8, symSize: 0x14 }
  - { offset: 0xB1F7B, size: 0x8, addend: 0x0, symName: __ZN5godot43call_with_ptr_args_static_method_ret_helperINS_3RefIN6sentry16SentryAttachmentEEEJRKNS_15PackedByteArrayERKNS_6StringEEJLm0ELm1EEEEvPFT_DpT0_EPKPKvPvNS_13IndexSequenceIJXspT1_EEEE.cold.1, symObjAddr: 0x3B6C, symBinAddr: 0xEE8B8, symSize: 0x2C }
  - { offset: 0xB1FAA, size: 0x8, addend: 0x0, symName: __ZN6sentry16SentryAttachment9set_bytesERKN5godot15PackedByteArrayE, symObjAddr: 0x25D0, symBinAddr: 0x14098, symSize: 0x8 }
  - { offset: 0xB1FDF, size: 0x8, addend: 0x0, symName: __ZNK6sentry16SentryAttachment9get_bytesEv, symObjAddr: 0x25D8, symBinAddr: 0x140A0, symSize: 0xC }
  - { offset: 0xB2068, size: 0x8, addend: 0x0, symName: __ZN5godot18create_method_bindIN6sentry16SentryAttachmentEJRKNS_15PackedByteArrayEEEEPNS_10MethodBindEMT_FvDpT0_E.cold.1, symObjAddr: 0x3B98, symBinAddr: 0xEE8E4, symSize: 0x5C }
  - { offset: 0xB2097, size: 0x8, addend: 0x0, symName: __ZNK5godot11MethodBindTIJRKNS_15PackedByteArrayEEE17gen_argument_typeEi, symObjAddr: 0x26F8, symBinAddr: 0x141C0, symSize: 0x10 }
  - { offset: 0xB20CD, size: 0x8, addend: 0x0, symName: __ZNK5godot11MethodBindTIJRKNS_15PackedByteArrayEEE22gen_argument_type_infoEi, symObjAddr: 0x2708, symBinAddr: 0x141D0, symSize: 0x138 }
  - { offset: 0xB2206, size: 0x8, addend: 0x0, symName: __ZNK5godot11MethodBindTIJRKNS_15PackedByteArrayEEE21get_argument_metadataEi, symObjAddr: 0x2840, symBinAddr: 0x14308, symSize: 0x8 }
  - { offset: 0xB223C, size: 0x8, addend: 0x0, symName: __ZNK5godot11MethodBindTIJRKNS_15PackedByteArrayEEE4callEPvPKPKvxR20GDExtensionCallError, symObjAddr: 0x2848, symBinAddr: 0x14310, symSize: 0x40 }
  - { offset: 0xB22E9, size: 0x8, addend: 0x0, symName: __ZNK5godot11MethodBindTIJRKNS_15PackedByteArrayEEE7ptrcallEPvPKPKvS5_, symObjAddr: 0x2888, symBinAddr: 0x14350, symSize: 0x80 }
  - { offset: 0xB23E2, size: 0x8, addend: 0x0, symName: __ZN5godot11MethodBindTIJRKNS_15PackedByteArrayEEED1Ev, symObjAddr: 0x2908, symBinAddr: 0x143D0, symSize: 0x4 }
  - { offset: 0xB2405, size: 0x8, addend: 0x0, symName: __ZN5godot11MethodBindTIJRKNS_15PackedByteArrayEEED1Ev, symObjAddr: 0x2908, symBinAddr: 0x143D0, symSize: 0x4 }
  - { offset: 0xB243D, size: 0x8, addend: 0x0, symName: __ZN5godot11MethodBindTIJRKNS_15PackedByteArrayEEED0Ev, symObjAddr: 0x290C, symBinAddr: 0x143D4, symSize: 0x14 }
  - { offset: 0xB2507, size: 0x8, addend: 0x0, symName: __ZN5godot18create_method_bindIN6sentry16SentryAttachmentENS_15PackedByteArrayEJEEEPNS_10MethodBindEMT_KFT0_DpT1_E.cold.1, symObjAddr: 0x3BF4, symBinAddr: 0xEE940, symSize: 0x5C }
  - { offset: 0xB2536, size: 0x8, addend: 0x0, symName: __ZNK5godot13MethodBindTRCINS_15PackedByteArrayEJEE17gen_argument_typeEi, symObjAddr: 0x2B80, symBinAddr: 0x14648, symSize: 0x8 }
  - { offset: 0xB2573, size: 0x8, addend: 0x0, symName: __ZNK5godot13MethodBindTRCINS_15PackedByteArrayEJEE22gen_argument_type_infoEi, symObjAddr: 0x2B88, symBinAddr: 0x14650, symSize: 0xF8 }
  - { offset: 0xB2636, size: 0x8, addend: 0x0, symName: __ZNK5godot13MethodBindTRCINS_15PackedByteArrayEJEE21get_argument_metadataEi, symObjAddr: 0x2C80, symBinAddr: 0x14748, symSize: 0x8 }
  - { offset: 0xB26B1, size: 0x8, addend: 0x0, symName: __ZNK5godot13MethodBindTRCINS_15PackedByteArrayEJEE4callEPvPKPKvxR20GDExtensionCallError, symObjAddr: 0x2C88, symBinAddr: 0x14750, symSize: 0xCC }
  - { offset: 0xB27CE, size: 0x8, addend: 0x0, symName: __ZNK5godot13MethodBindTRCINS_15PackedByteArrayEJEE7ptrcallEPvPKPKvS3_, symObjAddr: 0x2D54, symBinAddr: 0x1481C, symSize: 0x80 }
  - { offset: 0xB28C2, size: 0x8, addend: 0x0, symName: __ZN5godot13MethodBindTRCINS_15PackedByteArrayEJEED1Ev, symObjAddr: 0x2DD4, symBinAddr: 0x1489C, symSize: 0x4 }
  - { offset: 0xB28E5, size: 0x8, addend: 0x0, symName: __ZN5godot13MethodBindTRCINS_15PackedByteArrayEJEED1Ev, symObjAddr: 0x2DD4, symBinAddr: 0x1489C, symSize: 0x4 }
  - { offset: 0xB291D, size: 0x8, addend: 0x0, symName: __ZN5godot13MethodBindTRCINS_15PackedByteArrayEJEED0Ev, symObjAddr: 0x2DD8, symBinAddr: 0x148A0, symSize: 0x14 }
  - { offset: 0xB2985, size: 0x8, addend: 0x0, symName: __ZN6sentry16SentryAttachment8set_pathERKN5godot6StringE, symObjAddr: 0x2DEC, symBinAddr: 0x148B4, symSize: 0x8 }
  - { offset: 0xB29BA, size: 0x8, addend: 0x0, symName: __ZNK6sentry16SentryAttachment8get_pathEv, symObjAddr: 0x2DF4, symBinAddr: 0x148BC, symSize: 0xC }
  - { offset: 0xB2A43, size: 0x8, addend: 0x0, symName: __ZN5godot18create_method_bindIN6sentry16SentryAttachmentEJRKNS_6StringEEEEPNS_10MethodBindEMT_FvDpT0_E.cold.1, symObjAddr: 0x3C50, symBinAddr: 0xEE99C, symSize: 0x5C }
  - { offset: 0xB2A72, size: 0x8, addend: 0x0, symName: __ZNK5godot11MethodBindTIJRKNS_6StringEEE17gen_argument_typeEi, symObjAddr: 0x2F14, symBinAddr: 0x149DC, symSize: 0x10 }
  - { offset: 0xB2AA8, size: 0x8, addend: 0x0, symName: __ZNK5godot11MethodBindTIJRKNS_6StringEEE22gen_argument_type_infoEi, symObjAddr: 0x2F24, symBinAddr: 0x149EC, symSize: 0x138 }
  - { offset: 0xB2BE1, size: 0x8, addend: 0x0, symName: __ZNK5godot11MethodBindTIJRKNS_6StringEEE21get_argument_metadataEi, symObjAddr: 0x305C, symBinAddr: 0x14B24, symSize: 0x8 }
  - { offset: 0xB2C17, size: 0x8, addend: 0x0, symName: __ZNK5godot11MethodBindTIJRKNS_6StringEEE4callEPvPKPKvxR20GDExtensionCallError, symObjAddr: 0x3064, symBinAddr: 0x14B2C, symSize: 0x40 }
  - { offset: 0xB2CC4, size: 0x8, addend: 0x0, symName: __ZNK5godot11MethodBindTIJRKNS_6StringEEE7ptrcallEPvPKPKvS5_, symObjAddr: 0x30A4, symBinAddr: 0x14B6C, symSize: 0x80 }
  - { offset: 0xB2DBD, size: 0x8, addend: 0x0, symName: __ZN5godot11MethodBindTIJRKNS_6StringEEED1Ev, symObjAddr: 0x3124, symBinAddr: 0x14BEC, symSize: 0x4 }
  - { offset: 0xB2DE0, size: 0x8, addend: 0x0, symName: __ZN5godot11MethodBindTIJRKNS_6StringEEED1Ev, symObjAddr: 0x3124, symBinAddr: 0x14BEC, symSize: 0x4 }
  - { offset: 0xB2E18, size: 0x8, addend: 0x0, symName: __ZN5godot11MethodBindTIJRKNS_6StringEEED0Ev, symObjAddr: 0x3128, symBinAddr: 0x14BF0, symSize: 0x14 }
  - { offset: 0xB2EE2, size: 0x8, addend: 0x0, symName: __ZN5godot18create_method_bindIN6sentry16SentryAttachmentENS_6StringEJEEEPNS_10MethodBindEMT_KFT0_DpT1_E.cold.1, symObjAddr: 0x3CAC, symBinAddr: 0xEE9F8, symSize: 0x5C }
  - { offset: 0xB2F11, size: 0x8, addend: 0x0, symName: __ZNK5godot13MethodBindTRCINS_6StringEJEE17gen_argument_typeEi, symObjAddr: 0x339C, symBinAddr: 0x14E64, symSize: 0x8 }
  - { offset: 0xB2F4E, size: 0x8, addend: 0x0, symName: __ZNK5godot13MethodBindTRCINS_6StringEJEE22gen_argument_type_infoEi, symObjAddr: 0x33A4, symBinAddr: 0x14E6C, symSize: 0xF8 }
  - { offset: 0xB3011, size: 0x8, addend: 0x0, symName: __ZNK5godot13MethodBindTRCINS_6StringEJEE21get_argument_metadataEi, symObjAddr: 0x349C, symBinAddr: 0x14F64, symSize: 0x8 }
  - { offset: 0xB3047, size: 0x8, addend: 0x0, symName: __ZNK5godot13MethodBindTRCINS_6StringEJEE4callEPvPKPKvxR20GDExtensionCallError, symObjAddr: 0x34A4, symBinAddr: 0x14F6C, symSize: 0xCC }
  - { offset: 0xB3164, size: 0x8, addend: 0x0, symName: __ZNK5godot13MethodBindTRCINS_6StringEJEE7ptrcallEPvPKPKvS3_, symObjAddr: 0x3570, symBinAddr: 0x15038, symSize: 0x80 }
  - { offset: 0xB3258, size: 0x8, addend: 0x0, symName: __ZN5godot13MethodBindTRCINS_6StringEJEED1Ev, symObjAddr: 0x35F0, symBinAddr: 0x150B8, symSize: 0x4 }
  - { offset: 0xB327B, size: 0x8, addend: 0x0, symName: __ZN5godot13MethodBindTRCINS_6StringEJEED1Ev, symObjAddr: 0x35F0, symBinAddr: 0x150B8, symSize: 0x4 }
  - { offset: 0xB32B3, size: 0x8, addend: 0x0, symName: __ZN5godot13MethodBindTRCINS_6StringEJEED0Ev, symObjAddr: 0x35F4, symBinAddr: 0x150BC, symSize: 0x14 }
  - { offset: 0xB331B, size: 0x8, addend: 0x0, symName: __ZN6sentry16SentryAttachment12set_filenameERKN5godot6StringE, symObjAddr: 0x3608, symBinAddr: 0x150D0, symSize: 0x8 }
  - { offset: 0xB3350, size: 0x8, addend: 0x0, symName: __ZNK6sentry16SentryAttachment12get_filenameEv, symObjAddr: 0x3610, symBinAddr: 0x150D8, symSize: 0xC }
  - { offset: 0xB3377, size: 0x8, addend: 0x0, symName: __ZN6sentry16SentryAttachment16set_content_typeERKN5godot6StringE, symObjAddr: 0x361C, symBinAddr: 0x150E4, symSize: 0x8 }
  - { offset: 0xB33AC, size: 0x8, addend: 0x0, symName: __ZNK6sentry16SentryAttachment16get_content_typeEv, symObjAddr: 0x3624, symBinAddr: 0x150EC, symSize: 0xC }
  - { offset: 0xB3407, size: 0x8, addend: 0x0, symName: _OUTLINED_FUNCTION_0, symObjAddr: 0x3D08, symBinAddr: 0x150F8, symSize: 0x10 }
  - { offset: 0xB341F, size: 0x8, addend: 0x0, symName: _OUTLINED_FUNCTION_1, symObjAddr: 0x3D18, symBinAddr: 0x15108, symSize: 0xC }
  - { offset: 0xB3437, size: 0x8, addend: 0x0, symName: _OUTLINED_FUNCTION_2, symObjAddr: 0x3D24, symBinAddr: 0x15114, symSize: 0x8 }
  - { offset: 0xB344F, size: 0x8, addend: 0x0, symName: _OUTLINED_FUNCTION_3, symObjAddr: 0x3D2C, symBinAddr: 0x1511C, symSize: 0x8 }
  - { offset: 0xB3467, size: 0x8, addend: 0x0, symName: _OUTLINED_FUNCTION_4, symObjAddr: 0x3D34, symBinAddr: 0x15124, symSize: 0x8 }
  - { offset: 0xB347F, size: 0x8, addend: 0x0, symName: _OUTLINED_FUNCTION_5, symObjAddr: 0x3D3C, symBinAddr: 0x1512C, symSize: 0x8 }
  - { offset: 0xB3497, size: 0x8, addend: 0x0, symName: _OUTLINED_FUNCTION_6, symObjAddr: 0x3D44, symBinAddr: 0x15134, symSize: 0xC }
  - { offset: 0xB34AF, size: 0x8, addend: 0x0, symName: _OUTLINED_FUNCTION_7, symObjAddr: 0x3D50, symBinAddr: 0x15140, symSize: 0x10 }
  - { offset: 0xB34C7, size: 0x8, addend: 0x0, symName: _OUTLINED_FUNCTION_8, symObjAddr: 0x3D60, symBinAddr: 0x15150, symSize: 0xC }
  - { offset: 0xB9309, size: 0x8, addend: 0x0, symName: __ZN5godot18create_method_bindIN6sentry16SentryBreadcrumbEJRKNS_6StringEEEEPNS_10MethodBindEMT_FvDpT0_E, symObjAddr: 0x21C8, symBinAddr: 0x16628, symSize: 0x114 }
  - { offset: 0xB9451, size: 0x8, addend: 0x0, symName: __ZN5godot18create_method_bindIN6sentry16SentryBreadcrumbENS_6StringEJEEEPNS_10MethodBindEMT_KFT0_DpT1_E, symObjAddr: 0x2638, symBinAddr: 0x1673C, symSize: 0x12C }
  - { offset: 0xB9587, size: 0x8, addend: 0x0, symName: __ZN5godot18create_method_bindIN6sentry16SentryBreadcrumbEJNS1_5LevelEEEEPNS_10MethodBindEMT_FvDpT0_E, symObjAddr: 0x29D0, symBinAddr: 0x16868, symSize: 0x114 }
  - { offset: 0xB96BA, size: 0x8, addend: 0x0, symName: __ZN5godot18create_method_bindIN6sentry16SentryBreadcrumbENS1_5LevelEJEEEPNS_10MethodBindEMT_KFT0_DpT1_E, symObjAddr: 0x30E0, symBinAddr: 0x16F78, symSize: 0x12C }
  - { offset: 0xB97F0, size: 0x8, addend: 0x0, symName: __ZN5godot18create_method_bindIN6sentry16SentryBreadcrumbEJRKNS_10DictionaryEEEEPNS_10MethodBindEMT_FvDpT0_E, symObjAddr: 0x3334, symBinAddr: 0x171CC, symSize: 0x114 }
  - { offset: 0xB9923, size: 0x8, addend: 0x0, symName: __ZN5godot18create_method_bindIN6sentry16SentryBreadcrumbENS_3RefINS1_15SentryTimestampEEEJEEEPNS_10MethodBindEMT_FT0_DpT1_E, symObjAddr: 0x3918, symBinAddr: 0x177B0, symSize: 0x120 }
  - { offset: 0xB9CEE, size: 0x8, addend: 0x0, symName: __ZN5godot36call_with_variant_args_static_ret_dvINS_3RefIN6sentry16SentryBreadcrumbEEEJRKNS_6StringEEEEvPFT_DpT0_EPKPKviRNS_7VariantER20GDExtensionCallErrorRKNSt3__16vectorISH_NSL_9allocatorISH_EEEE, symObjAddr: 0x1F2C, symBinAddr: 0x1638C, symSize: 0x104 }
  - { offset: 0xB9E80, size: 0x8, addend: 0x0, symName: __ZN5godot43call_with_ptr_args_static_method_ret_helperINS_3RefIN6sentry16SentryBreadcrumbEEEJRKNS_6StringEEJLm0EEEEvPFT_DpT0_EPKPKvPvNS_13IndexSequenceIJXspT1_EEEE, symObjAddr: 0x20F4, symBinAddr: 0x16554, symSize: 0xD4 }
  - { offset: 0xBA060, size: 0x8, addend: 0x0, symName: __ZN5godot33call_with_variant_args_static_retINS_3RefIN6sentry16SentryBreadcrumbEEEJRKNS_6StringEEJLm0EEEEvPFT_DpT0_EPPKNS_7VariantERSD_R20GDExtensionCallErrorNS_13IndexSequenceIJXspT1_EEEE, symObjAddr: 0x2030, symBinAddr: 0x16490, symSize: 0xC4 }
  - { offset: 0xBA5E0, size: 0x8, addend: 0x0, symName: __ZN5godot34call_get_argument_type_info_helperIN6sentry5LevelEEEviRiRNS_12PropertyInfoE, symObjAddr: 0x2CAC, symBinAddr: 0x16B44, symSize: 0xD4 }
  - { offset: 0xBA698, size: 0x8, addend: 0x0, symName: __ZN5godot25call_with_variant_args_dvINS_20_gde_UnexistingClassEJN6sentry5LevelEEEEvPT_MS4_FvDpT0_EPKPKviR20GDExtensionCallErrorRKNSt3__16vectorINS_7VariantENSG_9allocatorISI_EEEE, symObjAddr: 0x2FB8, symBinAddr: 0x16E50, symSize: 0x128 }
  - { offset: 0xBA8EB, size: 0x8, addend: 0x0, symName: __ZN5godot38enum_qualified_name_to_class_info_nameERKNS_6StringE, symObjAddr: 0x2EA8, symBinAddr: 0x16D40, symSize: 0x110 }
  - { offset: 0xBAE31, size: 0x8, addend: 0x0, symName: __ZN5godot34call_get_argument_type_info_helperIRKNS_10DictionaryEEEviRiRNS_12PropertyInfoE, symObjAddr: 0x3670, symBinAddr: 0x17508, symSize: 0x174 }
  - { offset: 0xBAF54, size: 0x8, addend: 0x0, symName: __ZN5godot25call_with_variant_args_dvINS_20_gde_UnexistingClassEJRKNS_10DictionaryEEEEvPT_MS5_FvDpT0_EPKPKviR20GDExtensionCallErrorRKNSt3__16vectorINS_7VariantENSH_9allocatorISJ_EEEE, symObjAddr: 0x37E4, symBinAddr: 0x1767C, symSize: 0x134 }
  - { offset: 0xBB35D, size: 0x8, addend: 0x0, symName: __ZN5godot29call_with_variant_args_ret_dvINS_20_gde_UnexistingClassENS_3RefIN6sentry15SentryTimestampEEEJEEEvPT_MS6_FT0_DpT1_EPKPKviRNS_7VariantER20GDExtensionCallErrorRKNSt3__16vectorISH_NSL_9allocatorISH_EEEE, symObjAddr: 0x3C90, symBinAddr: 0x17B28, symSize: 0xE4 }
  - { offset: 0xC9334, size: 0x8, addend: 0x0, symName: ___cxx_global_var_init, symObjAddr: 0x46B0, symBinAddr: 0x17C60, symSize: 0x4C }
  - { offset: 0xC93B9, size: 0x8, addend: 0x0, symName: ___cxx_global_var_init.1, symObjAddr: 0x46FC, symBinAddr: 0x17CAC, symSize: 0x4C }
  - { offset: 0xC943E, size: 0x8, addend: 0x0, symName: ___cxx_global_var_init.2, symObjAddr: 0x4748, symBinAddr: 0x17CF8, symSize: 0x4C }
  - { offset: 0xC94C3, size: 0x8, addend: 0x0, symName: ___cxx_global_var_init.3, symObjAddr: 0x4794, symBinAddr: 0x17D44, symSize: 0x4C }
  - { offset: 0xC9548, size: 0x8, addend: 0x0, symName: ___cxx_global_var_init.4, symObjAddr: 0x47E0, symBinAddr: 0x17D90, symSize: 0x4C }
  - { offset: 0xC95CD, size: 0x8, addend: 0x0, symName: ___cxx_global_var_init.5, symObjAddr: 0x482C, symBinAddr: 0x17DDC, symSize: 0x4C }
  - { offset: 0xC9652, size: 0x8, addend: 0x0, symName: ___cxx_global_var_init.6, symObjAddr: 0x4878, symBinAddr: 0x17E28, symSize: 0x4C }
  - { offset: 0xC97C4, size: 0x8, addend: 0x0, symName: __ZN6sentry16SentryBreadcrumb6createERKN5godot6StringE, symObjAddr: 0x0, symBinAddr: 0x15240, symSize: 0xCC }
  - { offset: 0xC999C, size: 0x8, addend: 0x0, symName: __ZN6sentry16SentryBreadcrumb6createERKN5godot6StringE.cold.1, symObjAddr: 0x3D74, symBinAddr: 0xEEA54, symSize: 0x3C }
  - { offset: 0xCA01A, size: 0x8, addend: 0x0, symName: __ZN6sentry16SentryBreadcrumb13_bind_methodsEv, symObjAddr: 0xCC, symBinAddr: 0x1530C, symSize: 0xCEC }
  - { offset: 0xCC27F, size: 0x8, addend: 0x0, symName: __ZN5godot7ClassDB18bind_static_methodINS_16MethodDefinitionEPFNS_3RefIN6sentry16SentryBreadcrumbEEERKNS_6StringEEJS7_EEEPNS_10MethodBindENS_10StringNameET_T0_DpT1_, symObjAddr: 0xDB8, symBinAddr: 0x15FF8, symSize: 0x160 }
  - { offset: 0xCC426, size: 0x8, addend: 0x0, symName: __ZN6sentry16SentryBreadcrumb13_bind_methodsEv.cold.1, symObjAddr: 0x3DB0, symBinAddr: 0xEEA90, symSize: 0x58 }
  - { offset: 0xCC454, size: 0x8, addend: 0x0, symName: __ZN6sentry16SentryBreadcrumb13_bind_methodsEv.cold.2, symObjAddr: 0x3E08, symBinAddr: 0xEEAE8, symSize: 0x58 }
  - { offset: 0xCC482, size: 0x8, addend: 0x0, symName: __ZN6sentry16SentryBreadcrumb13_bind_methodsEv.cold.3, symObjAddr: 0x3E60, symBinAddr: 0xEEB40, symSize: 0x58 }
  - { offset: 0xCC4B0, size: 0x8, addend: 0x0, symName: __ZN6sentry16SentryBreadcrumb13_bind_methodsEv.cold.4, symObjAddr: 0x3EB8, symBinAddr: 0xEEB98, symSize: 0x58 }
  - { offset: 0xCC5DE, size: 0x8, addend: 0x0, symName: __ZN5godot8internal23EngineClassRegistrationINS_6ObjectEE8callbackEv.cold.1, symObjAddr: 0x3F10, symBinAddr: 0xEEBF0, symSize: 0x5C }
  - { offset: 0xCC679, size: 0x8, addend: 0x0, symName: __ZN5godot6ObjectD1Ev.cold.1, symObjAddr: 0x3F6C, symBinAddr: 0xEEC4C, symSize: 0x1C }
  - { offset: 0xCC694, size: 0x8, addend: 0x0, symName: __ZN5godot6ObjectD1Ev.cold.1, symObjAddr: 0x3F6C, symBinAddr: 0xEEC4C, symSize: 0x1C }
  - { offset: 0xCC6A8, size: 0x8, addend: 0x0, symName: __ZN5godot6ObjectD1Ev.cold.1, symObjAddr: 0x3F6C, symBinAddr: 0xEEC4C, symSize: 0x1C }
  - { offset: 0xCC6BC, size: 0x8, addend: 0x0, symName: __ZN5godot6ObjectD1Ev.cold.1, symObjAddr: 0x3F6C, symBinAddr: 0xEEC4C, symSize: 0x1C }
  - { offset: 0xCC6D1, size: 0x8, addend: 0x0, symName: __ZN5godot6ObjectD1Ev.cold.1, symObjAddr: 0x3F6C, symBinAddr: 0xEEC4C, symSize: 0x1C }
  - { offset: 0xCC701, size: 0x8, addend: 0x0, symName: __ZN5godot6ObjectD0Ev.cold.1, symObjAddr: 0x3F88, symBinAddr: 0xEEC68, symSize: 0x1C }
  - { offset: 0xCC71C, size: 0x8, addend: 0x0, symName: __ZN5godot6ObjectD0Ev.cold.1, symObjAddr: 0x3F88, symBinAddr: 0xEEC68, symSize: 0x1C }
  - { offset: 0xCC730, size: 0x8, addend: 0x0, symName: __ZN5godot6ObjectD0Ev.cold.1, symObjAddr: 0x3F88, symBinAddr: 0xEEC68, symSize: 0x1C }
  - { offset: 0xCC744, size: 0x8, addend: 0x0, symName: __ZN5godot6ObjectD0Ev.cold.1, symObjAddr: 0x3F88, symBinAddr: 0xEEC68, symSize: 0x1C }
  - { offset: 0xCC758, size: 0x8, addend: 0x0, symName: __ZN5godot6ObjectD0Ev.cold.1, symObjAddr: 0x3F88, symBinAddr: 0xEEC68, symSize: 0x1C }
  - { offset: 0xCC76D, size: 0x8, addend: 0x0, symName: __ZN5godot6ObjectD0Ev.cold.1, symObjAddr: 0x3F88, symBinAddr: 0xEEC68, symSize: 0x1C }
  - { offset: 0xCC784, size: 0x8, addend: 0x0, symName: __ZN5godot7WrappedD1Ev.cold.1, symObjAddr: 0x3FA4, symBinAddr: 0xEEC84, symSize: 0x1C }
  - { offset: 0xCC79F, size: 0x8, addend: 0x0, symName: __ZN5godot7WrappedD1Ev.cold.1, symObjAddr: 0x3FA4, symBinAddr: 0xEEC84, symSize: 0x1C }
  - { offset: 0xCC7B3, size: 0x8, addend: 0x0, symName: __ZN5godot7WrappedD1Ev.cold.1, symObjAddr: 0x3FA4, symBinAddr: 0xEEC84, symSize: 0x1C }
  - { offset: 0xCC7C8, size: 0x8, addend: 0x0, symName: __ZN5godot7WrappedD1Ev.cold.1, symObjAddr: 0x3FA4, symBinAddr: 0xEEC84, symSize: 0x1C }
  - { offset: 0xCC7F7, size: 0x8, addend: 0x0, symName: __ZN5godot7WrappedD0Ev.cold.1, symObjAddr: 0x3FC0, symBinAddr: 0xEECA0, symSize: 0x1C }
  - { offset: 0xCC812, size: 0x8, addend: 0x0, symName: __ZN5godot7WrappedD0Ev.cold.1, symObjAddr: 0x3FC0, symBinAddr: 0xEECA0, symSize: 0x1C }
  - { offset: 0xCC826, size: 0x8, addend: 0x0, symName: __ZN5godot7WrappedD0Ev.cold.1, symObjAddr: 0x3FC0, symBinAddr: 0xEECA0, symSize: 0x1C }
  - { offset: 0xCC83A, size: 0x8, addend: 0x0, symName: __ZN5godot7WrappedD0Ev.cold.1, symObjAddr: 0x3FC0, symBinAddr: 0xEECA0, symSize: 0x1C }
  - { offset: 0xCC84F, size: 0x8, addend: 0x0, symName: __ZN5godot7WrappedD0Ev.cold.1, symObjAddr: 0x3FC0, symBinAddr: 0xEECA0, symSize: 0x1C }
  - { offset: 0xCC865, size: 0x8, addend: 0x0, symName: __ZN5godot4ListINS_12PropertyInfoENS_16DefaultAllocatorEE5_Data5eraseEPNS3_7ElementE.cold.2, symObjAddr: 0x3FFC, symBinAddr: 0xEECDC, symSize: 0x20 }
  - { offset: 0xCC87D, size: 0x8, addend: 0x0, symName: __ZN5godot4ListINS_12PropertyInfoENS_16DefaultAllocatorEE5_Data5eraseEPNS3_7ElementE.cold.1, symObjAddr: 0x3FDC, symBinAddr: 0xEECBC, symSize: 0x20 }
  - { offset: 0xCC89C, size: 0x8, addend: 0x0, symName: __ZN5godot8internal23EngineClassRegistrationINS_16ClassDBSingletonEE8callbackEv.cold.1, symObjAddr: 0x401C, symBinAddr: 0xEECFC, symSize: 0x5C }
  - { offset: 0xCC8D1, size: 0x8, addend: 0x0, symName: __ZN5godot8internal23EngineClassRegistrationINS_10RefCountedEE8callbackEv.cold.1, symObjAddr: 0x4078, symBinAddr: 0xEED58, symSize: 0x5C }
  - { offset: 0xCC91B, size: 0x8, addend: 0x0, symName: __ZN5godot10RefCountedD1Ev.cold.1, symObjAddr: 0x40D4, symBinAddr: 0xEEDB4, symSize: 0x1C }
  - { offset: 0xCC936, size: 0x8, addend: 0x0, symName: __ZN5godot10RefCountedD1Ev.cold.1, symObjAddr: 0x40D4, symBinAddr: 0xEEDB4, symSize: 0x1C }
  - { offset: 0xCC94A, size: 0x8, addend: 0x0, symName: __ZN5godot10RefCountedD1Ev.cold.1, symObjAddr: 0x40D4, symBinAddr: 0xEEDB4, symSize: 0x1C }
  - { offset: 0xCC95E, size: 0x8, addend: 0x0, symName: __ZN5godot10RefCountedD1Ev.cold.1, symObjAddr: 0x40D4, symBinAddr: 0xEEDB4, symSize: 0x1C }
  - { offset: 0xCC972, size: 0x8, addend: 0x0, symName: __ZN5godot10RefCountedD1Ev.cold.1, symObjAddr: 0x40D4, symBinAddr: 0xEEDB4, symSize: 0x1C }
  - { offset: 0xCC987, size: 0x8, addend: 0x0, symName: __ZN5godot10RefCountedD1Ev.cold.1, symObjAddr: 0x40D4, symBinAddr: 0xEEDB4, symSize: 0x1C }
  - { offset: 0xCC9BA, size: 0x8, addend: 0x0, symName: __ZN5godot10RefCountedD0Ev.cold.1, symObjAddr: 0x40F0, symBinAddr: 0xEEDD0, symSize: 0x1C }
  - { offset: 0xCC9D5, size: 0x8, addend: 0x0, symName: __ZN5godot10RefCountedD0Ev.cold.1, symObjAddr: 0x40F0, symBinAddr: 0xEEDD0, symSize: 0x1C }
  - { offset: 0xCC9E9, size: 0x8, addend: 0x0, symName: __ZN5godot10RefCountedD0Ev.cold.1, symObjAddr: 0x40F0, symBinAddr: 0xEEDD0, symSize: 0x1C }
  - { offset: 0xCC9FD, size: 0x8, addend: 0x0, symName: __ZN5godot10RefCountedD0Ev.cold.1, symObjAddr: 0x40F0, symBinAddr: 0xEEDD0, symSize: 0x1C }
  - { offset: 0xCCA11, size: 0x8, addend: 0x0, symName: __ZN5godot10RefCountedD0Ev.cold.1, symObjAddr: 0x40F0, symBinAddr: 0xEEDD0, symSize: 0x1C }
  - { offset: 0xCCA25, size: 0x8, addend: 0x0, symName: __ZN5godot10RefCountedD0Ev.cold.1, symObjAddr: 0x40F0, symBinAddr: 0xEEDD0, symSize: 0x1C }
  - { offset: 0xCCA3A, size: 0x8, addend: 0x0, symName: __ZN5godot10RefCountedD0Ev.cold.1, symObjAddr: 0x40F0, symBinAddr: 0xEEDD0, symSize: 0x1C }
  - { offset: 0xCCA59, size: 0x8, addend: 0x0, symName: __ZN5godot8internal23EngineClassRegistrationINS_6LoggerEE8callbackEv.cold.1, symObjAddr: 0x410C, symBinAddr: 0xEEDEC, symSize: 0x5C }
  - { offset: 0xCCA8E, size: 0x8, addend: 0x0, symName: __ZN5godot8internal23EngineClassRegistrationINS_15ScriptBacktraceEE8callbackEv.cold.1, symObjAddr: 0x4168, symBinAddr: 0xEEE48, symSize: 0x5C }
  - { offset: 0xCCAD8, size: 0x8, addend: 0x0, symName: __ZN5godot15ScriptBacktraceD1Ev.cold.1, symObjAddr: 0x41C4, symBinAddr: 0xEEEA4, symSize: 0x1C }
  - { offset: 0xCCAF3, size: 0x8, addend: 0x0, symName: __ZN5godot15ScriptBacktraceD1Ev.cold.1, symObjAddr: 0x41C4, symBinAddr: 0xEEEA4, symSize: 0x1C }
  - { offset: 0xCCB07, size: 0x8, addend: 0x0, symName: __ZN5godot15ScriptBacktraceD1Ev.cold.1, symObjAddr: 0x41C4, symBinAddr: 0xEEEA4, symSize: 0x1C }
  - { offset: 0xCCB1B, size: 0x8, addend: 0x0, symName: __ZN5godot15ScriptBacktraceD1Ev.cold.1, symObjAddr: 0x41C4, symBinAddr: 0xEEEA4, symSize: 0x1C }
  - { offset: 0xCCB2F, size: 0x8, addend: 0x0, symName: __ZN5godot15ScriptBacktraceD1Ev.cold.1, symObjAddr: 0x41C4, symBinAddr: 0xEEEA4, symSize: 0x1C }
  - { offset: 0xCCB43, size: 0x8, addend: 0x0, symName: __ZN5godot15ScriptBacktraceD1Ev.cold.1, symObjAddr: 0x41C4, symBinAddr: 0xEEEA4, symSize: 0x1C }
  - { offset: 0xCCB58, size: 0x8, addend: 0x0, symName: __ZN5godot15ScriptBacktraceD1Ev.cold.1, symObjAddr: 0x41C4, symBinAddr: 0xEEEA4, symSize: 0x1C }
  - { offset: 0xCCB8C, size: 0x8, addend: 0x0, symName: __ZN5godot15ScriptBacktraceD0Ev.cold.1, symObjAddr: 0x41E0, symBinAddr: 0xEEEC0, symSize: 0x1C }
  - { offset: 0xCCBA7, size: 0x8, addend: 0x0, symName: __ZN5godot15ScriptBacktraceD0Ev.cold.1, symObjAddr: 0x41E0, symBinAddr: 0xEEEC0, symSize: 0x1C }
  - { offset: 0xCCBBB, size: 0x8, addend: 0x0, symName: __ZN5godot15ScriptBacktraceD0Ev.cold.1, symObjAddr: 0x41E0, symBinAddr: 0xEEEC0, symSize: 0x1C }
  - { offset: 0xCCBCF, size: 0x8, addend: 0x0, symName: __ZN5godot15ScriptBacktraceD0Ev.cold.1, symObjAddr: 0x41E0, symBinAddr: 0xEEEC0, symSize: 0x1C }
  - { offset: 0xCCBE3, size: 0x8, addend: 0x0, symName: __ZN5godot15ScriptBacktraceD0Ev.cold.1, symObjAddr: 0x41E0, symBinAddr: 0xEEEC0, symSize: 0x1C }
  - { offset: 0xCCBF7, size: 0x8, addend: 0x0, symName: __ZN5godot15ScriptBacktraceD0Ev.cold.1, symObjAddr: 0x41E0, symBinAddr: 0xEEEC0, symSize: 0x1C }
  - { offset: 0xCCC0B, size: 0x8, addend: 0x0, symName: __ZN5godot15ScriptBacktraceD0Ev.cold.1, symObjAddr: 0x41E0, symBinAddr: 0xEEEC0, symSize: 0x1C }
  - { offset: 0xCCC20, size: 0x8, addend: 0x0, symName: __ZN5godot15ScriptBacktraceD0Ev.cold.1, symObjAddr: 0x41E0, symBinAddr: 0xEEEC0, symSize: 0x1C }
  - { offset: 0xCCC40, size: 0x8, addend: 0x0, symName: __ZN5godot8internal23EngineClassRegistrationINS_10ConfigFileEE8callbackEv.cold.1, symObjAddr: 0x41FC, symBinAddr: 0xEEEDC, symSize: 0x5C }
  - { offset: 0xCCC8A, size: 0x8, addend: 0x0, symName: __ZN5godot10ConfigFileD1Ev.cold.1, symObjAddr: 0x4258, symBinAddr: 0xEEF38, symSize: 0x1C }
  - { offset: 0xCCCA5, size: 0x8, addend: 0x0, symName: __ZN5godot10ConfigFileD1Ev.cold.1, symObjAddr: 0x4258, symBinAddr: 0xEEF38, symSize: 0x1C }
  - { offset: 0xCCCB9, size: 0x8, addend: 0x0, symName: __ZN5godot10ConfigFileD1Ev.cold.1, symObjAddr: 0x4258, symBinAddr: 0xEEF38, symSize: 0x1C }
  - { offset: 0xCCCCD, size: 0x8, addend: 0x0, symName: __ZN5godot10ConfigFileD1Ev.cold.1, symObjAddr: 0x4258, symBinAddr: 0xEEF38, symSize: 0x1C }
  - { offset: 0xCCCE1, size: 0x8, addend: 0x0, symName: __ZN5godot10ConfigFileD1Ev.cold.1, symObjAddr: 0x4258, symBinAddr: 0xEEF38, symSize: 0x1C }
  - { offset: 0xCCCF5, size: 0x8, addend: 0x0, symName: __ZN5godot10ConfigFileD1Ev.cold.1, symObjAddr: 0x4258, symBinAddr: 0xEEF38, symSize: 0x1C }
  - { offset: 0xCCD0A, size: 0x8, addend: 0x0, symName: __ZN5godot10ConfigFileD1Ev.cold.1, symObjAddr: 0x4258, symBinAddr: 0xEEF38, symSize: 0x1C }
  - { offset: 0xCCD3E, size: 0x8, addend: 0x0, symName: __ZN5godot10ConfigFileD0Ev.cold.1, symObjAddr: 0x4274, symBinAddr: 0xEEF54, symSize: 0x1C }
  - { offset: 0xCCD59, size: 0x8, addend: 0x0, symName: __ZN5godot10ConfigFileD0Ev.cold.1, symObjAddr: 0x4274, symBinAddr: 0xEEF54, symSize: 0x1C }
  - { offset: 0xCCD6D, size: 0x8, addend: 0x0, symName: __ZN5godot10ConfigFileD0Ev.cold.1, symObjAddr: 0x4274, symBinAddr: 0xEEF54, symSize: 0x1C }
  - { offset: 0xCCD81, size: 0x8, addend: 0x0, symName: __ZN5godot10ConfigFileD0Ev.cold.1, symObjAddr: 0x4274, symBinAddr: 0xEEF54, symSize: 0x1C }
  - { offset: 0xCCD95, size: 0x8, addend: 0x0, symName: __ZN5godot10ConfigFileD0Ev.cold.1, symObjAddr: 0x4274, symBinAddr: 0xEEF54, symSize: 0x1C }
  - { offset: 0xCCDA9, size: 0x8, addend: 0x0, symName: __ZN5godot10ConfigFileD0Ev.cold.1, symObjAddr: 0x4274, symBinAddr: 0xEEF54, symSize: 0x1C }
  - { offset: 0xCCDBD, size: 0x8, addend: 0x0, symName: __ZN5godot10ConfigFileD0Ev.cold.1, symObjAddr: 0x4274, symBinAddr: 0xEEF54, symSize: 0x1C }
  - { offset: 0xCCDD2, size: 0x8, addend: 0x0, symName: __ZN5godot10ConfigFileD0Ev.cold.1, symObjAddr: 0x4274, symBinAddr: 0xEEF54, symSize: 0x1C }
  - { offset: 0xCCDF2, size: 0x8, addend: 0x0, symName: __ZN5godot8internal23EngineClassRegistrationINS_5MutexEE8callbackEv.cold.1, symObjAddr: 0x4290, symBinAddr: 0xEEF70, symSize: 0x5C }
  - { offset: 0xCCE3C, size: 0x8, addend: 0x0, symName: __ZN5godot5MutexD1Ev.cold.1, symObjAddr: 0x42EC, symBinAddr: 0xEEFCC, symSize: 0x1C }
  - { offset: 0xCCE57, size: 0x8, addend: 0x0, symName: __ZN5godot5MutexD1Ev.cold.1, symObjAddr: 0x42EC, symBinAddr: 0xEEFCC, symSize: 0x1C }
  - { offset: 0xCCE6B, size: 0x8, addend: 0x0, symName: __ZN5godot5MutexD1Ev.cold.1, symObjAddr: 0x42EC, symBinAddr: 0xEEFCC, symSize: 0x1C }
  - { offset: 0xCCE7F, size: 0x8, addend: 0x0, symName: __ZN5godot5MutexD1Ev.cold.1, symObjAddr: 0x42EC, symBinAddr: 0xEEFCC, symSize: 0x1C }
  - { offset: 0xCCE93, size: 0x8, addend: 0x0, symName: __ZN5godot5MutexD1Ev.cold.1, symObjAddr: 0x42EC, symBinAddr: 0xEEFCC, symSize: 0x1C }
  - { offset: 0xCCEA7, size: 0x8, addend: 0x0, symName: __ZN5godot5MutexD1Ev.cold.1, symObjAddr: 0x42EC, symBinAddr: 0xEEFCC, symSize: 0x1C }
  - { offset: 0xCCEBC, size: 0x8, addend: 0x0, symName: __ZN5godot5MutexD1Ev.cold.1, symObjAddr: 0x42EC, symBinAddr: 0xEEFCC, symSize: 0x1C }
  - { offset: 0xCCEF0, size: 0x8, addend: 0x0, symName: __ZN5godot5MutexD0Ev.cold.1, symObjAddr: 0x4308, symBinAddr: 0xEEFE8, symSize: 0x1C }
  - { offset: 0xCCF0B, size: 0x8, addend: 0x0, symName: __ZN5godot5MutexD0Ev.cold.1, symObjAddr: 0x4308, symBinAddr: 0xEEFE8, symSize: 0x1C }
  - { offset: 0xCCF1F, size: 0x8, addend: 0x0, symName: __ZN5godot5MutexD0Ev.cold.1, symObjAddr: 0x4308, symBinAddr: 0xEEFE8, symSize: 0x1C }
  - { offset: 0xCCF33, size: 0x8, addend: 0x0, symName: __ZN5godot5MutexD0Ev.cold.1, symObjAddr: 0x4308, symBinAddr: 0xEEFE8, symSize: 0x1C }
  - { offset: 0xCCF47, size: 0x8, addend: 0x0, symName: __ZN5godot5MutexD0Ev.cold.1, symObjAddr: 0x4308, symBinAddr: 0xEEFE8, symSize: 0x1C }
  - { offset: 0xCCF5B, size: 0x8, addend: 0x0, symName: __ZN5godot5MutexD0Ev.cold.1, symObjAddr: 0x4308, symBinAddr: 0xEEFE8, symSize: 0x1C }
  - { offset: 0xCCF6F, size: 0x8, addend: 0x0, symName: __ZN5godot5MutexD0Ev.cold.1, symObjAddr: 0x4308, symBinAddr: 0xEEFE8, symSize: 0x1C }
  - { offset: 0xCCF84, size: 0x8, addend: 0x0, symName: __ZN5godot5MutexD0Ev.cold.1, symObjAddr: 0x4308, symBinAddr: 0xEEFE8, symSize: 0x1C }
  - { offset: 0xCCF9D, size: 0x8, addend: 0x0, symName: __ZNK5godot13MethodBindTRSINS_3RefIN6sentry16SentryBreadcrumbEEEJRKNS_6StringEEE17gen_argument_typeEi, symObjAddr: 0x1B84, symBinAddr: 0x16158, symSize: 0x14 }
  - { offset: 0xCD013, size: 0x8, addend: 0x0, symName: __ZNK5godot13MethodBindTRSINS_3RefIN6sentry16SentryBreadcrumbEEEJRKNS_6StringEEE22gen_argument_type_infoEi, symObjAddr: 0x1B98, symBinAddr: 0x1616C, symSize: 0x68 }
  - { offset: 0xCD10C, size: 0x8, addend: 0x0, symName: __ZN5godot11GetTypeInfoINS_3RefIN6sentry16SentryBreadcrumbEEEvE14get_class_infoEv, symObjAddr: 0x1C8C, symBinAddr: 0x16260, symSize: 0x12C }
  - { offset: 0xCD1B4, size: 0x8, addend: 0x0, symName: __ZNK5godot13MethodBindTRSINS_3RefIN6sentry16SentryBreadcrumbEEEJRKNS_6StringEEE21get_argument_metadataEi, symObjAddr: 0x1C00, symBinAddr: 0x161D4, symSize: 0x8 }
  - { offset: 0xCD205, size: 0x8, addend: 0x0, symName: __ZNK5godot13MethodBindTRSINS_3RefIN6sentry16SentryBreadcrumbEEEJRKNS_6StringEEE4callEPvPKPKvxR20GDExtensionCallError, symObjAddr: 0x1C08, symBinAddr: 0x161DC, symSize: 0x5C }
  - { offset: 0xCD2AD, size: 0x8, addend: 0x0, symName: __ZNK5godot13MethodBindTRSINS_3RefIN6sentry16SentryBreadcrumbEEEJRKNS_6StringEEE7ptrcallEPvPKPKvS9_, symObjAddr: 0x1C64, symBinAddr: 0x16238, symSize: 0x10 }
  - { offset: 0xCD36D, size: 0x8, addend: 0x0, symName: __ZN5godot13MethodBindTRSINS_3RefIN6sentry16SentryBreadcrumbEEEJRKNS_6StringEEED1Ev, symObjAddr: 0x1C74, symBinAddr: 0x16248, symSize: 0x4 }
  - { offset: 0xCD390, size: 0x8, addend: 0x0, symName: __ZN5godot13MethodBindTRSINS_3RefIN6sentry16SentryBreadcrumbEEEJRKNS_6StringEEED1Ev, symObjAddr: 0x1C74, symBinAddr: 0x16248, symSize: 0x4 }
  - { offset: 0xCD3C8, size: 0x8, addend: 0x0, symName: __ZN5godot13MethodBindTRSINS_3RefIN6sentry16SentryBreadcrumbEEEJRKNS_6StringEEED0Ev, symObjAddr: 0x1C78, symBinAddr: 0x1624C, symSize: 0x14 }
  - { offset: 0xCD430, size: 0x8, addend: 0x0, symName: __ZN5godot11GetTypeInfoINS_3RefIN6sentry16SentryBreadcrumbEEEvE14get_class_infoEv.cold.1, symObjAddr: 0x4324, symBinAddr: 0xEF004, symSize: 0x58 }
  - { offset: 0xCD591, size: 0x8, addend: 0x0, symName: __ZN5godot43call_with_ptr_args_static_method_ret_helperINS_3RefIN6sentry16SentryBreadcrumbEEEJRKNS_6StringEEJLm0EEEEvPFT_DpT0_EPKPKvPvNS_13IndexSequenceIJXspT1_EEEE.cold.1, symObjAddr: 0x437C, symBinAddr: 0xEF05C, symSize: 0x30 }
  - { offset: 0xCD622, size: 0x8, addend: 0x0, symName: __ZN5godot18create_method_bindIN6sentry16SentryBreadcrumbEJRKNS_6StringEEEEPNS_10MethodBindEMT_FvDpT0_E.cold.1, symObjAddr: 0x43AC, symBinAddr: 0xEF08C, symSize: 0x5C }
  - { offset: 0xCD6B3, size: 0x8, addend: 0x0, symName: __ZN5godot18create_method_bindIN6sentry16SentryBreadcrumbENS_6StringEJEEEPNS_10MethodBindEMT_KFT0_DpT1_E.cold.1, symObjAddr: 0x4408, symBinAddr: 0xEF0E8, symSize: 0x5C }
  - { offset: 0xCD77D, size: 0x8, addend: 0x0, symName: __ZN5godot18create_method_bindIN6sentry16SentryBreadcrumbEJNS1_5LevelEEEEPNS_10MethodBindEMT_FvDpT0_E.cold.1, symObjAddr: 0x4464, symBinAddr: 0xEF144, symSize: 0x5C }
  - { offset: 0xCD7AC, size: 0x8, addend: 0x0, symName: __ZNK5godot11MethodBindTIJN6sentry5LevelEEE17gen_argument_typeEi, symObjAddr: 0x2AE4, symBinAddr: 0x1697C, symSize: 0x10 }
  - { offset: 0xCD7E2, size: 0x8, addend: 0x0, symName: __ZNK5godot11MethodBindTIJN6sentry5LevelEEE22gen_argument_type_infoEi, symObjAddr: 0x2AF4, symBinAddr: 0x1698C, symSize: 0x138 }
  - { offset: 0xCD91B, size: 0x8, addend: 0x0, symName: __ZNK5godot11MethodBindTIJN6sentry5LevelEEE21get_argument_metadataEi, symObjAddr: 0x2C2C, symBinAddr: 0x16AC4, symSize: 0x8 }
  - { offset: 0xCD951, size: 0x8, addend: 0x0, symName: __ZNK5godot11MethodBindTIJN6sentry5LevelEEE4callEPvPKPKvxR20GDExtensionCallError, symObjAddr: 0x2C34, symBinAddr: 0x16ACC, symSize: 0x40 }
  - { offset: 0xCDA11, size: 0x8, addend: 0x0, symName: __ZNK5godot11MethodBindTIJN6sentry5LevelEEE7ptrcallEPvPKPKvS4_, symObjAddr: 0x2C74, symBinAddr: 0x16B0C, symSize: 0x20 }
  - { offset: 0xCDAFC, size: 0x8, addend: 0x0, symName: __ZN5godot11MethodBindTIJN6sentry5LevelEEED1Ev, symObjAddr: 0x2C94, symBinAddr: 0x16B2C, symSize: 0x4 }
  - { offset: 0xCDB1F, size: 0x8, addend: 0x0, symName: __ZN5godot11MethodBindTIJN6sentry5LevelEEED1Ev, symObjAddr: 0x2C94, symBinAddr: 0x16B2C, symSize: 0x4 }
  - { offset: 0xCDB57, size: 0x8, addend: 0x0, symName: __ZN5godot11MethodBindTIJN6sentry5LevelEEED0Ev, symObjAddr: 0x2C98, symBinAddr: 0x16B30, symSize: 0x14 }
  - { offset: 0xCDBBF, size: 0x8, addend: 0x0, symName: __ZN5godot11GetTypeInfoIN6sentry5LevelEvE14get_class_infoEv, symObjAddr: 0x2D80, symBinAddr: 0x16C18, symSize: 0x128 }
  - { offset: 0xCDCDC, size: 0x8, addend: 0x0, symName: __ZN5godot18create_method_bindIN6sentry16SentryBreadcrumbENS1_5LevelEJEEEPNS_10MethodBindEMT_KFT0_DpT1_E.cold.1, symObjAddr: 0x44C0, symBinAddr: 0xEF1A0, symSize: 0x5C }
  - { offset: 0xCDD0B, size: 0x8, addend: 0x0, symName: __ZNK5godot13MethodBindTRCIN6sentry5LevelEJEE17gen_argument_typeEi, symObjAddr: 0x320C, symBinAddr: 0x170A4, symSize: 0x8 }
  - { offset: 0xCDD41, size: 0x8, addend: 0x0, symName: __ZNK5godot13MethodBindTRCIN6sentry5LevelEJEE22gen_argument_type_infoEi, symObjAddr: 0x3214, symBinAddr: 0x170AC, symSize: 0x4 }
  - { offset: 0xCDD78, size: 0x8, addend: 0x0, symName: __ZNK5godot13MethodBindTRCIN6sentry5LevelEJEE22gen_argument_type_infoEi, symObjAddr: 0x3214, symBinAddr: 0x170AC, symSize: 0x4 }
  - { offset: 0xCDD8B, size: 0x8, addend: 0x0, symName: __ZNK5godot13MethodBindTRCIN6sentry5LevelEJEE21get_argument_metadataEi, symObjAddr: 0x3218, symBinAddr: 0x170B0, symSize: 0x8 }
  - { offset: 0xCDDE6, size: 0x8, addend: 0x0, symName: __ZNK5godot13MethodBindTRCIN6sentry5LevelEJEE4callEPvPKPKvxR20GDExtensionCallError, symObjAddr: 0x3220, symBinAddr: 0x170B8, symSize: 0xC0 }
  - { offset: 0xCDF26, size: 0x8, addend: 0x0, symName: __ZNK5godot13MethodBindTRCIN6sentry5LevelEJEE7ptrcallEPvPKPKvS4_, symObjAddr: 0x32E0, symBinAddr: 0x17178, symSize: 0x3C }
  - { offset: 0xCE013, size: 0x8, addend: 0x0, symName: __ZN5godot13MethodBindTRCIN6sentry5LevelEJEED1Ev, symObjAddr: 0x331C, symBinAddr: 0x171B4, symSize: 0x4 }
  - { offset: 0xCE036, size: 0x8, addend: 0x0, symName: __ZN5godot13MethodBindTRCIN6sentry5LevelEJEED1Ev, symObjAddr: 0x331C, symBinAddr: 0x171B4, symSize: 0x4 }
  - { offset: 0xCE06E, size: 0x8, addend: 0x0, symName: __ZN5godot13MethodBindTRCIN6sentry5LevelEJEED0Ev, symObjAddr: 0x3320, symBinAddr: 0x171B8, symSize: 0x14 }
  - { offset: 0xCE138, size: 0x8, addend: 0x0, symName: __ZN5godot18create_method_bindIN6sentry16SentryBreadcrumbEJRKNS_10DictionaryEEEEPNS_10MethodBindEMT_FvDpT0_E.cold.1, symObjAddr: 0x451C, symBinAddr: 0xEF1FC, symSize: 0x5C }
  - { offset: 0xCE167, size: 0x8, addend: 0x0, symName: __ZNK5godot11MethodBindTIJRKNS_10DictionaryEEE17gen_argument_typeEi, symObjAddr: 0x3448, symBinAddr: 0x172E0, symSize: 0x10 }
  - { offset: 0xCE19D, size: 0x8, addend: 0x0, symName: __ZNK5godot11MethodBindTIJRKNS_10DictionaryEEE22gen_argument_type_infoEi, symObjAddr: 0x3458, symBinAddr: 0x172F0, symSize: 0x138 }
  - { offset: 0xCE2D6, size: 0x8, addend: 0x0, symName: __ZNK5godot11MethodBindTIJRKNS_10DictionaryEEE21get_argument_metadataEi, symObjAddr: 0x3590, symBinAddr: 0x17428, symSize: 0x8 }
  - { offset: 0xCE30C, size: 0x8, addend: 0x0, symName: __ZNK5godot11MethodBindTIJRKNS_10DictionaryEEE4callEPvPKPKvxR20GDExtensionCallError, symObjAddr: 0x3598, symBinAddr: 0x17430, symSize: 0x40 }
  - { offset: 0xCE3CC, size: 0x8, addend: 0x0, symName: __ZNK5godot11MethodBindTIJRKNS_10DictionaryEEE7ptrcallEPvPKPKvS5_, symObjAddr: 0x35D8, symBinAddr: 0x17470, symSize: 0x80 }
  - { offset: 0xCE4C5, size: 0x8, addend: 0x0, symName: __ZN5godot11MethodBindTIJRKNS_10DictionaryEEED1Ev, symObjAddr: 0x3658, symBinAddr: 0x174F0, symSize: 0x4 }
  - { offset: 0xCE4E8, size: 0x8, addend: 0x0, symName: __ZN5godot11MethodBindTIJRKNS_10DictionaryEEED1Ev, symObjAddr: 0x3658, symBinAddr: 0x174F0, symSize: 0x4 }
  - { offset: 0xCE520, size: 0x8, addend: 0x0, symName: __ZN5godot11MethodBindTIJRKNS_10DictionaryEEED0Ev, symObjAddr: 0x365C, symBinAddr: 0x174F4, symSize: 0x14 }
  - { offset: 0xCE604, size: 0x8, addend: 0x0, symName: __ZN5godot18create_method_bindIN6sentry16SentryBreadcrumbENS_3RefINS1_15SentryTimestampEEEJEEEPNS_10MethodBindEMT_FT0_DpT1_E.cold.1, symObjAddr: 0x4578, symBinAddr: 0xEF258, symSize: 0x5C }
  - { offset: 0xCE633, size: 0x8, addend: 0x0, symName: __ZNK5godot12MethodBindTRINS_3RefIN6sentry15SentryTimestampEEEJEE17gen_argument_typeEi, symObjAddr: 0x3A38, symBinAddr: 0x178D0, symSize: 0x8 }
  - { offset: 0xCE669, size: 0x8, addend: 0x0, symName: __ZNK5godot12MethodBindTRINS_3RefIN6sentry15SentryTimestampEEEJEE22gen_argument_type_infoEi, symObjAddr: 0x3A40, symBinAddr: 0x178D8, symSize: 0x4 }
  - { offset: 0xCE6A0, size: 0x8, addend: 0x0, symName: __ZNK5godot12MethodBindTRINS_3RefIN6sentry15SentryTimestampEEEJEE22gen_argument_type_infoEi, symObjAddr: 0x3A40, symBinAddr: 0x178D8, symSize: 0x4 }
  - { offset: 0xCE6B3, size: 0x8, addend: 0x0, symName: __ZN5godot11GetTypeInfoINS_3RefIN6sentry15SentryTimestampEEEvE14get_class_infoEv, symObjAddr: 0x3B64, symBinAddr: 0x179FC, symSize: 0x12C }
  - { offset: 0xCE75B, size: 0x8, addend: 0x0, symName: __ZNK5godot12MethodBindTRINS_3RefIN6sentry15SentryTimestampEEEJEE21get_argument_metadataEi, symObjAddr: 0x3A44, symBinAddr: 0x178DC, symSize: 0x8 }
  - { offset: 0xCE791, size: 0x8, addend: 0x0, symName: __ZNK5godot12MethodBindTRINS_3RefIN6sentry15SentryTimestampEEEJEE4callEPvPKPKvxR20GDExtensionCallError, symObjAddr: 0x3A4C, symBinAddr: 0x178E4, symSize: 0x64 }
  - { offset: 0xCE8CD, size: 0x8, addend: 0x0, symName: __ZNK5godot12MethodBindTRINS_3RefIN6sentry15SentryTimestampEEEJEE7ptrcallEPvPKPKvS6_, symObjAddr: 0x3AB0, symBinAddr: 0x17948, symSize: 0x9C }
  - { offset: 0xCEA3F, size: 0x8, addend: 0x0, symName: __ZNK5godot12MethodBindTRINS_3RefIN6sentry15SentryTimestampEEEJEE7ptrcallEPvPKPKvS6_.cold.1, symObjAddr: 0x45D4, symBinAddr: 0xEF2B4, symSize: 0x30 }
  - { offset: 0xCEAB6, size: 0x8, addend: 0x0, symName: __ZN5godot12MethodBindTRINS_3RefIN6sentry15SentryTimestampEEEJEED1Ev, symObjAddr: 0x3B4C, symBinAddr: 0x179E4, symSize: 0x4 }
  - { offset: 0xCEAD9, size: 0x8, addend: 0x0, symName: __ZN5godot12MethodBindTRINS_3RefIN6sentry15SentryTimestampEEEJEED1Ev, symObjAddr: 0x3B4C, symBinAddr: 0x179E4, symSize: 0x4 }
  - { offset: 0xCEB11, size: 0x8, addend: 0x0, symName: __ZN5godot12MethodBindTRINS_3RefIN6sentry15SentryTimestampEEEJEED0Ev, symObjAddr: 0x3B50, symBinAddr: 0x179E8, symSize: 0x14 }
  - { offset: 0xCEB80, size: 0x8, addend: 0x0, symName: __ZN5godot11GetTypeInfoINS_3RefIN6sentry15SentryTimestampEEEvE14get_class_infoEv.cold.1, symObjAddr: 0x4604, symBinAddr: 0xEF2E4, symSize: 0x58 }
  - { offset: 0xCEC0F, size: 0x8, addend: 0x0, symName: _OUTLINED_FUNCTION_0, symObjAddr: 0x465C, symBinAddr: 0x17C0C, symSize: 0x10 }
  - { offset: 0xCEC27, size: 0x8, addend: 0x0, symName: _OUTLINED_FUNCTION_1, symObjAddr: 0x466C, symBinAddr: 0x17C1C, symSize: 0xC }
  - { offset: 0xCEC3F, size: 0x8, addend: 0x0, symName: _OUTLINED_FUNCTION_2, symObjAddr: 0x4678, symBinAddr: 0x17C28, symSize: 0xC }
  - { offset: 0xCEC57, size: 0x8, addend: 0x0, symName: _OUTLINED_FUNCTION_3, symObjAddr: 0x4684, symBinAddr: 0x17C34, symSize: 0x8 }
  - { offset: 0xCEC6F, size: 0x8, addend: 0x0, symName: _OUTLINED_FUNCTION_4, symObjAddr: 0x468C, symBinAddr: 0x17C3C, symSize: 0x8 }
  - { offset: 0xCEC87, size: 0x8, addend: 0x0, symName: _OUTLINED_FUNCTION_5, symObjAddr: 0x4694, symBinAddr: 0x17C44, symSize: 0x8 }
  - { offset: 0xCEC9F, size: 0x8, addend: 0x0, symName: _OUTLINED_FUNCTION_6, symObjAddr: 0x469C, symBinAddr: 0x17C4C, symSize: 0x8 }
  - { offset: 0xCECB7, size: 0x8, addend: 0x0, symName: _OUTLINED_FUNCTION_7, symObjAddr: 0x46A4, symBinAddr: 0x17C54, symSize: 0xC }
  - { offset: 0xD4F08, size: 0x8, addend: 0x0, symName: __ZN5godot18create_method_bindIN6sentry11SentryEventENS_6StringEJEEEPNS_10MethodBindEMT_KFT0_DpT1_E, symObjAddr: 0x2A90, symBinAddr: 0x19C98, symSize: 0x12C }
  - { offset: 0xD5058, size: 0x8, addend: 0x0, symName: __ZN5godot18create_method_bindIN6sentry11SentryEventEJRKNS_6StringEEEEPNS_10MethodBindEMT_FvDpT0_E, symObjAddr: 0x2E28, symBinAddr: 0x19DC4, symSize: 0x114 }
  - { offset: 0xD518B, size: 0x8, addend: 0x0, symName: __ZN5godot18create_method_bindIN6sentry11SentryEventEJRKNS_3RefINS1_15SentryTimestampEEEEEEPNS_10MethodBindEMT_FvDpT0_E, symObjAddr: 0x340C, symBinAddr: 0x19ED8, symSize: 0x114 }
  - { offset: 0xD52BE, size: 0x8, addend: 0x0, symName: __ZN5godot18create_method_bindIN6sentry11SentryEventENS_3RefINS1_15SentryTimestampEEEJEEEPNS_10MethodBindEMT_KFT0_DpT1_E, symObjAddr: 0x3BE0, symBinAddr: 0x1A6AC, symSize: 0x12C }
  - { offset: 0xD53F4, size: 0x8, addend: 0x0, symName: __ZN5godot18create_method_bindIN6sentry11SentryEventEJNS1_5LevelEEEEPNS_10MethodBindEMT_FvDpT0_E, symObjAddr: 0x4048, symBinAddr: 0x1A9E8, symSize: 0x114 }
  - { offset: 0xD5527, size: 0x8, addend: 0x0, symName: __ZN5godot18create_method_bindIN6sentry11SentryEventENS1_5LevelEJEEEPNS_10MethodBindEMT_KFT0_DpT1_E, symObjAddr: 0x4758, symBinAddr: 0x1AAFC, symSize: 0x12C }
  - { offset: 0xD565D, size: 0x8, addend: 0x0, symName: __ZN5godot18create_method_bindIN6sentry11SentryEventEJRKNS_6StringES5_EEEPNS_10MethodBindEMT_FvDpT0_E, symObjAddr: 0x49AC, symBinAddr: 0x1AC28, symSize: 0x118 }
  - { offset: 0xD5795, size: 0x8, addend: 0x0, symName: __ZN5godot18create_method_bindIN6sentry11SentryEventENS_6StringEJRKS3_EEEPNS_10MethodBindEMT_FT0_DpT1_E, symObjAddr: 0x4EB0, symBinAddr: 0x1B12C, symSize: 0x120 }
  - { offset: 0xD58D1, size: 0x8, addend: 0x0, symName: __ZN5godot18create_method_bindIN6sentry11SentryEventEbJEEEPNS_10MethodBindEMT_KFT0_DpT1_E, symObjAddr: 0x53B4, symBinAddr: 0x1B630, symSize: 0x12C }
  - { offset: 0xD5A07, size: 0x8, addend: 0x0, symName: __ZN5godot18create_method_bindIN6sentry11SentryEventEiJEEEPNS_10MethodBindEMT_KFT0_DpT1_E, symObjAddr: 0x56F8, symBinAddr: 0x1B974, symSize: 0x12C }
  - { offset: 0xD5B3D, size: 0x8, addend: 0x0, symName: __ZN5godot18create_method_bindIN6sentry11SentryEventEJiRKNS_6StringEEEEPNS_10MethodBindEMT_FvDpT0_E, symObjAddr: 0x5A44, symBinAddr: 0x1BCC0, symSize: 0x118 }
  - { offset: 0xD5C75, size: 0x8, addend: 0x0, symName: __ZN5godot18create_method_bindIN6sentry11SentryEventENS_6StringEJiEEEPNS_10MethodBindEMT_KFT0_DpT1_E, symObjAddr: 0x60BC, symBinAddr: 0x1C338, symSize: 0x12C }
  - { offset: 0xD62F7, size: 0x8, addend: 0x0, symName: __ZN5godot34call_get_argument_type_info_helperIRKNS_3RefIN6sentry15SentryTimestampEEEEEviRiRNS_12PropertyInfoE, symObjAddr: 0x3788, symBinAddr: 0x1A254, symSize: 0xD4 }
  - { offset: 0xD63AF, size: 0x8, addend: 0x0, symName: __ZN5godot25call_with_variant_args_dvINS_20_gde_UnexistingClassEJRKNS_3RefIN6sentry15SentryTimestampEEEEEEvPT_MS8_FvDpT0_EPKPKviR20GDExtensionCallErrorRKNSt3__16vectorINS_7VariantENSK_9allocatorISM_EEEE, symObjAddr: 0x3988, symBinAddr: 0x1A454, symSize: 0x170 }
  - { offset: 0xD68CB, size: 0x8, addend: 0x0, symName: __ZN5godot30call_with_variant_args_retc_dvINS_20_gde_UnexistingClassENS_3RefIN6sentry15SentryTimestampEEEJEEEvPT_MS6_KFT0_DpT1_EPKPKviRNS_7VariantER20GDExtensionCallErrorRKNSt3__16vectorISH_NSL_9allocatorISH_EEEE, symObjAddr: 0x3F64, symBinAddr: 0x1A904, symSize: 0xE4 }
  - { offset: 0xD6F76, size: 0x8, addend: 0x0, symName: __ZN5godot25call_with_variant_args_dvINS_20_gde_UnexistingClassEJRKNS_6StringES4_EEEvPT_MS5_FvDpT0_EPKPKviR20GDExtensionCallErrorRKNSt3__16vectorINS_7VariantENSH_9allocatorISJ_EEEE, symObjAddr: 0x4D10, symBinAddr: 0x1AF8C, symSize: 0x1A0 }
  - { offset: 0xD7356, size: 0x8, addend: 0x0, symName: __ZN5godot29call_with_variant_args_ret_dvINS_20_gde_UnexistingClassENS_6StringEJRKS2_EEEvPT_MS5_FT0_DpT1_EPKPKviRNS_7VariantER20GDExtensionCallErrorRKNSt3__16vectorISG_NSK_9allocatorISG_EEEE, symObjAddr: 0x5250, symBinAddr: 0x1B4CC, symSize: 0x164 }
  - { offset: 0xD7DD8, size: 0x8, addend: 0x0, symName: __ZN5godot34call_get_argument_type_info_helperIiEEviRiRNS_12PropertyInfoE, symObjAddr: 0x5DB0, symBinAddr: 0x1C02C, symSize: 0x174 }
  - { offset: 0xD7F91, size: 0x8, addend: 0x0, symName: __ZN5godot25call_with_variant_args_dvINS_20_gde_UnexistingClassEJiRKNS_6StringEEEEvPT_MS5_FvDpT0_EPKPKviR20GDExtensionCallErrorRKNSt3__16vectorINS_7VariantENSH_9allocatorISJ_EEEE, symObjAddr: 0x5F24, symBinAddr: 0x1C1A0, symSize: 0x198 }
  - { offset: 0xD83E6, size: 0x8, addend: 0x0, symName: __ZN5godot30call_with_variant_args_retc_dvINS_20_gde_UnexistingClassENS_6StringEJiEEEvPT_MS3_KFT0_DpT1_EPKPKviRNS_7VariantER20GDExtensionCallErrorRKNSt3__16vectorISE_NSI_9allocatorISE_EEEE, symObjAddr: 0x6464, symBinAddr: 0x1C6E0, symSize: 0x158 }
  - { offset: 0xE6001, size: 0x8, addend: 0x0, symName: ___cxx_global_var_init, symObjAddr: 0x72C4, symBinAddr: 0x1C880, symSize: 0x4C }
  - { offset: 0xE6086, size: 0x8, addend: 0x0, symName: ___cxx_global_var_init.1, symObjAddr: 0x7310, symBinAddr: 0x1C8CC, symSize: 0x4C }
  - { offset: 0xE610B, size: 0x8, addend: 0x0, symName: ___cxx_global_var_init.2, symObjAddr: 0x735C, symBinAddr: 0x1C918, symSize: 0x4C }
  - { offset: 0xE6190, size: 0x8, addend: 0x0, symName: ___cxx_global_var_init.3, symObjAddr: 0x73A8, symBinAddr: 0x1C964, symSize: 0x4C }
  - { offset: 0xE6215, size: 0x8, addend: 0x0, symName: ___cxx_global_var_init.4, symObjAddr: 0x73F4, symBinAddr: 0x1C9B0, symSize: 0x4C }
  - { offset: 0xE629A, size: 0x8, addend: 0x0, symName: ___cxx_global_var_init.5, symObjAddr: 0x7440, symBinAddr: 0x1C9FC, symSize: 0x4C }
  - { offset: 0xE631F, size: 0x8, addend: 0x0, symName: ___cxx_global_var_init.6, symObjAddr: 0x748C, symBinAddr: 0x1CA48, symSize: 0x4C }
  - { offset: 0xE6F87, size: 0x8, addend: 0x0, symName: __ZN6sentry11SentryEvent13_bind_methodsEv, symObjAddr: 0x0, symBinAddr: 0x17E74, symSize: 0x1E24 }
  - { offset: 0xEBF88, size: 0x8, addend: 0x0, symName: __ZN6sentry11SentryEvent13_bind_methodsEv.cold.1, symObjAddr: 0x65BC, symBinAddr: 0xEF33C, symSize: 0x58 }
  - { offset: 0xEBFB6, size: 0x8, addend: 0x0, symName: __ZN6sentry11SentryEvent13_bind_methodsEv.cold.2, symObjAddr: 0x6614, symBinAddr: 0xEF394, symSize: 0x58 }
  - { offset: 0xEBFE4, size: 0x8, addend: 0x0, symName: __ZN6sentry11SentryEvent13_bind_methodsEv.cold.3, symObjAddr: 0x666C, symBinAddr: 0xEF3EC, symSize: 0x58 }
  - { offset: 0xEC012, size: 0x8, addend: 0x0, symName: __ZN6sentry11SentryEvent13_bind_methodsEv.cold.4, symObjAddr: 0x66C4, symBinAddr: 0xEF444, symSize: 0x58 }
  - { offset: 0xEC040, size: 0x8, addend: 0x0, symName: __ZN6sentry11SentryEvent13_bind_methodsEv.cold.5, symObjAddr: 0x671C, symBinAddr: 0xEF49C, symSize: 0x58 }
  - { offset: 0xEC06E, size: 0x8, addend: 0x0, symName: __ZN6sentry11SentryEvent13_bind_methodsEv.cold.6, symObjAddr: 0x6774, symBinAddr: 0xEF4F4, symSize: 0x58 }
  - { offset: 0xEC09C, size: 0x8, addend: 0x0, symName: __ZN6sentry11SentryEvent13_bind_methodsEv.cold.7, symObjAddr: 0x67CC, symBinAddr: 0xEF54C, symSize: 0x58 }
  - { offset: 0xEC0CA, size: 0x8, addend: 0x0, symName: __ZN6sentry11SentryEvent13_bind_methodsEv.cold.8, symObjAddr: 0x6824, symBinAddr: 0xEF5A4, symSize: 0x58 }
  - { offset: 0xEC0F8, size: 0x8, addend: 0x0, symName: __ZN6sentry11SentryEvent13_bind_methodsEv.cold.9, symObjAddr: 0x687C, symBinAddr: 0xEF5FC, symSize: 0x58 }
  - { offset: 0xEC12D, size: 0x8, addend: 0x0, symName: __ZN5godot8internal23EngineClassRegistrationINS_6ObjectEE8callbackEv.cold.1, symObjAddr: 0x68D4, symBinAddr: 0xEF654, symSize: 0x5C }
  - { offset: 0xEC1C8, size: 0x8, addend: 0x0, symName: __ZN5godot6ObjectD1Ev.cold.1, symObjAddr: 0x6930, symBinAddr: 0xEF6B0, symSize: 0x1C }
  - { offset: 0xEC1E3, size: 0x8, addend: 0x0, symName: __ZN5godot6ObjectD1Ev.cold.1, symObjAddr: 0x6930, symBinAddr: 0xEF6B0, symSize: 0x1C }
  - { offset: 0xEC1F7, size: 0x8, addend: 0x0, symName: __ZN5godot6ObjectD1Ev.cold.1, symObjAddr: 0x6930, symBinAddr: 0xEF6B0, symSize: 0x1C }
  - { offset: 0xEC20B, size: 0x8, addend: 0x0, symName: __ZN5godot6ObjectD1Ev.cold.1, symObjAddr: 0x6930, symBinAddr: 0xEF6B0, symSize: 0x1C }
  - { offset: 0xEC220, size: 0x8, addend: 0x0, symName: __ZN5godot6ObjectD1Ev.cold.1, symObjAddr: 0x6930, symBinAddr: 0xEF6B0, symSize: 0x1C }
  - { offset: 0xEC250, size: 0x8, addend: 0x0, symName: __ZN5godot6ObjectD0Ev.cold.1, symObjAddr: 0x694C, symBinAddr: 0xEF6CC, symSize: 0x1C }
  - { offset: 0xEC26B, size: 0x8, addend: 0x0, symName: __ZN5godot6ObjectD0Ev.cold.1, symObjAddr: 0x694C, symBinAddr: 0xEF6CC, symSize: 0x1C }
  - { offset: 0xEC27F, size: 0x8, addend: 0x0, symName: __ZN5godot6ObjectD0Ev.cold.1, symObjAddr: 0x694C, symBinAddr: 0xEF6CC, symSize: 0x1C }
  - { offset: 0xEC293, size: 0x8, addend: 0x0, symName: __ZN5godot6ObjectD0Ev.cold.1, symObjAddr: 0x694C, symBinAddr: 0xEF6CC, symSize: 0x1C }
  - { offset: 0xEC2A7, size: 0x8, addend: 0x0, symName: __ZN5godot6ObjectD0Ev.cold.1, symObjAddr: 0x694C, symBinAddr: 0xEF6CC, symSize: 0x1C }
  - { offset: 0xEC2BC, size: 0x8, addend: 0x0, symName: __ZN5godot6ObjectD0Ev.cold.1, symObjAddr: 0x694C, symBinAddr: 0xEF6CC, symSize: 0x1C }
  - { offset: 0xEC2D3, size: 0x8, addend: 0x0, symName: __ZN5godot7WrappedD1Ev.cold.1, symObjAddr: 0x6968, symBinAddr: 0xEF6E8, symSize: 0x1C }
  - { offset: 0xEC2EE, size: 0x8, addend: 0x0, symName: __ZN5godot7WrappedD1Ev.cold.1, symObjAddr: 0x6968, symBinAddr: 0xEF6E8, symSize: 0x1C }
  - { offset: 0xEC302, size: 0x8, addend: 0x0, symName: __ZN5godot7WrappedD1Ev.cold.1, symObjAddr: 0x6968, symBinAddr: 0xEF6E8, symSize: 0x1C }
  - { offset: 0xEC317, size: 0x8, addend: 0x0, symName: __ZN5godot7WrappedD1Ev.cold.1, symObjAddr: 0x6968, symBinAddr: 0xEF6E8, symSize: 0x1C }
  - { offset: 0xEC346, size: 0x8, addend: 0x0, symName: __ZN5godot7WrappedD0Ev.cold.1, symObjAddr: 0x6984, symBinAddr: 0xEF704, symSize: 0x1C }
  - { offset: 0xEC361, size: 0x8, addend: 0x0, symName: __ZN5godot7WrappedD0Ev.cold.1, symObjAddr: 0x6984, symBinAddr: 0xEF704, symSize: 0x1C }
  - { offset: 0xEC375, size: 0x8, addend: 0x0, symName: __ZN5godot7WrappedD0Ev.cold.1, symObjAddr: 0x6984, symBinAddr: 0xEF704, symSize: 0x1C }
  - { offset: 0xEC389, size: 0x8, addend: 0x0, symName: __ZN5godot7WrappedD0Ev.cold.1, symObjAddr: 0x6984, symBinAddr: 0xEF704, symSize: 0x1C }
  - { offset: 0xEC39E, size: 0x8, addend: 0x0, symName: __ZN5godot7WrappedD0Ev.cold.1, symObjAddr: 0x6984, symBinAddr: 0xEF704, symSize: 0x1C }
  - { offset: 0xEC3B4, size: 0x8, addend: 0x0, symName: __ZN5godot4ListINS_12PropertyInfoENS_16DefaultAllocatorEE5_Data5eraseEPNS3_7ElementE.cold.2, symObjAddr: 0x69C0, symBinAddr: 0xEF740, symSize: 0x20 }
  - { offset: 0xEC3CC, size: 0x8, addend: 0x0, symName: __ZN5godot4ListINS_12PropertyInfoENS_16DefaultAllocatorEE5_Data5eraseEPNS3_7ElementE.cold.1, symObjAddr: 0x69A0, symBinAddr: 0xEF720, symSize: 0x20 }
  - { offset: 0xEC3EB, size: 0x8, addend: 0x0, symName: __ZN5godot8internal23EngineClassRegistrationINS_16ClassDBSingletonEE8callbackEv.cold.1, symObjAddr: 0x69E0, symBinAddr: 0xEF760, symSize: 0x5C }
  - { offset: 0xEC420, size: 0x8, addend: 0x0, symName: __ZN5godot8internal23EngineClassRegistrationINS_10RefCountedEE8callbackEv.cold.1, symObjAddr: 0x6A3C, symBinAddr: 0xEF7BC, symSize: 0x5C }
  - { offset: 0xEC46A, size: 0x8, addend: 0x0, symName: __ZN5godot10RefCountedD1Ev.cold.1, symObjAddr: 0x6A98, symBinAddr: 0xEF818, symSize: 0x1C }
  - { offset: 0xEC485, size: 0x8, addend: 0x0, symName: __ZN5godot10RefCountedD1Ev.cold.1, symObjAddr: 0x6A98, symBinAddr: 0xEF818, symSize: 0x1C }
  - { offset: 0xEC499, size: 0x8, addend: 0x0, symName: __ZN5godot10RefCountedD1Ev.cold.1, symObjAddr: 0x6A98, symBinAddr: 0xEF818, symSize: 0x1C }
  - { offset: 0xEC4AD, size: 0x8, addend: 0x0, symName: __ZN5godot10RefCountedD1Ev.cold.1, symObjAddr: 0x6A98, symBinAddr: 0xEF818, symSize: 0x1C }
  - { offset: 0xEC4C1, size: 0x8, addend: 0x0, symName: __ZN5godot10RefCountedD1Ev.cold.1, symObjAddr: 0x6A98, symBinAddr: 0xEF818, symSize: 0x1C }
  - { offset: 0xEC4D6, size: 0x8, addend: 0x0, symName: __ZN5godot10RefCountedD1Ev.cold.1, symObjAddr: 0x6A98, symBinAddr: 0xEF818, symSize: 0x1C }
  - { offset: 0xEC509, size: 0x8, addend: 0x0, symName: __ZN5godot10RefCountedD0Ev.cold.1, symObjAddr: 0x6AB4, symBinAddr: 0xEF834, symSize: 0x1C }
  - { offset: 0xEC524, size: 0x8, addend: 0x0, symName: __ZN5godot10RefCountedD0Ev.cold.1, symObjAddr: 0x6AB4, symBinAddr: 0xEF834, symSize: 0x1C }
  - { offset: 0xEC538, size: 0x8, addend: 0x0, symName: __ZN5godot10RefCountedD0Ev.cold.1, symObjAddr: 0x6AB4, symBinAddr: 0xEF834, symSize: 0x1C }
  - { offset: 0xEC54C, size: 0x8, addend: 0x0, symName: __ZN5godot10RefCountedD0Ev.cold.1, symObjAddr: 0x6AB4, symBinAddr: 0xEF834, symSize: 0x1C }
  - { offset: 0xEC560, size: 0x8, addend: 0x0, symName: __ZN5godot10RefCountedD0Ev.cold.1, symObjAddr: 0x6AB4, symBinAddr: 0xEF834, symSize: 0x1C }
  - { offset: 0xEC574, size: 0x8, addend: 0x0, symName: __ZN5godot10RefCountedD0Ev.cold.1, symObjAddr: 0x6AB4, symBinAddr: 0xEF834, symSize: 0x1C }
  - { offset: 0xEC589, size: 0x8, addend: 0x0, symName: __ZN5godot10RefCountedD0Ev.cold.1, symObjAddr: 0x6AB4, symBinAddr: 0xEF834, symSize: 0x1C }
  - { offset: 0xEC5A8, size: 0x8, addend: 0x0, symName: __ZN5godot8internal23EngineClassRegistrationINS_6LoggerEE8callbackEv.cold.1, symObjAddr: 0x6AD0, symBinAddr: 0xEF850, symSize: 0x5C }
  - { offset: 0xEC5DD, size: 0x8, addend: 0x0, symName: __ZN5godot8internal23EngineClassRegistrationINS_15ScriptBacktraceEE8callbackEv.cold.1, symObjAddr: 0x6B2C, symBinAddr: 0xEF8AC, symSize: 0x5C }
  - { offset: 0xEC627, size: 0x8, addend: 0x0, symName: __ZN5godot15ScriptBacktraceD1Ev.cold.1, symObjAddr: 0x6B88, symBinAddr: 0xEF908, symSize: 0x1C }
  - { offset: 0xEC642, size: 0x8, addend: 0x0, symName: __ZN5godot15ScriptBacktraceD1Ev.cold.1, symObjAddr: 0x6B88, symBinAddr: 0xEF908, symSize: 0x1C }
  - { offset: 0xEC656, size: 0x8, addend: 0x0, symName: __ZN5godot15ScriptBacktraceD1Ev.cold.1, symObjAddr: 0x6B88, symBinAddr: 0xEF908, symSize: 0x1C }
  - { offset: 0xEC66A, size: 0x8, addend: 0x0, symName: __ZN5godot15ScriptBacktraceD1Ev.cold.1, symObjAddr: 0x6B88, symBinAddr: 0xEF908, symSize: 0x1C }
  - { offset: 0xEC67E, size: 0x8, addend: 0x0, symName: __ZN5godot15ScriptBacktraceD1Ev.cold.1, symObjAddr: 0x6B88, symBinAddr: 0xEF908, symSize: 0x1C }
  - { offset: 0xEC692, size: 0x8, addend: 0x0, symName: __ZN5godot15ScriptBacktraceD1Ev.cold.1, symObjAddr: 0x6B88, symBinAddr: 0xEF908, symSize: 0x1C }
  - { offset: 0xEC6A7, size: 0x8, addend: 0x0, symName: __ZN5godot15ScriptBacktraceD1Ev.cold.1, symObjAddr: 0x6B88, symBinAddr: 0xEF908, symSize: 0x1C }
  - { offset: 0xEC6DB, size: 0x8, addend: 0x0, symName: __ZN5godot15ScriptBacktraceD0Ev.cold.1, symObjAddr: 0x6BA4, symBinAddr: 0xEF924, symSize: 0x1C }
  - { offset: 0xEC6F6, size: 0x8, addend: 0x0, symName: __ZN5godot15ScriptBacktraceD0Ev.cold.1, symObjAddr: 0x6BA4, symBinAddr: 0xEF924, symSize: 0x1C }
  - { offset: 0xEC70A, size: 0x8, addend: 0x0, symName: __ZN5godot15ScriptBacktraceD0Ev.cold.1, symObjAddr: 0x6BA4, symBinAddr: 0xEF924, symSize: 0x1C }
  - { offset: 0xEC71E, size: 0x8, addend: 0x0, symName: __ZN5godot15ScriptBacktraceD0Ev.cold.1, symObjAddr: 0x6BA4, symBinAddr: 0xEF924, symSize: 0x1C }
  - { offset: 0xEC732, size: 0x8, addend: 0x0, symName: __ZN5godot15ScriptBacktraceD0Ev.cold.1, symObjAddr: 0x6BA4, symBinAddr: 0xEF924, symSize: 0x1C }
  - { offset: 0xEC746, size: 0x8, addend: 0x0, symName: __ZN5godot15ScriptBacktraceD0Ev.cold.1, symObjAddr: 0x6BA4, symBinAddr: 0xEF924, symSize: 0x1C }
  - { offset: 0xEC75A, size: 0x8, addend: 0x0, symName: __ZN5godot15ScriptBacktraceD0Ev.cold.1, symObjAddr: 0x6BA4, symBinAddr: 0xEF924, symSize: 0x1C }
  - { offset: 0xEC76F, size: 0x8, addend: 0x0, symName: __ZN5godot15ScriptBacktraceD0Ev.cold.1, symObjAddr: 0x6BA4, symBinAddr: 0xEF924, symSize: 0x1C }
  - { offset: 0xEC78F, size: 0x8, addend: 0x0, symName: __ZN5godot8internal23EngineClassRegistrationINS_10ConfigFileEE8callbackEv.cold.1, symObjAddr: 0x6BC0, symBinAddr: 0xEF940, symSize: 0x5C }
  - { offset: 0xEC7D9, size: 0x8, addend: 0x0, symName: __ZN5godot10ConfigFileD1Ev.cold.1, symObjAddr: 0x6C1C, symBinAddr: 0xEF99C, symSize: 0x1C }
  - { offset: 0xEC7F4, size: 0x8, addend: 0x0, symName: __ZN5godot10ConfigFileD1Ev.cold.1, symObjAddr: 0x6C1C, symBinAddr: 0xEF99C, symSize: 0x1C }
  - { offset: 0xEC808, size: 0x8, addend: 0x0, symName: __ZN5godot10ConfigFileD1Ev.cold.1, symObjAddr: 0x6C1C, symBinAddr: 0xEF99C, symSize: 0x1C }
  - { offset: 0xEC81C, size: 0x8, addend: 0x0, symName: __ZN5godot10ConfigFileD1Ev.cold.1, symObjAddr: 0x6C1C, symBinAddr: 0xEF99C, symSize: 0x1C }
  - { offset: 0xEC830, size: 0x8, addend: 0x0, symName: __ZN5godot10ConfigFileD1Ev.cold.1, symObjAddr: 0x6C1C, symBinAddr: 0xEF99C, symSize: 0x1C }
  - { offset: 0xEC844, size: 0x8, addend: 0x0, symName: __ZN5godot10ConfigFileD1Ev.cold.1, symObjAddr: 0x6C1C, symBinAddr: 0xEF99C, symSize: 0x1C }
  - { offset: 0xEC859, size: 0x8, addend: 0x0, symName: __ZN5godot10ConfigFileD1Ev.cold.1, symObjAddr: 0x6C1C, symBinAddr: 0xEF99C, symSize: 0x1C }
  - { offset: 0xEC88D, size: 0x8, addend: 0x0, symName: __ZN5godot10ConfigFileD0Ev.cold.1, symObjAddr: 0x6C38, symBinAddr: 0xEF9B8, symSize: 0x1C }
  - { offset: 0xEC8A8, size: 0x8, addend: 0x0, symName: __ZN5godot10ConfigFileD0Ev.cold.1, symObjAddr: 0x6C38, symBinAddr: 0xEF9B8, symSize: 0x1C }
  - { offset: 0xEC8BC, size: 0x8, addend: 0x0, symName: __ZN5godot10ConfigFileD0Ev.cold.1, symObjAddr: 0x6C38, symBinAddr: 0xEF9B8, symSize: 0x1C }
  - { offset: 0xEC8D0, size: 0x8, addend: 0x0, symName: __ZN5godot10ConfigFileD0Ev.cold.1, symObjAddr: 0x6C38, symBinAddr: 0xEF9B8, symSize: 0x1C }
  - { offset: 0xEC8E4, size: 0x8, addend: 0x0, symName: __ZN5godot10ConfigFileD0Ev.cold.1, symObjAddr: 0x6C38, symBinAddr: 0xEF9B8, symSize: 0x1C }
  - { offset: 0xEC8F8, size: 0x8, addend: 0x0, symName: __ZN5godot10ConfigFileD0Ev.cold.1, symObjAddr: 0x6C38, symBinAddr: 0xEF9B8, symSize: 0x1C }
  - { offset: 0xEC90C, size: 0x8, addend: 0x0, symName: __ZN5godot10ConfigFileD0Ev.cold.1, symObjAddr: 0x6C38, symBinAddr: 0xEF9B8, symSize: 0x1C }
  - { offset: 0xEC921, size: 0x8, addend: 0x0, symName: __ZN5godot10ConfigFileD0Ev.cold.1, symObjAddr: 0x6C38, symBinAddr: 0xEF9B8, symSize: 0x1C }
  - { offset: 0xEC941, size: 0x8, addend: 0x0, symName: __ZN5godot8internal23EngineClassRegistrationINS_5MutexEE8callbackEv.cold.1, symObjAddr: 0x6C54, symBinAddr: 0xEF9D4, symSize: 0x5C }
  - { offset: 0xEC98B, size: 0x8, addend: 0x0, symName: __ZN5godot5MutexD1Ev.cold.1, symObjAddr: 0x6CB0, symBinAddr: 0xEFA30, symSize: 0x1C }
  - { offset: 0xEC9A6, size: 0x8, addend: 0x0, symName: __ZN5godot5MutexD1Ev.cold.1, symObjAddr: 0x6CB0, symBinAddr: 0xEFA30, symSize: 0x1C }
  - { offset: 0xEC9BA, size: 0x8, addend: 0x0, symName: __ZN5godot5MutexD1Ev.cold.1, symObjAddr: 0x6CB0, symBinAddr: 0xEFA30, symSize: 0x1C }
  - { offset: 0xEC9CE, size: 0x8, addend: 0x0, symName: __ZN5godot5MutexD1Ev.cold.1, symObjAddr: 0x6CB0, symBinAddr: 0xEFA30, symSize: 0x1C }
  - { offset: 0xEC9E2, size: 0x8, addend: 0x0, symName: __ZN5godot5MutexD1Ev.cold.1, symObjAddr: 0x6CB0, symBinAddr: 0xEFA30, symSize: 0x1C }
  - { offset: 0xEC9F6, size: 0x8, addend: 0x0, symName: __ZN5godot5MutexD1Ev.cold.1, symObjAddr: 0x6CB0, symBinAddr: 0xEFA30, symSize: 0x1C }
  - { offset: 0xECA0B, size: 0x8, addend: 0x0, symName: __ZN5godot5MutexD1Ev.cold.1, symObjAddr: 0x6CB0, symBinAddr: 0xEFA30, symSize: 0x1C }
  - { offset: 0xECA3F, size: 0x8, addend: 0x0, symName: __ZN5godot5MutexD0Ev.cold.1, symObjAddr: 0x6CCC, symBinAddr: 0xEFA4C, symSize: 0x1C }
  - { offset: 0xECA5A, size: 0x8, addend: 0x0, symName: __ZN5godot5MutexD0Ev.cold.1, symObjAddr: 0x6CCC, symBinAddr: 0xEFA4C, symSize: 0x1C }
  - { offset: 0xECA6E, size: 0x8, addend: 0x0, symName: __ZN5godot5MutexD0Ev.cold.1, symObjAddr: 0x6CCC, symBinAddr: 0xEFA4C, symSize: 0x1C }
  - { offset: 0xECA82, size: 0x8, addend: 0x0, symName: __ZN5godot5MutexD0Ev.cold.1, symObjAddr: 0x6CCC, symBinAddr: 0xEFA4C, symSize: 0x1C }
  - { offset: 0xECA96, size: 0x8, addend: 0x0, symName: __ZN5godot5MutexD0Ev.cold.1, symObjAddr: 0x6CCC, symBinAddr: 0xEFA4C, symSize: 0x1C }
  - { offset: 0xECAAA, size: 0x8, addend: 0x0, symName: __ZN5godot5MutexD0Ev.cold.1, symObjAddr: 0x6CCC, symBinAddr: 0xEFA4C, symSize: 0x1C }
  - { offset: 0xECABE, size: 0x8, addend: 0x0, symName: __ZN5godot5MutexD0Ev.cold.1, symObjAddr: 0x6CCC, symBinAddr: 0xEFA4C, symSize: 0x1C }
  - { offset: 0xECAD3, size: 0x8, addend: 0x0, symName: __ZN5godot5MutexD0Ev.cold.1, symObjAddr: 0x6CCC, symBinAddr: 0xEFA4C, symSize: 0x1C }
  - { offset: 0xECBE5, size: 0x8, addend: 0x0, symName: __ZN5godot18create_method_bindIN6sentry11SentryEventENS_6StringEJEEEPNS_10MethodBindEMT_KFT0_DpT1_E.cold.1, symObjAddr: 0x6CE8, symBinAddr: 0xEFA68, symSize: 0x5C }
  - { offset: 0xECD08, size: 0x8, addend: 0x0, symName: __ZN5godot18create_method_bindIN6sentry11SentryEventEJRKNS_6StringEEEEPNS_10MethodBindEMT_FvDpT0_E.cold.1, symObjAddr: 0x6D44, symBinAddr: 0xEFAC4, symSize: 0x5C }
  - { offset: 0xECE4D, size: 0x8, addend: 0x0, symName: __ZN5godot18create_method_bindIN6sentry11SentryEventEJRKNS_3RefINS1_15SentryTimestampEEEEEEPNS_10MethodBindEMT_FvDpT0_E.cold.1, symObjAddr: 0x6DA0, symBinAddr: 0xEFB20, symSize: 0x5C }
  - { offset: 0xECE7C, size: 0x8, addend: 0x0, symName: __ZNK5godot11MethodBindTIJRKNS_3RefIN6sentry15SentryTimestampEEEEE17gen_argument_typeEi, symObjAddr: 0x3520, symBinAddr: 0x19FEC, symSize: 0x10 }
  - { offset: 0xECEB2, size: 0x8, addend: 0x0, symName: __ZNK5godot11MethodBindTIJRKNS_3RefIN6sentry15SentryTimestampEEEEE22gen_argument_type_infoEi, symObjAddr: 0x3530, symBinAddr: 0x19FFC, symSize: 0x138 }
  - { offset: 0xECFEB, size: 0x8, addend: 0x0, symName: __ZNK5godot11MethodBindTIJRKNS_3RefIN6sentry15SentryTimestampEEEEE21get_argument_metadataEi, symObjAddr: 0x3668, symBinAddr: 0x1A134, symSize: 0x8 }
  - { offset: 0xED021, size: 0x8, addend: 0x0, symName: __ZNK5godot11MethodBindTIJRKNS_3RefIN6sentry15SentryTimestampEEEEE4callEPvPKPKvxR20GDExtensionCallError, symObjAddr: 0x3670, symBinAddr: 0x1A13C, symSize: 0x40 }
  - { offset: 0xED1DE, size: 0x8, addend: 0x0, symName: __ZNK5godot11MethodBindTIJRKNS_3RefIN6sentry15SentryTimestampEEEEE7ptrcallEPvPKPKvS8_, symObjAddr: 0x36B0, symBinAddr: 0x1A17C, symSize: 0xC0 }
  - { offset: 0xED409, size: 0x8, addend: 0x0, symName: __ZN5godot11MethodBindTIJRKNS_3RefIN6sentry15SentryTimestampEEEEED1Ev, symObjAddr: 0x3770, symBinAddr: 0x1A23C, symSize: 0x4 }
  - { offset: 0xED42C, size: 0x8, addend: 0x0, symName: __ZN5godot11MethodBindTIJRKNS_3RefIN6sentry15SentryTimestampEEEEED1Ev, symObjAddr: 0x3770, symBinAddr: 0x1A23C, symSize: 0x4 }
  - { offset: 0xED464, size: 0x8, addend: 0x0, symName: __ZN5godot11MethodBindTIJRKNS_3RefIN6sentry15SentryTimestampEEEEED0Ev, symObjAddr: 0x3774, symBinAddr: 0x1A240, symSize: 0x14 }
  - { offset: 0xED4CC, size: 0x8, addend: 0x0, symName: __ZN5godot11GetTypeInfoIRKNS_3RefIN6sentry15SentryTimestampEEEvE14get_class_infoEv, symObjAddr: 0x385C, symBinAddr: 0x1A328, symSize: 0x12C }
  - { offset: 0xED57B, size: 0x8, addend: 0x0, symName: __ZN5godot11GetTypeInfoIRKNS_3RefIN6sentry15SentryTimestampEEEvE14get_class_infoEv.cold.1, symObjAddr: 0x6DFC, symBinAddr: 0xEFB7C, symSize: 0x58 }
  - { offset: 0xED622, size: 0x8, addend: 0x0, symName: __ZN5godot6Object7cast_toIN6sentry15SentryTimestampEEEPT_PS0_, symObjAddr: 0x3AF8, symBinAddr: 0x1A5C4, symSize: 0xE8 }
  - { offset: 0xED6B8, size: 0x8, addend: 0x0, symName: __ZN5godot6Object7cast_toIN6sentry15SentryTimestampEEEPT_PS0_.cold.1, symObjAddr: 0x6E54, symBinAddr: 0xEFBD4, symSize: 0x5C }
  - { offset: 0xED748, size: 0x8, addend: 0x0, symName: __ZN5godot18create_method_bindIN6sentry11SentryEventENS_3RefINS1_15SentryTimestampEEEJEEEPNS_10MethodBindEMT_KFT0_DpT1_E.cold.1, symObjAddr: 0x6EB0, symBinAddr: 0xEFC30, symSize: 0x5C }
  - { offset: 0xED777, size: 0x8, addend: 0x0, symName: __ZNK5godot13MethodBindTRCINS_3RefIN6sentry15SentryTimestampEEEJEE17gen_argument_typeEi, symObjAddr: 0x3D0C, symBinAddr: 0x1A7D8, symSize: 0x8 }
  - { offset: 0xED7AD, size: 0x8, addend: 0x0, symName: __ZNK5godot13MethodBindTRCINS_3RefIN6sentry15SentryTimestampEEEJEE22gen_argument_type_infoEi, symObjAddr: 0x3D14, symBinAddr: 0x1A7E0, symSize: 0x4 }
  - { offset: 0xED7E4, size: 0x8, addend: 0x0, symName: __ZNK5godot13MethodBindTRCINS_3RefIN6sentry15SentryTimestampEEEJEE22gen_argument_type_infoEi, symObjAddr: 0x3D14, symBinAddr: 0x1A7E0, symSize: 0x4 }
  - { offset: 0xED86D, size: 0x8, addend: 0x0, symName: __ZNK5godot13MethodBindTRCINS_3RefIN6sentry15SentryTimestampEEEJEE21get_argument_metadataEi, symObjAddr: 0x3D18, symBinAddr: 0x1A7E4, symSize: 0x8 }
  - { offset: 0xED8A3, size: 0x8, addend: 0x0, symName: __ZNK5godot13MethodBindTRCINS_3RefIN6sentry15SentryTimestampEEEJEE4callEPvPKPKvxR20GDExtensionCallError, symObjAddr: 0x3D20, symBinAddr: 0x1A7EC, symSize: 0x64 }
  - { offset: 0xED990, size: 0x8, addend: 0x0, symName: __ZNK5godot13MethodBindTRCINS_3RefIN6sentry15SentryTimestampEEEJEE7ptrcallEPvPKPKvS6_, symObjAddr: 0x3D84, symBinAddr: 0x1A850, symSize: 0x9C }
  - { offset: 0xEDB02, size: 0x8, addend: 0x0, symName: __ZNK5godot13MethodBindTRCINS_3RefIN6sentry15SentryTimestampEEEJEE7ptrcallEPvPKPKvS6_.cold.1, symObjAddr: 0x6F0C, symBinAddr: 0xEFC8C, symSize: 0x38 }
  - { offset: 0xEDB79, size: 0x8, addend: 0x0, symName: __ZN5godot13MethodBindTRCINS_3RefIN6sentry15SentryTimestampEEEJEED1Ev, symObjAddr: 0x3E20, symBinAddr: 0x1A8EC, symSize: 0x4 }
  - { offset: 0xEDB9C, size: 0x8, addend: 0x0, symName: __ZN5godot13MethodBindTRCINS_3RefIN6sentry15SentryTimestampEEEJEED1Ev, symObjAddr: 0x3E20, symBinAddr: 0x1A8EC, symSize: 0x4 }
  - { offset: 0xEDBD4, size: 0x8, addend: 0x0, symName: __ZN5godot13MethodBindTRCINS_3RefIN6sentry15SentryTimestampEEEJEED0Ev, symObjAddr: 0x3E24, symBinAddr: 0x1A8F0, symSize: 0x14 }
  - { offset: 0xEDC3C, size: 0x8, addend: 0x0, symName: __ZN5godot11GetTypeInfoINS_3RefIN6sentry15SentryTimestampEEEvE14get_class_infoEv.cold.1, symObjAddr: 0x6F44, symBinAddr: 0xEFCC4, symSize: 0x58 }
  - { offset: 0xEDCE3, size: 0x8, addend: 0x0, symName: __ZN5godot18create_method_bindIN6sentry11SentryEventEJNS1_5LevelEEEEPNS_10MethodBindEMT_FvDpT0_E.cold.1, symObjAddr: 0x6F9C, symBinAddr: 0xEFD1C, symSize: 0x5C }
  - { offset: 0xEDD74, size: 0x8, addend: 0x0, symName: __ZN5godot18create_method_bindIN6sentry11SentryEventENS1_5LevelEJEEEPNS_10MethodBindEMT_KFT0_DpT1_E.cold.1, symObjAddr: 0x6FF8, symBinAddr: 0xEFD78, symSize: 0x5C }
  - { offset: 0xEDE2A, size: 0x8, addend: 0x0, symName: __ZN5godot18create_method_bindIN6sentry11SentryEventEJRKNS_6StringES5_EEEPNS_10MethodBindEMT_FvDpT0_E.cold.1, symObjAddr: 0x7054, symBinAddr: 0xEFDD4, symSize: 0x5C }
  - { offset: 0xEDE59, size: 0x8, addend: 0x0, symName: __ZNK5godot11MethodBindTIJRKNS_6StringES3_EE17gen_argument_typeEi, symObjAddr: 0x4AC4, symBinAddr: 0x1AD40, symSize: 0x10 }
  - { offset: 0xEDE9B, size: 0x8, addend: 0x0, symName: __ZNK5godot11MethodBindTIJRKNS_6StringES3_EE22gen_argument_type_infoEi, symObjAddr: 0x4AD4, symBinAddr: 0x1AD50, symSize: 0x138 }
  - { offset: 0xEDFFA, size: 0x8, addend: 0x0, symName: __ZNK5godot11MethodBindTIJRKNS_6StringES3_EE21get_argument_metadataEi, symObjAddr: 0x4C0C, symBinAddr: 0x1AE88, symSize: 0x8 }
  - { offset: 0xEE030, size: 0x8, addend: 0x0, symName: __ZNK5godot11MethodBindTIJRKNS_6StringES3_EE4callEPvPKPKvxR20GDExtensionCallError, symObjAddr: 0x4C14, symBinAddr: 0x1AE90, symSize: 0x40 }
  - { offset: 0xEE0DD, size: 0x8, addend: 0x0, symName: __ZNK5godot11MethodBindTIJRKNS_6StringES3_EE7ptrcallEPvPKPKvS5_, symObjAddr: 0x4C54, symBinAddr: 0x1AED0, symSize: 0xA4 }
  - { offset: 0xEE1F8, size: 0x8, addend: 0x0, symName: __ZN5godot11MethodBindTIJRKNS_6StringES3_EED1Ev, symObjAddr: 0x4CF8, symBinAddr: 0x1AF74, symSize: 0x4 }
  - { offset: 0xEE21B, size: 0x8, addend: 0x0, symName: __ZN5godot11MethodBindTIJRKNS_6StringES3_EED1Ev, symObjAddr: 0x4CF8, symBinAddr: 0x1AF74, symSize: 0x4 }
  - { offset: 0xEE253, size: 0x8, addend: 0x0, symName: __ZN5godot11MethodBindTIJRKNS_6StringES3_EED0Ev, symObjAddr: 0x4CFC, symBinAddr: 0x1AF78, symSize: 0x14 }
  - { offset: 0xEE31D, size: 0x8, addend: 0x0, symName: __ZN5godot18create_method_bindIN6sentry11SentryEventENS_6StringEJRKS3_EEEPNS_10MethodBindEMT_FT0_DpT1_E.cold.1, symObjAddr: 0x70B0, symBinAddr: 0xEFE30, symSize: 0x5C }
  - { offset: 0xEE34C, size: 0x8, addend: 0x0, symName: __ZNK5godot12MethodBindTRINS_6StringEJRKS1_EE17gen_argument_typeEi, symObjAddr: 0x4FD0, symBinAddr: 0x1B24C, symSize: 0x8 }
  - { offset: 0xEE382, size: 0x8, addend: 0x0, symName: __ZNK5godot12MethodBindTRINS_6StringEJRKS1_EE22gen_argument_type_infoEi, symObjAddr: 0x4FD8, symBinAddr: 0x1B254, symSize: 0x150 }
  - { offset: 0xEE4F4, size: 0x8, addend: 0x0, symName: __ZNK5godot12MethodBindTRINS_6StringEJRKS1_EE21get_argument_metadataEi, symObjAddr: 0x5128, symBinAddr: 0x1B3A4, symSize: 0x8 }
  - { offset: 0xEE52A, size: 0x8, addend: 0x0, symName: __ZNK5godot12MethodBindTRINS_6StringEJRKS1_EE4callEPvPKPKvxR20GDExtensionCallError, symObjAddr: 0x5130, symBinAddr: 0x1B3AC, symSize: 0x64 }
  - { offset: 0xEE5D2, size: 0x8, addend: 0x0, symName: __ZNK5godot12MethodBindTRINS_6StringEJRKS1_EE7ptrcallEPvPKPKvS5_, symObjAddr: 0x5194, symBinAddr: 0x1B410, symSize: 0xA4 }
  - { offset: 0xEE6EE, size: 0x8, addend: 0x0, symName: __ZN5godot12MethodBindTRINS_6StringEJRKS1_EED1Ev, symObjAddr: 0x5238, symBinAddr: 0x1B4B4, symSize: 0x4 }
  - { offset: 0xEE711, size: 0x8, addend: 0x0, symName: __ZN5godot12MethodBindTRINS_6StringEJRKS1_EED1Ev, symObjAddr: 0x5238, symBinAddr: 0x1B4B4, symSize: 0x4 }
  - { offset: 0xEE749, size: 0x8, addend: 0x0, symName: __ZN5godot12MethodBindTRINS_6StringEJRKS1_EED0Ev, symObjAddr: 0x523C, symBinAddr: 0x1B4B8, symSize: 0x14 }
  - { offset: 0xEE813, size: 0x8, addend: 0x0, symName: __ZN5godot18create_method_bindIN6sentry11SentryEventEbJEEEPNS_10MethodBindEMT_KFT0_DpT1_E.cold.1, symObjAddr: 0x710C, symBinAddr: 0xEFE8C, symSize: 0x5C }
  - { offset: 0xEE842, size: 0x8, addend: 0x0, symName: __ZNK5godot13MethodBindTRCIbJEE17gen_argument_typeEi, symObjAddr: 0x54E0, symBinAddr: 0x1B75C, symSize: 0x8 }
  - { offset: 0xEE87F, size: 0x8, addend: 0x0, symName: __ZNK5godot13MethodBindTRCIbJEE22gen_argument_type_infoEi, symObjAddr: 0x54E8, symBinAddr: 0x1B764, symSize: 0xF8 }
  - { offset: 0xEE942, size: 0x8, addend: 0x0, symName: __ZNK5godot13MethodBindTRCIbJEE21get_argument_metadataEi, symObjAddr: 0x55E0, symBinAddr: 0x1B85C, symSize: 0x8 }
  - { offset: 0xEE978, size: 0x8, addend: 0x0, symName: __ZNK5godot13MethodBindTRCIbJEE4callEPvPKPKvxR20GDExtensionCallError, symObjAddr: 0x55E8, symBinAddr: 0x1B864, symSize: 0xC0 }
  - { offset: 0xEEA8F, size: 0x8, addend: 0x0, symName: __ZNK5godot13MethodBindTRCIbJEE7ptrcallEPvPKPKvS2_, symObjAddr: 0x56A8, symBinAddr: 0x1B924, symSize: 0x38 }
  - { offset: 0xEEB75, size: 0x8, addend: 0x0, symName: __ZN5godot13MethodBindTRCIbJEED1Ev, symObjAddr: 0x56E0, symBinAddr: 0x1B95C, symSize: 0x4 }
  - { offset: 0xEEB98, size: 0x8, addend: 0x0, symName: __ZN5godot13MethodBindTRCIbJEED1Ev, symObjAddr: 0x56E0, symBinAddr: 0x1B95C, symSize: 0x4 }
  - { offset: 0xEEBD0, size: 0x8, addend: 0x0, symName: __ZN5godot13MethodBindTRCIbJEED0Ev, symObjAddr: 0x56E4, symBinAddr: 0x1B960, symSize: 0x14 }
  - { offset: 0xEEC9A, size: 0x8, addend: 0x0, symName: __ZN5godot18create_method_bindIN6sentry11SentryEventEiJEEEPNS_10MethodBindEMT_KFT0_DpT1_E.cold.1, symObjAddr: 0x7168, symBinAddr: 0xEFEE8, symSize: 0x5C }
  - { offset: 0xEECC9, size: 0x8, addend: 0x0, symName: __ZNK5godot13MethodBindTRCIiJEE17gen_argument_typeEi, symObjAddr: 0x5824, symBinAddr: 0x1BAA0, symSize: 0x8 }
  - { offset: 0xEED06, size: 0x8, addend: 0x0, symName: __ZNK5godot13MethodBindTRCIiJEE22gen_argument_type_infoEi, symObjAddr: 0x582C, symBinAddr: 0x1BAA8, symSize: 0xF8 }
  - { offset: 0xEEDC9, size: 0x8, addend: 0x0, symName: __ZNK5godot13MethodBindTRCIiJEE21get_argument_metadataEi, symObjAddr: 0x5924, symBinAddr: 0x1BBA0, symSize: 0xC }
  - { offset: 0xEEDFF, size: 0x8, addend: 0x0, symName: __ZNK5godot13MethodBindTRCIiJEE4callEPvPKPKvxR20GDExtensionCallError, symObjAddr: 0x5930, symBinAddr: 0x1BBAC, symSize: 0xC0 }
  - { offset: 0xEEF3F, size: 0x8, addend: 0x0, symName: __ZNK5godot13MethodBindTRCIiJEE7ptrcallEPvPKPKvS2_, symObjAddr: 0x59F0, symBinAddr: 0x1BC6C, symSize: 0x3C }
  - { offset: 0xEF02C, size: 0x8, addend: 0x0, symName: __ZN5godot13MethodBindTRCIiJEED1Ev, symObjAddr: 0x5A2C, symBinAddr: 0x1BCA8, symSize: 0x4 }
  - { offset: 0xEF04F, size: 0x8, addend: 0x0, symName: __ZN5godot13MethodBindTRCIiJEED1Ev, symObjAddr: 0x5A2C, symBinAddr: 0x1BCA8, symSize: 0x4 }
  - { offset: 0xEF087, size: 0x8, addend: 0x0, symName: __ZN5godot13MethodBindTRCIiJEED0Ev, symObjAddr: 0x5A30, symBinAddr: 0x1BCAC, symSize: 0x14 }
  - { offset: 0xEF151, size: 0x8, addend: 0x0, symName: __ZN5godot18create_method_bindIN6sentry11SentryEventEJiRKNS_6StringEEEEPNS_10MethodBindEMT_FvDpT0_E.cold.1, symObjAddr: 0x71C4, symBinAddr: 0xEFF44, symSize: 0x5C }
  - { offset: 0xEF180, size: 0x8, addend: 0x0, symName: __ZNK5godot11MethodBindTIJiRKNS_6StringEEE17gen_argument_typeEi, symObjAddr: 0x5B5C, symBinAddr: 0x1BDD8, symSize: 0x24 }
  - { offset: 0xEF1B6, size: 0x8, addend: 0x0, symName: __ZNK5godot11MethodBindTIJiRKNS_6StringEEE22gen_argument_type_infoEi, symObjAddr: 0x5B80, symBinAddr: 0x1BDFC, symSize: 0x138 }
  - { offset: 0xEF31F, size: 0x8, addend: 0x0, symName: __ZNK5godot11MethodBindTIJiRKNS_6StringEEE21get_argument_metadataEi, symObjAddr: 0x5CB8, symBinAddr: 0x1BF34, symSize: 0x10 }
  - { offset: 0xEF3AD, size: 0x8, addend: 0x0, symName: __ZNK5godot11MethodBindTIJiRKNS_6StringEEE4callEPvPKPKvxR20GDExtensionCallError, symObjAddr: 0x5CC8, symBinAddr: 0x1BF44, symSize: 0x40 }
  - { offset: 0xEF46D, size: 0x8, addend: 0x0, symName: __ZNK5godot11MethodBindTIJiRKNS_6StringEEE7ptrcallEPvPKPKvS5_, symObjAddr: 0x5D08, symBinAddr: 0x1BF84, symSize: 0x90 }
  - { offset: 0xEF588, size: 0x8, addend: 0x0, symName: __ZN5godot11MethodBindTIJiRKNS_6StringEEED1Ev, symObjAddr: 0x5D98, symBinAddr: 0x1C014, symSize: 0x4 }
  - { offset: 0xEF5AB, size: 0x8, addend: 0x0, symName: __ZN5godot11MethodBindTIJiRKNS_6StringEEED1Ev, symObjAddr: 0x5D98, symBinAddr: 0x1C014, symSize: 0x4 }
  - { offset: 0xEF5E3, size: 0x8, addend: 0x0, symName: __ZN5godot11MethodBindTIJiRKNS_6StringEEED0Ev, symObjAddr: 0x5D9C, symBinAddr: 0x1C018, symSize: 0x14 }
  - { offset: 0xEF6C0, size: 0x8, addend: 0x0, symName: __ZN5godot18create_method_bindIN6sentry11SentryEventENS_6StringEJiEEEPNS_10MethodBindEMT_KFT0_DpT1_E.cold.1, symObjAddr: 0x7220, symBinAddr: 0xEFFA0, symSize: 0x5C }
  - { offset: 0xEF6EF, size: 0x8, addend: 0x0, symName: __ZNK5godot13MethodBindTRCINS_6StringEJiEE17gen_argument_typeEi, symObjAddr: 0x61E8, symBinAddr: 0x1C464, symSize: 0x14 }
  - { offset: 0xEF725, size: 0x8, addend: 0x0, symName: __ZNK5godot13MethodBindTRCINS_6StringEJiEE22gen_argument_type_infoEi, symObjAddr: 0x61FC, symBinAddr: 0x1C478, symSize: 0x150 }
  - { offset: 0xEF897, size: 0x8, addend: 0x0, symName: __ZNK5godot13MethodBindTRCINS_6StringEJiEE21get_argument_metadataEi, symObjAddr: 0x634C, symBinAddr: 0x1C5C8, symSize: 0x14 }
  - { offset: 0xEF8CD, size: 0x8, addend: 0x0, symName: __ZNK5godot13MethodBindTRCINS_6StringEJiEE4callEPvPKPKvxR20GDExtensionCallError, symObjAddr: 0x6360, symBinAddr: 0x1C5DC, symSize: 0x64 }
  - { offset: 0xEF975, size: 0x8, addend: 0x0, symName: __ZNK5godot13MethodBindTRCINS_6StringEJiEE7ptrcallEPvPKPKvS3_, symObjAddr: 0x63C4, symBinAddr: 0x1C640, symSize: 0x88 }
  - { offset: 0xEFA85, size: 0x8, addend: 0x0, symName: __ZN5godot13MethodBindTRCINS_6StringEJiEED1Ev, symObjAddr: 0x644C, symBinAddr: 0x1C6C8, symSize: 0x4 }
  - { offset: 0xEFAA8, size: 0x8, addend: 0x0, symName: __ZN5godot13MethodBindTRCINS_6StringEJiEED1Ev, symObjAddr: 0x644C, symBinAddr: 0x1C6C8, symSize: 0x4 }
  - { offset: 0xEFAE0, size: 0x8, addend: 0x0, symName: __ZN5godot13MethodBindTRCINS_6StringEJiEED0Ev, symObjAddr: 0x6450, symBinAddr: 0x1C6CC, symSize: 0x14 }
  - { offset: 0xEFB48, size: 0x8, addend: 0x0, symName: _OUTLINED_FUNCTION_0, symObjAddr: 0x727C, symBinAddr: 0x1C838, symSize: 0x10 }
  - { offset: 0xEFB60, size: 0x8, addend: 0x0, symName: _OUTLINED_FUNCTION_1, symObjAddr: 0x728C, symBinAddr: 0x1C848, symSize: 0xC }
  - { offset: 0xEFB78, size: 0x8, addend: 0x0, symName: _OUTLINED_FUNCTION_2, symObjAddr: 0x7298, symBinAddr: 0x1C854, symSize: 0xC }
  - { offset: 0xEFB90, size: 0x8, addend: 0x0, symName: _OUTLINED_FUNCTION_3, symObjAddr: 0x72A4, symBinAddr: 0x1C860, symSize: 0x8 }
  - { offset: 0xEFBA8, size: 0x8, addend: 0x0, symName: _OUTLINED_FUNCTION_4, symObjAddr: 0x72AC, symBinAddr: 0x1C868, symSize: 0x8 }
  - { offset: 0xEFBC0, size: 0x8, addend: 0x0, symName: _OUTLINED_FUNCTION_5, symObjAddr: 0x72B4, symBinAddr: 0x1C870, symSize: 0x8 }
  - { offset: 0xEFBD8, size: 0x8, addend: 0x0, symName: _OUTLINED_FUNCTION_6, symObjAddr: 0x72BC, symBinAddr: 0x1C878, symSize: 0x8 }
  - { offset: 0xF3BA7, size: 0x8, addend: 0x0, symName: __ZN5godot18create_method_bindIN6sentry14SentryFeedbackEJRKNS_6StringEEEEPNS_10MethodBindEMT_FvDpT0_E, symObjAddr: 0x11AC, symBinAddr: 0x1D5F8, symSize: 0x114 }
  - { offset: 0xF3CEF, size: 0x8, addend: 0x0, symName: __ZN5godot18create_method_bindIN6sentry14SentryFeedbackENS_6StringEJEEEPNS_10MethodBindEMT_KFT0_DpT1_E, symObjAddr: 0x1790, symBinAddr: 0x1D70C, symSize: 0x12C }
  - { offset: 0x100821, size: 0x8, addend: 0x0, symName: ___cxx_global_var_init, symObjAddr: 0x1FC4, symBinAddr: 0x1D8BC, symSize: 0x4C }
  - { offset: 0x1008A6, size: 0x8, addend: 0x0, symName: ___cxx_global_var_init.1, symObjAddr: 0x2010, symBinAddr: 0x1D908, symSize: 0x4C }
  - { offset: 0x10092B, size: 0x8, addend: 0x0, symName: ___cxx_global_var_init.2, symObjAddr: 0x205C, symBinAddr: 0x1D954, symSize: 0x4C }
  - { offset: 0x100D86, size: 0x8, addend: 0x0, symName: __ZN6sentry14SentryFeedback13_bind_methodsEv, symObjAddr: 0x0, symBinAddr: 0x1CA94, symSize: 0xB50 }
  - { offset: 0x1027F5, size: 0x8, addend: 0x0, symName: __ZN6sentry14SentryFeedback13_bind_methodsEv.cold.1, symObjAddr: 0x1B64, symBinAddr: 0xEFFFC, symSize: 0x5C }
  - { offset: 0x102823, size: 0x8, addend: 0x0, symName: __ZN6sentry14SentryFeedback13_bind_methodsEv.cold.2, symObjAddr: 0x1BC0, symBinAddr: 0xF0058, symSize: 0x58 }
  - { offset: 0x102851, size: 0x8, addend: 0x0, symName: __ZN6sentry14SentryFeedback13_bind_methodsEv.cold.3, symObjAddr: 0x1C18, symBinAddr: 0xF00B0, symSize: 0x58 }
  - { offset: 0x10287F, size: 0x8, addend: 0x0, symName: __ZN6sentry14SentryFeedback13_bind_methodsEv.cold.4, symObjAddr: 0x1C70, symBinAddr: 0xF0108, symSize: 0x58 }
  - { offset: 0x1028B4, size: 0x8, addend: 0x0, symName: __ZN5godot8internal23EngineClassRegistrationINS_6ObjectEE8callbackEv.cold.1, symObjAddr: 0x1CC8, symBinAddr: 0xF0160, symSize: 0x5C }
  - { offset: 0x10294F, size: 0x8, addend: 0x0, symName: __ZN5godot6ObjectD1Ev.cold.1, symObjAddr: 0x1D24, symBinAddr: 0xF01BC, symSize: 0x1C }
  - { offset: 0x10296A, size: 0x8, addend: 0x0, symName: __ZN5godot6ObjectD1Ev.cold.1, symObjAddr: 0x1D24, symBinAddr: 0xF01BC, symSize: 0x1C }
  - { offset: 0x10297E, size: 0x8, addend: 0x0, symName: __ZN5godot6ObjectD1Ev.cold.1, symObjAddr: 0x1D24, symBinAddr: 0xF01BC, symSize: 0x1C }
  - { offset: 0x102992, size: 0x8, addend: 0x0, symName: __ZN5godot6ObjectD1Ev.cold.1, symObjAddr: 0x1D24, symBinAddr: 0xF01BC, symSize: 0x1C }
  - { offset: 0x1029A7, size: 0x8, addend: 0x0, symName: __ZN5godot6ObjectD1Ev.cold.1, symObjAddr: 0x1D24, symBinAddr: 0xF01BC, symSize: 0x1C }
  - { offset: 0x1029D7, size: 0x8, addend: 0x0, symName: __ZN5godot6ObjectD0Ev.cold.1, symObjAddr: 0x1D40, symBinAddr: 0xF01D8, symSize: 0x1C }
  - { offset: 0x1029F2, size: 0x8, addend: 0x0, symName: __ZN5godot6ObjectD0Ev.cold.1, symObjAddr: 0x1D40, symBinAddr: 0xF01D8, symSize: 0x1C }
  - { offset: 0x102A06, size: 0x8, addend: 0x0, symName: __ZN5godot6ObjectD0Ev.cold.1, symObjAddr: 0x1D40, symBinAddr: 0xF01D8, symSize: 0x1C }
  - { offset: 0x102A1A, size: 0x8, addend: 0x0, symName: __ZN5godot6ObjectD0Ev.cold.1, symObjAddr: 0x1D40, symBinAddr: 0xF01D8, symSize: 0x1C }
  - { offset: 0x102A2E, size: 0x8, addend: 0x0, symName: __ZN5godot6ObjectD0Ev.cold.1, symObjAddr: 0x1D40, symBinAddr: 0xF01D8, symSize: 0x1C }
  - { offset: 0x102A43, size: 0x8, addend: 0x0, symName: __ZN5godot6ObjectD0Ev.cold.1, symObjAddr: 0x1D40, symBinAddr: 0xF01D8, symSize: 0x1C }
  - { offset: 0x102A5A, size: 0x8, addend: 0x0, symName: __ZN5godot7WrappedD1Ev.cold.1, symObjAddr: 0x1D5C, symBinAddr: 0xF01F4, symSize: 0x1C }
  - { offset: 0x102A75, size: 0x8, addend: 0x0, symName: __ZN5godot7WrappedD1Ev.cold.1, symObjAddr: 0x1D5C, symBinAddr: 0xF01F4, symSize: 0x1C }
  - { offset: 0x102A89, size: 0x8, addend: 0x0, symName: __ZN5godot7WrappedD1Ev.cold.1, symObjAddr: 0x1D5C, symBinAddr: 0xF01F4, symSize: 0x1C }
  - { offset: 0x102A9E, size: 0x8, addend: 0x0, symName: __ZN5godot7WrappedD1Ev.cold.1, symObjAddr: 0x1D5C, symBinAddr: 0xF01F4, symSize: 0x1C }
  - { offset: 0x102ACD, size: 0x8, addend: 0x0, symName: __ZN5godot7WrappedD0Ev.cold.1, symObjAddr: 0x1D78, symBinAddr: 0xF0210, symSize: 0x1C }
  - { offset: 0x102AE8, size: 0x8, addend: 0x0, symName: __ZN5godot7WrappedD0Ev.cold.1, symObjAddr: 0x1D78, symBinAddr: 0xF0210, symSize: 0x1C }
  - { offset: 0x102AFC, size: 0x8, addend: 0x0, symName: __ZN5godot7WrappedD0Ev.cold.1, symObjAddr: 0x1D78, symBinAddr: 0xF0210, symSize: 0x1C }
  - { offset: 0x102B10, size: 0x8, addend: 0x0, symName: __ZN5godot7WrappedD0Ev.cold.1, symObjAddr: 0x1D78, symBinAddr: 0xF0210, symSize: 0x1C }
  - { offset: 0x102B25, size: 0x8, addend: 0x0, symName: __ZN5godot7WrappedD0Ev.cold.1, symObjAddr: 0x1D78, symBinAddr: 0xF0210, symSize: 0x1C }
  - { offset: 0x102B3B, size: 0x8, addend: 0x0, symName: __ZN5godot4ListINS_12PropertyInfoENS_16DefaultAllocatorEE5_Data5eraseEPNS3_7ElementE.cold.2, symObjAddr: 0x1DB4, symBinAddr: 0xF024C, symSize: 0x20 }
  - { offset: 0x102B53, size: 0x8, addend: 0x0, symName: __ZN5godot4ListINS_12PropertyInfoENS_16DefaultAllocatorEE5_Data5eraseEPNS3_7ElementE.cold.1, symObjAddr: 0x1D94, symBinAddr: 0xF022C, symSize: 0x20 }
  - { offset: 0x102B72, size: 0x8, addend: 0x0, symName: __ZN5godot8internal23EngineClassRegistrationINS_16ClassDBSingletonEE8callbackEv.cold.1, symObjAddr: 0x1DD4, symBinAddr: 0xF026C, symSize: 0x5C }
  - { offset: 0x102BA7, size: 0x8, addend: 0x0, symName: __ZN5godot8internal23EngineClassRegistrationINS_10RefCountedEE8callbackEv.cold.1, symObjAddr: 0x1E30, symBinAddr: 0xF02C8, symSize: 0x5C }
  - { offset: 0x102BF1, size: 0x8, addend: 0x0, symName: __ZN5godot10RefCountedD1Ev.cold.1, symObjAddr: 0x1E8C, symBinAddr: 0xF0324, symSize: 0x1C }
  - { offset: 0x102C0C, size: 0x8, addend: 0x0, symName: __ZN5godot10RefCountedD1Ev.cold.1, symObjAddr: 0x1E8C, symBinAddr: 0xF0324, symSize: 0x1C }
  - { offset: 0x102C20, size: 0x8, addend: 0x0, symName: __ZN5godot10RefCountedD1Ev.cold.1, symObjAddr: 0x1E8C, symBinAddr: 0xF0324, symSize: 0x1C }
  - { offset: 0x102C34, size: 0x8, addend: 0x0, symName: __ZN5godot10RefCountedD1Ev.cold.1, symObjAddr: 0x1E8C, symBinAddr: 0xF0324, symSize: 0x1C }
  - { offset: 0x102C48, size: 0x8, addend: 0x0, symName: __ZN5godot10RefCountedD1Ev.cold.1, symObjAddr: 0x1E8C, symBinAddr: 0xF0324, symSize: 0x1C }
  - { offset: 0x102C5D, size: 0x8, addend: 0x0, symName: __ZN5godot10RefCountedD1Ev.cold.1, symObjAddr: 0x1E8C, symBinAddr: 0xF0324, symSize: 0x1C }
  - { offset: 0x102C90, size: 0x8, addend: 0x0, symName: __ZN5godot10RefCountedD0Ev.cold.1, symObjAddr: 0x1EA8, symBinAddr: 0xF0340, symSize: 0x1C }
  - { offset: 0x102CAB, size: 0x8, addend: 0x0, symName: __ZN5godot10RefCountedD0Ev.cold.1, symObjAddr: 0x1EA8, symBinAddr: 0xF0340, symSize: 0x1C }
  - { offset: 0x102CBF, size: 0x8, addend: 0x0, symName: __ZN5godot10RefCountedD0Ev.cold.1, symObjAddr: 0x1EA8, symBinAddr: 0xF0340, symSize: 0x1C }
  - { offset: 0x102CD3, size: 0x8, addend: 0x0, symName: __ZN5godot10RefCountedD0Ev.cold.1, symObjAddr: 0x1EA8, symBinAddr: 0xF0340, symSize: 0x1C }
  - { offset: 0x102CE7, size: 0x8, addend: 0x0, symName: __ZN5godot10RefCountedD0Ev.cold.1, symObjAddr: 0x1EA8, symBinAddr: 0xF0340, symSize: 0x1C }
  - { offset: 0x102CFB, size: 0x8, addend: 0x0, symName: __ZN5godot10RefCountedD0Ev.cold.1, symObjAddr: 0x1EA8, symBinAddr: 0xF0340, symSize: 0x1C }
  - { offset: 0x102D10, size: 0x8, addend: 0x0, symName: __ZN5godot10RefCountedD0Ev.cold.1, symObjAddr: 0x1EA8, symBinAddr: 0xF0340, symSize: 0x1C }
  - { offset: 0x102D28, size: 0x8, addend: 0x0, symName: __ZN6sentry14SentryFeedback8set_nameERKN5godot6StringE, symObjAddr: 0x1198, symBinAddr: 0x1D5E4, symSize: 0x8 }
  - { offset: 0x102D5D, size: 0x8, addend: 0x0, symName: __ZNK6sentry14SentryFeedback8get_nameEv, symObjAddr: 0x11A0, symBinAddr: 0x1D5EC, symSize: 0xC }
  - { offset: 0x102E7D, size: 0x8, addend: 0x0, symName: __ZN5godot18create_method_bindIN6sentry14SentryFeedbackEJRKNS_6StringEEEEPNS_10MethodBindEMT_FvDpT0_E.cold.1, symObjAddr: 0x1EC4, symBinAddr: 0xF035C, symSize: 0x5C }
  - { offset: 0x102F13, size: 0x8, addend: 0x0, symName: __ZN5godot18create_method_bindIN6sentry14SentryFeedbackENS_6StringEJEEEPNS_10MethodBindEMT_KFT0_DpT1_E.cold.1, symObjAddr: 0x1F20, symBinAddr: 0xF03B8, symSize: 0x5C }
  - { offset: 0x102F42, size: 0x8, addend: 0x0, symName: __ZN6sentry14SentryFeedback17set_contact_emailERKN5godot6StringE, symObjAddr: 0x1B28, symBinAddr: 0x1D838, symSize: 0x8 }
  - { offset: 0x102F77, size: 0x8, addend: 0x0, symName: __ZNK6sentry14SentryFeedback17get_contact_emailEv, symObjAddr: 0x1B30, symBinAddr: 0x1D840, symSize: 0xC }
  - { offset: 0x102F9E, size: 0x8, addend: 0x0, symName: __ZN6sentry14SentryFeedback11set_messageERKN5godot6StringE, symObjAddr: 0x1B3C, symBinAddr: 0x1D84C, symSize: 0x8 }
  - { offset: 0x102FD3, size: 0x8, addend: 0x0, symName: __ZNK6sentry14SentryFeedback11get_messageEv, symObjAddr: 0x1B44, symBinAddr: 0x1D854, symSize: 0xC }
  - { offset: 0x102FFA, size: 0x8, addend: 0x0, symName: __ZN6sentry14SentryFeedback23set_associated_event_idERKN5godot6StringE, symObjAddr: 0x1B50, symBinAddr: 0x1D860, symSize: 0x8 }
  - { offset: 0x10302F, size: 0x8, addend: 0x0, symName: __ZNK6sentry14SentryFeedback23get_associated_event_idEv, symObjAddr: 0x1B58, symBinAddr: 0x1D868, symSize: 0xC }
  - { offset: 0x103056, size: 0x8, addend: 0x0, symName: _OUTLINED_FUNCTION_0, symObjAddr: 0x1F7C, symBinAddr: 0x1D874, symSize: 0x10 }
  - { offset: 0x10306E, size: 0x8, addend: 0x0, symName: _OUTLINED_FUNCTION_1, symObjAddr: 0x1F8C, symBinAddr: 0x1D884, symSize: 0xC }
  - { offset: 0x103086, size: 0x8, addend: 0x0, symName: _OUTLINED_FUNCTION_2, symObjAddr: 0x1F98, symBinAddr: 0x1D890, symSize: 0x8 }
  - { offset: 0x10309E, size: 0x8, addend: 0x0, symName: _OUTLINED_FUNCTION_3, symObjAddr: 0x1FA0, symBinAddr: 0x1D898, symSize: 0x8 }
  - { offset: 0x1030B6, size: 0x8, addend: 0x0, symName: _OUTLINED_FUNCTION_4, symObjAddr: 0x1FA8, symBinAddr: 0x1D8A0, symSize: 0x8 }
  - { offset: 0x1030CE, size: 0x8, addend: 0x0, symName: _OUTLINED_FUNCTION_5, symObjAddr: 0x1FB0, symBinAddr: 0x1D8A8, symSize: 0xC }
  - { offset: 0x1030E6, size: 0x8, addend: 0x0, symName: _OUTLINED_FUNCTION_6, symObjAddr: 0x1FBC, symBinAddr: 0x1D8B4, symSize: 0x8 }
  - { offset: 0x1071F3, size: 0x8, addend: 0x0, symName: __ZN5godot18create_method_bindIN6sentry9SentryLogEJNS1_8LogLevelEEEEPNS_10MethodBindEMT_FvDpT0_E, symObjAddr: 0x13B8, symBinAddr: 0x1E710, symSize: 0x114 }
  - { offset: 0x10733B, size: 0x8, addend: 0x0, symName: __ZN5godot18create_method_bindIN6sentry9SentryLogENS1_8LogLevelEJEEEPNS_10MethodBindEMT_KFT0_DpT1_E, symObjAddr: 0x1AC8, symBinAddr: 0x1ED10, symSize: 0x12C }
  - { offset: 0x107471, size: 0x8, addend: 0x0, symName: __ZN5godot18create_method_bindIN6sentry9SentryLogEJRKNS_6StringEEEEPNS_10MethodBindEMT_FvDpT0_E, symObjAddr: 0x3390, symBinAddr: 0x1FD28, symSize: 0x114 }
  - { offset: 0x1075A4, size: 0x8, addend: 0x0, symName: __ZN5godot18create_method_bindIN6sentry9SentryLogENS_6StringEJEEEPNS_10MethodBindEMT_KFT0_DpT1_E, symObjAddr: 0x1D1C, symBinAddr: 0x1EF64, symSize: 0x12C }
  - { offset: 0x1076DA, size: 0x8, addend: 0x0, symName: __ZN5godot18create_method_bindIN6sentry9SentryLogENS_7VariantEJRKNS_6StringEEEEPNS_10MethodBindEMT_KFT0_DpT1_E, symObjAddr: 0x20B4, symBinAddr: 0x1F090, symSize: 0x12C }
  - { offset: 0x107816, size: 0x8, addend: 0x0, symName: __ZN5godot18create_method_bindIN6sentry9SentryLogEJRKNS_6StringERKNS_7VariantEEEEPNS_10MethodBindEMT_FvDpT0_E, symObjAddr: 0x2730, symBinAddr: 0x1F598, symSize: 0x118 }
  - { offset: 0x10794E, size: 0x8, addend: 0x0, symName: __ZN5godot18create_method_bindIN6sentry9SentryLogEJRKNS_10DictionaryEEEEPNS_10MethodBindEMT_FvDpT0_E, symObjAddr: 0x2DAC, symBinAddr: 0x1FC14, symSize: 0x114 }
  - { offset: 0x107BF4, size: 0x8, addend: 0x0, symName: __ZN5godot34call_get_argument_type_info_helperIN6sentry8LogLevelEEEviRiRNS_12PropertyInfoE, symObjAddr: 0x1694, symBinAddr: 0x1E9EC, symSize: 0xD4 }
  - { offset: 0x107CAC, size: 0x8, addend: 0x0, symName: __ZN5godot25call_with_variant_args_dvINS_20_gde_UnexistingClassEJN6sentry8LogLevelEEEEvPT_MS4_FvDpT0_EPKPKviR20GDExtensionCallErrorRKNSt3__16vectorINS_7VariantENSG_9allocatorISI_EEEE, symObjAddr: 0x19A0, symBinAddr: 0x1EBE8, symSize: 0x128 }
  - { offset: 0x108699, size: 0x8, addend: 0x0, symName: __ZN5godot30call_with_variant_args_retc_dvINS_20_gde_UnexistingClassENS_7VariantEJRKNS_6StringEEEEvPT_MS6_KFT0_DpT1_EPKPKviRS2_R20GDExtensionCallErrorRKNSt3__16vectorIS2_NSK_9allocatorIS2_EEEE, symObjAddr: 0x25E0, symBinAddr: 0x1F448, symSize: 0x150 }
  - { offset: 0x108B3B, size: 0x8, addend: 0x0, symName: __ZN5godot34call_get_argument_type_info_helperIRKNS_7VariantEEEviRiRNS_12PropertyInfoE, symObjAddr: 0x2A94, symBinAddr: 0x1F8FC, symSize: 0x178 }
  - { offset: 0x108C60, size: 0x8, addend: 0x0, symName: __ZN5godot25call_with_variant_args_dvINS_20_gde_UnexistingClassEJRKNS_6StringERKNS_7VariantEEEEvPT_MS8_FvDpT0_EPKPKviR20GDExtensionCallErrorRKNSt3__16vectorIS5_NSK_9allocatorIS5_EEEE, symObjAddr: 0x2C0C, symBinAddr: 0x1FA74, symSize: 0x1A0 }
  - { offset: 0x11564A, size: 0x8, addend: 0x0, symName: __ZN6sentry28make_log_level_enum_propertyERKN5godot6StringE, symObjAddr: 0xC68, symBinAddr: 0x1E608, symSize: 0x108 }
  - { offset: 0x1163CB, size: 0x8, addend: 0x0, symName: ___cxx_global_var_init, symObjAddr: 0x3F8C, symBinAddr: 0x1FE84, symSize: 0x4C }
  - { offset: 0x116450, size: 0x8, addend: 0x0, symName: ___cxx_global_var_init.1, symObjAddr: 0x3FD8, symBinAddr: 0x1FED0, symSize: 0x4C }
  - { offset: 0x1164D5, size: 0x8, addend: 0x0, symName: ___cxx_global_var_init.2, symObjAddr: 0x4024, symBinAddr: 0x1FF1C, symSize: 0x4C }
  - { offset: 0x116E95, size: 0x8, addend: 0x0, symName: __ZN6sentry9SentryLog13_bind_methodsEv, symObjAddr: 0x0, symBinAddr: 0x1D9A0, symSize: 0xC68 }
  - { offset: 0x118C67, size: 0x8, addend: 0x0, symName: __ZN5godot11GetTypeInfoIN6sentry8LogLevelEvE14get_class_infoEv, symObjAddr: 0x1768, symBinAddr: 0x1EAC0, symSize: 0x128 }
  - { offset: 0x118D0F, size: 0x8, addend: 0x0, symName: __ZN6sentry9SentryLog13_bind_methodsEv.cold.1, symObjAddr: 0x3800, symBinAddr: 0xF0414, symSize: 0x5C }
  - { offset: 0x118D3D, size: 0x8, addend: 0x0, symName: __ZN6sentry9SentryLog13_bind_methodsEv.cold.2, symObjAddr: 0x385C, symBinAddr: 0xF0470, symSize: 0x58 }
  - { offset: 0x118D6B, size: 0x8, addend: 0x0, symName: __ZN6sentry9SentryLog13_bind_methodsEv.cold.3, symObjAddr: 0x38B4, symBinAddr: 0xF04C8, symSize: 0x58 }
  - { offset: 0x118D99, size: 0x8, addend: 0x0, symName: __ZN6sentry9SentryLog13_bind_methodsEv.cold.4, symObjAddr: 0x390C, symBinAddr: 0xF0520, symSize: 0x58 }
  - { offset: 0x118DC7, size: 0x8, addend: 0x0, symName: __ZN6sentry9SentryLog13_bind_methodsEv.cold.5, symObjAddr: 0x3964, symBinAddr: 0xF0578, symSize: 0x58 }
  - { offset: 0x118DF5, size: 0x8, addend: 0x0, symName: __ZN6sentry9SentryLog13_bind_methodsEv.cold.6, symObjAddr: 0x39BC, symBinAddr: 0xF05D0, symSize: 0x58 }
  - { offset: 0x118E23, size: 0x8, addend: 0x0, symName: __ZN6sentry9SentryLog13_bind_methodsEv.cold.7, symObjAddr: 0x3A14, symBinAddr: 0xF0628, symSize: 0x58 }
  - { offset: 0x118E51, size: 0x8, addend: 0x0, symName: __ZN6sentry9SentryLog13_bind_methodsEv.cold.8, symObjAddr: 0x3A6C, symBinAddr: 0xF0680, symSize: 0x58 }
  - { offset: 0x118E86, size: 0x8, addend: 0x0, symName: __ZN5godot8internal23EngineClassRegistrationINS_6ObjectEE8callbackEv.cold.1, symObjAddr: 0x3AC4, symBinAddr: 0xF06D8, symSize: 0x5C }
  - { offset: 0x118F21, size: 0x8, addend: 0x0, symName: __ZN5godot6ObjectD1Ev.cold.1, symObjAddr: 0x3B20, symBinAddr: 0xF0734, symSize: 0x1C }
  - { offset: 0x118F3C, size: 0x8, addend: 0x0, symName: __ZN5godot6ObjectD1Ev.cold.1, symObjAddr: 0x3B20, symBinAddr: 0xF0734, symSize: 0x1C }
  - { offset: 0x118F50, size: 0x8, addend: 0x0, symName: __ZN5godot6ObjectD1Ev.cold.1, symObjAddr: 0x3B20, symBinAddr: 0xF0734, symSize: 0x1C }
  - { offset: 0x118F64, size: 0x8, addend: 0x0, symName: __ZN5godot6ObjectD1Ev.cold.1, symObjAddr: 0x3B20, symBinAddr: 0xF0734, symSize: 0x1C }
  - { offset: 0x118F79, size: 0x8, addend: 0x0, symName: __ZN5godot6ObjectD1Ev.cold.1, symObjAddr: 0x3B20, symBinAddr: 0xF0734, symSize: 0x1C }
  - { offset: 0x118FA9, size: 0x8, addend: 0x0, symName: __ZN5godot6ObjectD0Ev.cold.1, symObjAddr: 0x3B3C, symBinAddr: 0xF0750, symSize: 0x1C }
  - { offset: 0x118FC4, size: 0x8, addend: 0x0, symName: __ZN5godot6ObjectD0Ev.cold.1, symObjAddr: 0x3B3C, symBinAddr: 0xF0750, symSize: 0x1C }
  - { offset: 0x118FD8, size: 0x8, addend: 0x0, symName: __ZN5godot6ObjectD0Ev.cold.1, symObjAddr: 0x3B3C, symBinAddr: 0xF0750, symSize: 0x1C }
  - { offset: 0x118FEC, size: 0x8, addend: 0x0, symName: __ZN5godot6ObjectD0Ev.cold.1, symObjAddr: 0x3B3C, symBinAddr: 0xF0750, symSize: 0x1C }
  - { offset: 0x119000, size: 0x8, addend: 0x0, symName: __ZN5godot6ObjectD0Ev.cold.1, symObjAddr: 0x3B3C, symBinAddr: 0xF0750, symSize: 0x1C }
  - { offset: 0x119015, size: 0x8, addend: 0x0, symName: __ZN5godot6ObjectD0Ev.cold.1, symObjAddr: 0x3B3C, symBinAddr: 0xF0750, symSize: 0x1C }
  - { offset: 0x11902C, size: 0x8, addend: 0x0, symName: __ZN5godot7WrappedD1Ev.cold.1, symObjAddr: 0x3B58, symBinAddr: 0xF076C, symSize: 0x1C }
  - { offset: 0x119047, size: 0x8, addend: 0x0, symName: __ZN5godot7WrappedD1Ev.cold.1, symObjAddr: 0x3B58, symBinAddr: 0xF076C, symSize: 0x1C }
  - { offset: 0x11905B, size: 0x8, addend: 0x0, symName: __ZN5godot7WrappedD1Ev.cold.1, symObjAddr: 0x3B58, symBinAddr: 0xF076C, symSize: 0x1C }
  - { offset: 0x119070, size: 0x8, addend: 0x0, symName: __ZN5godot7WrappedD1Ev.cold.1, symObjAddr: 0x3B58, symBinAddr: 0xF076C, symSize: 0x1C }
  - { offset: 0x11909F, size: 0x8, addend: 0x0, symName: __ZN5godot7WrappedD0Ev.cold.1, symObjAddr: 0x3B74, symBinAddr: 0xF0788, symSize: 0x1C }
  - { offset: 0x1190BA, size: 0x8, addend: 0x0, symName: __ZN5godot7WrappedD0Ev.cold.1, symObjAddr: 0x3B74, symBinAddr: 0xF0788, symSize: 0x1C }
  - { offset: 0x1190CE, size: 0x8, addend: 0x0, symName: __ZN5godot7WrappedD0Ev.cold.1, symObjAddr: 0x3B74, symBinAddr: 0xF0788, symSize: 0x1C }
  - { offset: 0x1190E2, size: 0x8, addend: 0x0, symName: __ZN5godot7WrappedD0Ev.cold.1, symObjAddr: 0x3B74, symBinAddr: 0xF0788, symSize: 0x1C }
  - { offset: 0x1190F7, size: 0x8, addend: 0x0, symName: __ZN5godot7WrappedD0Ev.cold.1, symObjAddr: 0x3B74, symBinAddr: 0xF0788, symSize: 0x1C }
  - { offset: 0x11910D, size: 0x8, addend: 0x0, symName: __ZN5godot4ListINS_12PropertyInfoENS_16DefaultAllocatorEE5_Data5eraseEPNS3_7ElementE.cold.2, symObjAddr: 0x3BB0, symBinAddr: 0xF07C4, symSize: 0x20 }
  - { offset: 0x119125, size: 0x8, addend: 0x0, symName: __ZN5godot4ListINS_12PropertyInfoENS_16DefaultAllocatorEE5_Data5eraseEPNS3_7ElementE.cold.1, symObjAddr: 0x3B90, symBinAddr: 0xF07A4, symSize: 0x20 }
  - { offset: 0x119144, size: 0x8, addend: 0x0, symName: __ZN5godot8internal23EngineClassRegistrationINS_16ClassDBSingletonEE8callbackEv.cold.1, symObjAddr: 0x3BD0, symBinAddr: 0xF07E4, symSize: 0x5C }
  - { offset: 0x119179, size: 0x8, addend: 0x0, symName: __ZN5godot8internal23EngineClassRegistrationINS_10RefCountedEE8callbackEv.cold.1, symObjAddr: 0x3C2C, symBinAddr: 0xF0840, symSize: 0x5C }
  - { offset: 0x1191C3, size: 0x8, addend: 0x0, symName: __ZN5godot10RefCountedD1Ev.cold.1, symObjAddr: 0x3C88, symBinAddr: 0xF089C, symSize: 0x1C }
  - { offset: 0x1191DE, size: 0x8, addend: 0x0, symName: __ZN5godot10RefCountedD1Ev.cold.1, symObjAddr: 0x3C88, symBinAddr: 0xF089C, symSize: 0x1C }
  - { offset: 0x1191F2, size: 0x8, addend: 0x0, symName: __ZN5godot10RefCountedD1Ev.cold.1, symObjAddr: 0x3C88, symBinAddr: 0xF089C, symSize: 0x1C }
  - { offset: 0x119206, size: 0x8, addend: 0x0, symName: __ZN5godot10RefCountedD1Ev.cold.1, symObjAddr: 0x3C88, symBinAddr: 0xF089C, symSize: 0x1C }
  - { offset: 0x11921A, size: 0x8, addend: 0x0, symName: __ZN5godot10RefCountedD1Ev.cold.1, symObjAddr: 0x3C88, symBinAddr: 0xF089C, symSize: 0x1C }
  - { offset: 0x11922F, size: 0x8, addend: 0x0, symName: __ZN5godot10RefCountedD1Ev.cold.1, symObjAddr: 0x3C88, symBinAddr: 0xF089C, symSize: 0x1C }
  - { offset: 0x119262, size: 0x8, addend: 0x0, symName: __ZN5godot10RefCountedD0Ev.cold.1, symObjAddr: 0x3CA4, symBinAddr: 0xF08B8, symSize: 0x1C }
  - { offset: 0x11927D, size: 0x8, addend: 0x0, symName: __ZN5godot10RefCountedD0Ev.cold.1, symObjAddr: 0x3CA4, symBinAddr: 0xF08B8, symSize: 0x1C }
  - { offset: 0x119291, size: 0x8, addend: 0x0, symName: __ZN5godot10RefCountedD0Ev.cold.1, symObjAddr: 0x3CA4, symBinAddr: 0xF08B8, symSize: 0x1C }
  - { offset: 0x1192A5, size: 0x8, addend: 0x0, symName: __ZN5godot10RefCountedD0Ev.cold.1, symObjAddr: 0x3CA4, symBinAddr: 0xF08B8, symSize: 0x1C }
  - { offset: 0x1192B9, size: 0x8, addend: 0x0, symName: __ZN5godot10RefCountedD0Ev.cold.1, symObjAddr: 0x3CA4, symBinAddr: 0xF08B8, symSize: 0x1C }
  - { offset: 0x1192CD, size: 0x8, addend: 0x0, symName: __ZN5godot10RefCountedD0Ev.cold.1, symObjAddr: 0x3CA4, symBinAddr: 0xF08B8, symSize: 0x1C }
  - { offset: 0x1192E2, size: 0x8, addend: 0x0, symName: __ZN5godot10RefCountedD0Ev.cold.1, symObjAddr: 0x3CA4, symBinAddr: 0xF08B8, symSize: 0x1C }
  - { offset: 0x1193F3, size: 0x8, addend: 0x0, symName: __ZN5godot18create_method_bindIN6sentry9SentryLogEJNS1_8LogLevelEEEEPNS_10MethodBindEMT_FvDpT0_E.cold.1, symObjAddr: 0x3CC0, symBinAddr: 0xF08D4, symSize: 0x5C }
  - { offset: 0x119422, size: 0x8, addend: 0x0, symName: __ZNK5godot11MethodBindTIJN6sentry8LogLevelEEE17gen_argument_typeEi, symObjAddr: 0x14CC, symBinAddr: 0x1E824, symSize: 0x10 }
  - { offset: 0x1194BA, size: 0x8, addend: 0x0, symName: __ZNK5godot11MethodBindTIJN6sentry8LogLevelEEE22gen_argument_type_infoEi, symObjAddr: 0x14DC, symBinAddr: 0x1E834, symSize: 0x138 }
  - { offset: 0x1195F3, size: 0x8, addend: 0x0, symName: __ZNK5godot11MethodBindTIJN6sentry8LogLevelEEE21get_argument_metadataEi, symObjAddr: 0x1614, symBinAddr: 0x1E96C, symSize: 0x8 }
  - { offset: 0x119644, size: 0x8, addend: 0x0, symName: __ZNK5godot11MethodBindTIJN6sentry8LogLevelEEE4callEPvPKPKvxR20GDExtensionCallError, symObjAddr: 0x161C, symBinAddr: 0x1E974, symSize: 0x40 }
  - { offset: 0x119704, size: 0x8, addend: 0x0, symName: __ZNK5godot11MethodBindTIJN6sentry8LogLevelEEE7ptrcallEPvPKPKvS4_, symObjAddr: 0x165C, symBinAddr: 0x1E9B4, symSize: 0x20 }
  - { offset: 0x1197EF, size: 0x8, addend: 0x0, symName: __ZN5godot11MethodBindTIJN6sentry8LogLevelEEED1Ev, symObjAddr: 0x167C, symBinAddr: 0x1E9D4, symSize: 0x4 }
  - { offset: 0x119812, size: 0x8, addend: 0x0, symName: __ZN5godot11MethodBindTIJN6sentry8LogLevelEEED1Ev, symObjAddr: 0x167C, symBinAddr: 0x1E9D4, symSize: 0x4 }
  - { offset: 0x11984A, size: 0x8, addend: 0x0, symName: __ZN5godot11MethodBindTIJN6sentry8LogLevelEEED0Ev, symObjAddr: 0x1680, symBinAddr: 0x1E9D8, symSize: 0x14 }
  - { offset: 0x119965, size: 0x8, addend: 0x0, symName: __ZN5godot18create_method_bindIN6sentry9SentryLogENS1_8LogLevelEJEEEPNS_10MethodBindEMT_KFT0_DpT1_E.cold.1, symObjAddr: 0x3D1C, symBinAddr: 0xF0930, symSize: 0x5C }
  - { offset: 0x119994, size: 0x8, addend: 0x0, symName: __ZNK5godot13MethodBindTRCIN6sentry8LogLevelEJEE17gen_argument_typeEi, symObjAddr: 0x1BF4, symBinAddr: 0x1EE3C, symSize: 0x8 }
  - { offset: 0x1199CA, size: 0x8, addend: 0x0, symName: __ZNK5godot13MethodBindTRCIN6sentry8LogLevelEJEE22gen_argument_type_infoEi, symObjAddr: 0x1BFC, symBinAddr: 0x1EE44, symSize: 0x4 }
  - { offset: 0x119A01, size: 0x8, addend: 0x0, symName: __ZNK5godot13MethodBindTRCIN6sentry8LogLevelEJEE22gen_argument_type_infoEi, symObjAddr: 0x1BFC, symBinAddr: 0x1EE44, symSize: 0x4 }
  - { offset: 0x119A14, size: 0x8, addend: 0x0, symName: __ZNK5godot13MethodBindTRCIN6sentry8LogLevelEJEE21get_argument_metadataEi, symObjAddr: 0x1C00, symBinAddr: 0x1EE48, symSize: 0x8 }
  - { offset: 0x119AA8, size: 0x8, addend: 0x0, symName: __ZNK5godot13MethodBindTRCIN6sentry8LogLevelEJEE4callEPvPKPKvxR20GDExtensionCallError, symObjAddr: 0x1C08, symBinAddr: 0x1EE50, symSize: 0xC0 }
  - { offset: 0x119BE8, size: 0x8, addend: 0x0, symName: __ZNK5godot13MethodBindTRCIN6sentry8LogLevelEJEE7ptrcallEPvPKPKvS4_, symObjAddr: 0x1CC8, symBinAddr: 0x1EF10, symSize: 0x3C }
  - { offset: 0x119CD5, size: 0x8, addend: 0x0, symName: __ZN5godot13MethodBindTRCIN6sentry8LogLevelEJEED1Ev, symObjAddr: 0x1D04, symBinAddr: 0x1EF4C, symSize: 0x4 }
  - { offset: 0x119CF8, size: 0x8, addend: 0x0, symName: __ZN5godot13MethodBindTRCIN6sentry8LogLevelEJEED1Ev, symObjAddr: 0x1D04, symBinAddr: 0x1EF4C, symSize: 0x4 }
  - { offset: 0x119D30, size: 0x8, addend: 0x0, symName: __ZN5godot13MethodBindTRCIN6sentry8LogLevelEJEED0Ev, symObjAddr: 0x1D08, symBinAddr: 0x1EF50, symSize: 0x14 }
  - { offset: 0x119DFA, size: 0x8, addend: 0x0, symName: __ZN5godot18create_method_bindIN6sentry9SentryLogENS_6StringEJEEEPNS_10MethodBindEMT_KFT0_DpT1_E.cold.1, symObjAddr: 0x3D78, symBinAddr: 0xF098C, symSize: 0x5C }
  - { offset: 0x119E8B, size: 0x8, addend: 0x0, symName: __ZN5godot18create_method_bindIN6sentry9SentryLogENS_7VariantEJRKNS_6StringEEEEPNS_10MethodBindEMT_KFT0_DpT1_E.cold.1, symObjAddr: 0x3DD4, symBinAddr: 0xF09E8, symSize: 0x5C }
  - { offset: 0x119EBA, size: 0x8, addend: 0x0, symName: __ZNK5godot13MethodBindTRCINS_7VariantEJRKNS_6StringEEE17gen_argument_typeEi, symObjAddr: 0x21E0, symBinAddr: 0x1F1BC, symSize: 0x10 }
  - { offset: 0x119EF7, size: 0x8, addend: 0x0, symName: __ZNK5godot13MethodBindTRCINS_7VariantEJRKNS_6StringEEE22gen_argument_type_infoEi, symObjAddr: 0x21F0, symBinAddr: 0x1F1CC, symSize: 0x154 }
  - { offset: 0x11A06B, size: 0x8, addend: 0x0, symName: __ZNK5godot13MethodBindTRCINS_7VariantEJRKNS_6StringEEE21get_argument_metadataEi, symObjAddr: 0x2344, symBinAddr: 0x1F320, symSize: 0x8 }
  - { offset: 0x11A0A1, size: 0x8, addend: 0x0, symName: __ZNK5godot13MethodBindTRCINS_7VariantEJRKNS_6StringEEE4callEPvPKPKvxR20GDExtensionCallError, symObjAddr: 0x234C, symBinAddr: 0x1F328, symSize: 0x64 }
  - { offset: 0x11A17A, size: 0x8, addend: 0x0, symName: __ZNK5godot13MethodBindTRCINS_7VariantEJRKNS_6StringEEE7ptrcallEPvPKPKvS6_, symObjAddr: 0x23B0, symBinAddr: 0x1F38C, symSize: 0xA4 }
  - { offset: 0x11A297, size: 0x8, addend: 0x0, symName: __ZN5godot13MethodBindTRCINS_7VariantEJRKNS_6StringEEED1Ev, symObjAddr: 0x2454, symBinAddr: 0x1F430, symSize: 0x4 }
  - { offset: 0x11A2BA, size: 0x8, addend: 0x0, symName: __ZN5godot13MethodBindTRCINS_7VariantEJRKNS_6StringEEED1Ev, symObjAddr: 0x2454, symBinAddr: 0x1F430, symSize: 0x4 }
  - { offset: 0x11A2F2, size: 0x8, addend: 0x0, symName: __ZN5godot13MethodBindTRCINS_7VariantEJRKNS_6StringEEED0Ev, symObjAddr: 0x2458, symBinAddr: 0x1F434, symSize: 0x14 }
  - { offset: 0x11A3D6, size: 0x8, addend: 0x0, symName: __ZN5godot18create_method_bindIN6sentry9SentryLogEJRKNS_6StringERKNS_7VariantEEEEPNS_10MethodBindEMT_FvDpT0_E.cold.1, symObjAddr: 0x3E30, symBinAddr: 0xF0A44, symSize: 0x5C }
  - { offset: 0x11A405, size: 0x8, addend: 0x0, symName: __ZNK5godot11MethodBindTIJRKNS_6StringERKNS_7VariantEEE17gen_argument_typeEi, symObjAddr: 0x2848, symBinAddr: 0x1F6B0, symSize: 0x10 }
  - { offset: 0x11A447, size: 0x8, addend: 0x0, symName: __ZNK5godot11MethodBindTIJRKNS_6StringERKNS_7VariantEEE22gen_argument_type_infoEi, symObjAddr: 0x2858, symBinAddr: 0x1F6C0, symSize: 0x138 }
  - { offset: 0x11A5A6, size: 0x8, addend: 0x0, symName: __ZNK5godot11MethodBindTIJRKNS_6StringERKNS_7VariantEEE21get_argument_metadataEi, symObjAddr: 0x2990, symBinAddr: 0x1F7F8, symSize: 0x8 }
  - { offset: 0x11A5DC, size: 0x8, addend: 0x0, symName: __ZNK5godot11MethodBindTIJRKNS_6StringERKNS_7VariantEEE4callEPvPKPKvxR20GDExtensionCallError, symObjAddr: 0x2998, symBinAddr: 0x1F800, symSize: 0x40 }
  - { offset: 0x11A69C, size: 0x8, addend: 0x0, symName: __ZNK5godot11MethodBindTIJRKNS_6StringERKNS_7VariantEEE7ptrcallEPvPKPKvS8_, symObjAddr: 0x29D8, symBinAddr: 0x1F840, symSize: 0xA4 }
  - { offset: 0x11A7B7, size: 0x8, addend: 0x0, symName: __ZN5godot11MethodBindTIJRKNS_6StringERKNS_7VariantEEED1Ev, symObjAddr: 0x2A7C, symBinAddr: 0x1F8E4, symSize: 0x4 }
  - { offset: 0x11A7DA, size: 0x8, addend: 0x0, symName: __ZN5godot11MethodBindTIJRKNS_6StringERKNS_7VariantEEED1Ev, symObjAddr: 0x2A7C, symBinAddr: 0x1F8E4, symSize: 0x4 }
  - { offset: 0x11A812, size: 0x8, addend: 0x0, symName: __ZN5godot11MethodBindTIJRKNS_6StringERKNS_7VariantEEED0Ev, symObjAddr: 0x2A80, symBinAddr: 0x1F8E8, symSize: 0x14 }
  - { offset: 0x11A8F6, size: 0x8, addend: 0x0, symName: __ZN5godot18create_method_bindIN6sentry9SentryLogEJRKNS_10DictionaryEEEEPNS_10MethodBindEMT_FvDpT0_E.cold.1, symObjAddr: 0x3E8C, symBinAddr: 0xF0AA0, symSize: 0x5C }
  - { offset: 0x11A987, size: 0x8, addend: 0x0, symName: __ZN5godot18create_method_bindIN6sentry9SentryLogEJRKNS_6StringEEEEPNS_10MethodBindEMT_FvDpT0_E.cold.1, symObjAddr: 0x3EE8, symBinAddr: 0xF0AFC, symSize: 0x5C }
  - { offset: 0x11A9B6, size: 0x8, addend: 0x0, symName: _OUTLINED_FUNCTION_0, symObjAddr: 0x3F44, symBinAddr: 0x1FE3C, symSize: 0x10 }
  - { offset: 0x11A9CE, size: 0x8, addend: 0x0, symName: _OUTLINED_FUNCTION_1, symObjAddr: 0x3F54, symBinAddr: 0x1FE4C, symSize: 0xC }
  - { offset: 0x11A9E6, size: 0x8, addend: 0x0, symName: _OUTLINED_FUNCTION_2, symObjAddr: 0x3F60, symBinAddr: 0x1FE58, symSize: 0x8 }
  - { offset: 0x11A9FE, size: 0x8, addend: 0x0, symName: _OUTLINED_FUNCTION_3, symObjAddr: 0x3F68, symBinAddr: 0x1FE60, symSize: 0x8 }
  - { offset: 0x11AA16, size: 0x8, addend: 0x0, symName: _OUTLINED_FUNCTION_4, symObjAddr: 0x3F70, symBinAddr: 0x1FE68, symSize: 0x8 }
  - { offset: 0x11AA2E, size: 0x8, addend: 0x0, symName: _OUTLINED_FUNCTION_5, symObjAddr: 0x3F78, symBinAddr: 0x1FE70, symSize: 0x8 }
  - { offset: 0x11AA46, size: 0x8, addend: 0x0, symName: _OUTLINED_FUNCTION_6, symObjAddr: 0x3F80, symBinAddr: 0x1FE78, symSize: 0xC }
  - { offset: 0x11FAD9, size: 0x8, addend: 0x0, symName: __ZN5godot8D_METHODIJPKcS2_EEENS_16MethodDefinitionENS_10StringNameES4_DpT_, symObjAddr: 0xBF0, symBinAddr: 0x20B58, symSize: 0x128 }
  - { offset: 0x12003C, size: 0x8, addend: 0x0, symName: __ZN5godot18create_method_bindIN6sentry12SentryLoggerEJNS1_8LogLevelERKNS_6StringERKNS_5ArrayERKNS_10DictionaryEEEEPNS_10MethodBindEMT_FvDpT0_E, symObjAddr: 0x1B9C, symBinAddr: 0x20E98, symSize: 0x118 }
  - { offset: 0x12017E, size: 0x8, addend: 0x0, symName: __ZN5godot18create_method_bindIN6sentry12SentryLoggerEJRKNS_6StringERKNS_5ArrayERKNS_10DictionaryEEEEPNS_10MethodBindEMT_FvDpT0_E, symObjAddr: 0x29D4, symBinAddr: 0x216DC, symSize: 0x118 }
  - { offset: 0x1207C3, size: 0x8, addend: 0x0, symName: __ZN5godot34call_get_argument_type_info_helperIRKNS_5ArrayEEEviRiRNS_12PropertyInfoE, symObjAddr: 0x2100, symBinAddr: 0x211B4, symSize: 0x174 }
  - { offset: 0x1209BE, size: 0x8, addend: 0x0, symName: __ZN5godot25call_with_variant_args_dvINS_20_gde_UnexistingClassEJN6sentry8LogLevelERKNS_6StringERKNS_5ArrayERKNS_10DictionaryEEEEvPT_MSD_FvDpT0_EPKPKviR20GDExtensionCallErrorRKNSt3__16vectorINS_7VariantENSP_9allocatorISR_EEEE, symObjAddr: 0x2620, symBinAddr: 0x21328, symSize: 0x220 }
  - { offset: 0x120B6F, size: 0x8, addend: 0x0, symName: __ZN5godot25call_with_ptr_args_helperINS_20_gde_UnexistingClassEJN6sentry8LogLevelERKNS_6StringERKNS_5ArrayERKNS_10DictionaryEEJLm0ELm1ELm2ELm3EEEEvPT_MSD_FvDpT0_EPKPKvNS_13IndexSequenceIJXspT1_EEEE, symObjAddr: 0x2910, symBinAddr: 0x21618, symSize: 0xC4 }
  - { offset: 0x120D20, size: 0x8, addend: 0x0, symName: __ZN5godot29call_with_variant_args_helperINS_20_gde_UnexistingClassEJN6sentry8LogLevelERKNS_6StringERKNS_5ArrayERKNS_10DictionaryEEJLm0ELm1ELm2ELm3EEEEvPT_MSD_FvDpT0_EPPKNS_7VariantER20GDExtensionCallErrorNS_13IndexSequenceIJXspT1_EEEE, symObjAddr: 0x2840, symBinAddr: 0x21548, symSize: 0xD0 }
  - { offset: 0x1210A4, size: 0x8, addend: 0x0, symName: __ZN5godot25call_with_variant_args_dvINS_20_gde_UnexistingClassEJRKNS_6StringERKNS_5ArrayERKNS_10DictionaryEEEEvPT_MSB_FvDpT0_EPKPKviR20GDExtensionCallErrorRKNSt3__16vectorINS_7VariantENSN_9allocatorISP_EEEE, symObjAddr: 0x2CD4, symBinAddr: 0x219DC, symSize: 0x1CC }
  - { offset: 0x121259, size: 0x8, addend: 0x0, symName: __ZN5godot25call_with_ptr_args_helperINS_20_gde_UnexistingClassEJRKNS_6StringERKNS_5ArrayERKNS_10DictionaryEEJLm0ELm1ELm2EEEEvPT_MSB_FvDpT0_EPKPKvNS_13IndexSequenceIJXspT1_EEEE, symObjAddr: 0x2F60, symBinAddr: 0x21C68, symSize: 0xBC }
  - { offset: 0x121355, size: 0x8, addend: 0x0, symName: __ZN5godot29call_with_variant_args_helperINS_20_gde_UnexistingClassEJRKNS_6StringERKNS_5ArrayERKNS_10DictionaryEEJLm0ELm1ELm2EEEEvPT_MSB_FvDpT0_EPPKNS_7VariantER20GDExtensionCallErrorNS_13IndexSequenceIJXspT1_EEEE, symObjAddr: 0x2EA0, symBinAddr: 0x21BA8, symSize: 0xC0 }
  - { offset: 0x12E683, size: 0x8, addend: 0x0, symName: ___cxx_global_var_init, symObjAddr: 0x3568, symBinAddr: 0x21D64, symSize: 0x4C }
  - { offset: 0x12E708, size: 0x8, addend: 0x0, symName: ___cxx_global_var_init.1, symObjAddr: 0x35B4, symBinAddr: 0x21DB0, symSize: 0x4C }
  - { offset: 0x12E78D, size: 0x8, addend: 0x0, symName: ___cxx_global_var_init.2, symObjAddr: 0x3600, symBinAddr: 0x21DFC, symSize: 0x4C }
  - { offset: 0x12E812, size: 0x8, addend: 0x0, symName: ___cxx_global_var_init.3, symObjAddr: 0x364C, symBinAddr: 0x21E48, symSize: 0x4C }
  - { offset: 0x12E897, size: 0x8, addend: 0x0, symName: ___cxx_global_var_init.4, symObjAddr: 0x3698, symBinAddr: 0x21E94, symSize: 0x4C }
  - { offset: 0x12E91C, size: 0x8, addend: 0x0, symName: ___cxx_global_var_init.5, symObjAddr: 0x36E4, symBinAddr: 0x21EE0, symSize: 0x4C }
  - { offset: 0x12E9A1, size: 0x8, addend: 0x0, symName: ___cxx_global_var_init.6, symObjAddr: 0x3730, symBinAddr: 0x21F2C, symSize: 0x4C }
  - { offset: 0x12EB36, size: 0x8, addend: 0x0, symName: __ZN6sentry12SentryLogger3logENS_8LogLevelERKN5godot6StringERKNS2_5ArrayERKNS2_10DictionaryE, symObjAddr: 0x0, symBinAddr: 0x1FF68, symSize: 0x230 }
  - { offset: 0x12EDEA, size: 0x8, addend: 0x0, symName: __ZN6sentry12SentryLogger5traceERKN5godot6StringERKNS1_5ArrayERKNS1_10DictionaryE, symObjAddr: 0x230, symBinAddr: 0x20198, symSize: 0x14 }
  - { offset: 0x12EE65, size: 0x8, addend: 0x0, symName: __ZN6sentry12SentryLogger5debugERKN5godot6StringERKNS1_5ArrayERKNS1_10DictionaryE, symObjAddr: 0x244, symBinAddr: 0x201AC, symSize: 0x14 }
  - { offset: 0x12EEE0, size: 0x8, addend: 0x0, symName: __ZN6sentry12SentryLogger4infoERKN5godot6StringERKNS1_5ArrayERKNS1_10DictionaryE, symObjAddr: 0x258, symBinAddr: 0x201C0, symSize: 0x14 }
  - { offset: 0x12EF5B, size: 0x8, addend: 0x0, symName: __ZN6sentry12SentryLogger4warnERKN5godot6StringERKNS1_5ArrayERKNS1_10DictionaryE, symObjAddr: 0x26C, symBinAddr: 0x201D4, symSize: 0x14 }
  - { offset: 0x12EFD6, size: 0x8, addend: 0x0, symName: __ZN6sentry12SentryLogger5errorERKN5godot6StringERKNS1_5ArrayERKNS1_10DictionaryE, symObjAddr: 0x280, symBinAddr: 0x201E8, symSize: 0x14 }
  - { offset: 0x12F051, size: 0x8, addend: 0x0, symName: __ZN6sentry12SentryLogger5fatalERKN5godot6StringERKNS1_5ArrayERKNS1_10DictionaryE, symObjAddr: 0x294, symBinAddr: 0x201FC, symSize: 0x14 }
  - { offset: 0x12F704, size: 0x8, addend: 0x0, symName: __ZN6sentry12SentryLogger13_bind_methodsEv, symObjAddr: 0x2A8, symBinAddr: 0x20210, symSize: 0x948 }
  - { offset: 0x130EE8, size: 0x8, addend: 0x0, symName: __ZN6sentry12SentryLoggerC2Ev, symObjAddr: 0xD18, symBinAddr: 0x20C80, symSize: 0x88 }
  - { offset: 0x130F67, size: 0x8, addend: 0x0, symName: __ZN6sentry12SentryLoggerC1Ev, symObjAddr: 0xDA0, symBinAddr: 0x20D08, symSize: 0x88 }
  - { offset: 0x130FF1, size: 0x8, addend: 0x0, symName: __ZNK6sentry12SentryLogger19_is_extension_classEv, symObjAddr: 0xE28, symBinAddr: 0x20D90, symSize: 0x8 }
  - { offset: 0x131113, size: 0x8, addend: 0x0, symName: __ZN6sentry12SentryLoggerD1Ev, symObjAddr: 0xE30, symBinAddr: 0x20D98, symSize: 0x8C }
  - { offset: 0x131335, size: 0x8, addend: 0x0, symName: __ZN6sentry12SentryLoggerD1Ev.cold.1, symObjAddr: 0x301C, symBinAddr: 0xF0B58, symSize: 0x1C }
  - { offset: 0x131350, size: 0x8, addend: 0x0, symName: __ZN6sentry12SentryLoggerD1Ev.cold.1, symObjAddr: 0x301C, symBinAddr: 0xF0B58, symSize: 0x1C }
  - { offset: 0x131364, size: 0x8, addend: 0x0, symName: __ZN6sentry12SentryLoggerD1Ev.cold.1, symObjAddr: 0x301C, symBinAddr: 0xF0B58, symSize: 0x1C }
  - { offset: 0x131378, size: 0x8, addend: 0x0, symName: __ZN6sentry12SentryLoggerD1Ev.cold.1, symObjAddr: 0x301C, symBinAddr: 0xF0B58, symSize: 0x1C }
  - { offset: 0x13138C, size: 0x8, addend: 0x0, symName: __ZN6sentry12SentryLoggerD1Ev.cold.1, symObjAddr: 0x301C, symBinAddr: 0xF0B58, symSize: 0x1C }
  - { offset: 0x1313A1, size: 0x8, addend: 0x0, symName: __ZN6sentry12SentryLoggerD1Ev.cold.1, symObjAddr: 0x301C, symBinAddr: 0xF0B58, symSize: 0x1C }
  - { offset: 0x1313D4, size: 0x8, addend: 0x0, symName: __ZN6sentry12SentryLoggerD0Ev, symObjAddr: 0xEBC, symBinAddr: 0x20E24, symSize: 0x74 }
  - { offset: 0x131509, size: 0x8, addend: 0x0, symName: __ZN6sentry12SentryLoggerD0Ev.cold.1, symObjAddr: 0x3038, symBinAddr: 0xF0B74, symSize: 0x1C }
  - { offset: 0x131524, size: 0x8, addend: 0x0, symName: __ZN6sentry12SentryLoggerD0Ev.cold.1, symObjAddr: 0x3038, symBinAddr: 0xF0B74, symSize: 0x1C }
  - { offset: 0x131538, size: 0x8, addend: 0x0, symName: __ZN6sentry12SentryLoggerD0Ev.cold.1, symObjAddr: 0x3038, symBinAddr: 0xF0B74, symSize: 0x1C }
  - { offset: 0x13154C, size: 0x8, addend: 0x0, symName: __ZN6sentry12SentryLoggerD0Ev.cold.1, symObjAddr: 0x3038, symBinAddr: 0xF0B74, symSize: 0x1C }
  - { offset: 0x131560, size: 0x8, addend: 0x0, symName: __ZN6sentry12SentryLoggerD0Ev.cold.1, symObjAddr: 0x3038, symBinAddr: 0xF0B74, symSize: 0x1C }
  - { offset: 0x131574, size: 0x8, addend: 0x0, symName: __ZN6sentry12SentryLoggerD0Ev.cold.1, symObjAddr: 0x3038, symBinAddr: 0xF0B74, symSize: 0x1C }
  - { offset: 0x131589, size: 0x8, addend: 0x0, symName: __ZN6sentry12SentryLoggerD0Ev.cold.1, symObjAddr: 0x3038, symBinAddr: 0xF0B74, symSize: 0x1C }
  - { offset: 0x1315A1, size: 0x8, addend: 0x0, symName: __ZN5godot6ObjectD1Ev.cold.1, symObjAddr: 0x3054, symBinAddr: 0xF0B90, symSize: 0x1C }
  - { offset: 0x1315BC, size: 0x8, addend: 0x0, symName: __ZN5godot6ObjectD1Ev.cold.1, symObjAddr: 0x3054, symBinAddr: 0xF0B90, symSize: 0x1C }
  - { offset: 0x1315D0, size: 0x8, addend: 0x0, symName: __ZN5godot6ObjectD1Ev.cold.1, symObjAddr: 0x3054, symBinAddr: 0xF0B90, symSize: 0x1C }
  - { offset: 0x1315E4, size: 0x8, addend: 0x0, symName: __ZN5godot6ObjectD1Ev.cold.1, symObjAddr: 0x3054, symBinAddr: 0xF0B90, symSize: 0x1C }
  - { offset: 0x1315F9, size: 0x8, addend: 0x0, symName: __ZN5godot6ObjectD1Ev.cold.1, symObjAddr: 0x3054, symBinAddr: 0xF0B90, symSize: 0x1C }
  - { offset: 0x131629, size: 0x8, addend: 0x0, symName: __ZN5godot6ObjectD0Ev.cold.1, symObjAddr: 0x3070, symBinAddr: 0xF0BAC, symSize: 0x1C }
  - { offset: 0x131644, size: 0x8, addend: 0x0, symName: __ZN5godot6ObjectD0Ev.cold.1, symObjAddr: 0x3070, symBinAddr: 0xF0BAC, symSize: 0x1C }
  - { offset: 0x131658, size: 0x8, addend: 0x0, symName: __ZN5godot6ObjectD0Ev.cold.1, symObjAddr: 0x3070, symBinAddr: 0xF0BAC, symSize: 0x1C }
  - { offset: 0x13166C, size: 0x8, addend: 0x0, symName: __ZN5godot6ObjectD0Ev.cold.1, symObjAddr: 0x3070, symBinAddr: 0xF0BAC, symSize: 0x1C }
  - { offset: 0x131680, size: 0x8, addend: 0x0, symName: __ZN5godot6ObjectD0Ev.cold.1, symObjAddr: 0x3070, symBinAddr: 0xF0BAC, symSize: 0x1C }
  - { offset: 0x131695, size: 0x8, addend: 0x0, symName: __ZN5godot6ObjectD0Ev.cold.1, symObjAddr: 0x3070, symBinAddr: 0xF0BAC, symSize: 0x1C }
  - { offset: 0x1316AC, size: 0x8, addend: 0x0, symName: __ZN5godot7WrappedD1Ev.cold.1, symObjAddr: 0x308C, symBinAddr: 0xF0BC8, symSize: 0x1C }
  - { offset: 0x1316C7, size: 0x8, addend: 0x0, symName: __ZN5godot7WrappedD1Ev.cold.1, symObjAddr: 0x308C, symBinAddr: 0xF0BC8, symSize: 0x1C }
  - { offset: 0x1316DB, size: 0x8, addend: 0x0, symName: __ZN5godot7WrappedD1Ev.cold.1, symObjAddr: 0x308C, symBinAddr: 0xF0BC8, symSize: 0x1C }
  - { offset: 0x1316F0, size: 0x8, addend: 0x0, symName: __ZN5godot7WrappedD1Ev.cold.1, symObjAddr: 0x308C, symBinAddr: 0xF0BC8, symSize: 0x1C }
  - { offset: 0x13171F, size: 0x8, addend: 0x0, symName: __ZN5godot7WrappedD0Ev.cold.1, symObjAddr: 0x30A8, symBinAddr: 0xF0BE4, symSize: 0x1C }
  - { offset: 0x13173A, size: 0x8, addend: 0x0, symName: __ZN5godot7WrappedD0Ev.cold.1, symObjAddr: 0x30A8, symBinAddr: 0xF0BE4, symSize: 0x1C }
  - { offset: 0x13174E, size: 0x8, addend: 0x0, symName: __ZN5godot7WrappedD0Ev.cold.1, symObjAddr: 0x30A8, symBinAddr: 0xF0BE4, symSize: 0x1C }
  - { offset: 0x131762, size: 0x8, addend: 0x0, symName: __ZN5godot7WrappedD0Ev.cold.1, symObjAddr: 0x30A8, symBinAddr: 0xF0BE4, symSize: 0x1C }
  - { offset: 0x131777, size: 0x8, addend: 0x0, symName: __ZN5godot7WrappedD0Ev.cold.1, symObjAddr: 0x30A8, symBinAddr: 0xF0BE4, symSize: 0x1C }
  - { offset: 0x1317FD, size: 0x8, addend: 0x0, symName: __ZN5godot4ListINS_12PropertyInfoENS_16DefaultAllocatorEE5_Data5eraseEPNS3_7ElementE.cold.2, symObjAddr: 0x30E4, symBinAddr: 0xF0C20, symSize: 0x20 }
  - { offset: 0x131815, size: 0x8, addend: 0x0, symName: __ZN5godot4ListINS_12PropertyInfoENS_16DefaultAllocatorEE5_Data5eraseEPNS3_7ElementE.cold.1, symObjAddr: 0x30C4, symBinAddr: 0xF0C00, symSize: 0x20 }
  - { offset: 0x131834, size: 0x8, addend: 0x0, symName: __ZN5godot8internal23EngineClassRegistrationINS_6ObjectEE8callbackEv.cold.1, symObjAddr: 0x3104, symBinAddr: 0xF0C40, symSize: 0x5C }
  - { offset: 0x131869, size: 0x8, addend: 0x0, symName: __ZN5godot8internal23EngineClassRegistrationINS_16ClassDBSingletonEE8callbackEv.cold.1, symObjAddr: 0x3160, symBinAddr: 0xF0C9C, symSize: 0x5C }
  - { offset: 0x13189E, size: 0x8, addend: 0x0, symName: __ZN5godot8internal23EngineClassRegistrationINS_10RefCountedEE8callbackEv.cold.1, symObjAddr: 0x31BC, symBinAddr: 0xF0CF8, symSize: 0x5C }
  - { offset: 0x1318E8, size: 0x8, addend: 0x0, symName: __ZN5godot10RefCountedD1Ev.cold.1, symObjAddr: 0x3218, symBinAddr: 0xF0D54, symSize: 0x1C }
  - { offset: 0x131903, size: 0x8, addend: 0x0, symName: __ZN5godot10RefCountedD1Ev.cold.1, symObjAddr: 0x3218, symBinAddr: 0xF0D54, symSize: 0x1C }
  - { offset: 0x131917, size: 0x8, addend: 0x0, symName: __ZN5godot10RefCountedD1Ev.cold.1, symObjAddr: 0x3218, symBinAddr: 0xF0D54, symSize: 0x1C }
  - { offset: 0x13192B, size: 0x8, addend: 0x0, symName: __ZN5godot10RefCountedD1Ev.cold.1, symObjAddr: 0x3218, symBinAddr: 0xF0D54, symSize: 0x1C }
  - { offset: 0x13193F, size: 0x8, addend: 0x0, symName: __ZN5godot10RefCountedD1Ev.cold.1, symObjAddr: 0x3218, symBinAddr: 0xF0D54, symSize: 0x1C }
  - { offset: 0x131954, size: 0x8, addend: 0x0, symName: __ZN5godot10RefCountedD1Ev.cold.1, symObjAddr: 0x3218, symBinAddr: 0xF0D54, symSize: 0x1C }
  - { offset: 0x131987, size: 0x8, addend: 0x0, symName: __ZN5godot10RefCountedD0Ev.cold.1, symObjAddr: 0x3234, symBinAddr: 0xF0D70, symSize: 0x1C }
  - { offset: 0x1319A2, size: 0x8, addend: 0x0, symName: __ZN5godot10RefCountedD0Ev.cold.1, symObjAddr: 0x3234, symBinAddr: 0xF0D70, symSize: 0x1C }
  - { offset: 0x1319B6, size: 0x8, addend: 0x0, symName: __ZN5godot10RefCountedD0Ev.cold.1, symObjAddr: 0x3234, symBinAddr: 0xF0D70, symSize: 0x1C }
  - { offset: 0x1319CA, size: 0x8, addend: 0x0, symName: __ZN5godot10RefCountedD0Ev.cold.1, symObjAddr: 0x3234, symBinAddr: 0xF0D70, symSize: 0x1C }
  - { offset: 0x1319DE, size: 0x8, addend: 0x0, symName: __ZN5godot10RefCountedD0Ev.cold.1, symObjAddr: 0x3234, symBinAddr: 0xF0D70, symSize: 0x1C }
  - { offset: 0x1319F2, size: 0x8, addend: 0x0, symName: __ZN5godot10RefCountedD0Ev.cold.1, symObjAddr: 0x3234, symBinAddr: 0xF0D70, symSize: 0x1C }
  - { offset: 0x131A07, size: 0x8, addend: 0x0, symName: __ZN5godot10RefCountedD0Ev.cold.1, symObjAddr: 0x3234, symBinAddr: 0xF0D70, symSize: 0x1C }
  - { offset: 0x131A26, size: 0x8, addend: 0x0, symName: __ZN5godot8internal23EngineClassRegistrationINS_6LoggerEE8callbackEv.cold.1, symObjAddr: 0x3250, symBinAddr: 0xF0D8C, symSize: 0x5C }
  - { offset: 0x131A5B, size: 0x8, addend: 0x0, symName: __ZN5godot8internal23EngineClassRegistrationINS_15ScriptBacktraceEE8callbackEv.cold.1, symObjAddr: 0x32AC, symBinAddr: 0xF0DE8, symSize: 0x5C }
  - { offset: 0x131AA5, size: 0x8, addend: 0x0, symName: __ZN5godot15ScriptBacktraceD1Ev.cold.1, symObjAddr: 0x3308, symBinAddr: 0xF0E44, symSize: 0x1C }
  - { offset: 0x131AC0, size: 0x8, addend: 0x0, symName: __ZN5godot15ScriptBacktraceD1Ev.cold.1, symObjAddr: 0x3308, symBinAddr: 0xF0E44, symSize: 0x1C }
  - { offset: 0x131AD4, size: 0x8, addend: 0x0, symName: __ZN5godot15ScriptBacktraceD1Ev.cold.1, symObjAddr: 0x3308, symBinAddr: 0xF0E44, symSize: 0x1C }
  - { offset: 0x131AE8, size: 0x8, addend: 0x0, symName: __ZN5godot15ScriptBacktraceD1Ev.cold.1, symObjAddr: 0x3308, symBinAddr: 0xF0E44, symSize: 0x1C }
  - { offset: 0x131AFC, size: 0x8, addend: 0x0, symName: __ZN5godot15ScriptBacktraceD1Ev.cold.1, symObjAddr: 0x3308, symBinAddr: 0xF0E44, symSize: 0x1C }
  - { offset: 0x131B10, size: 0x8, addend: 0x0, symName: __ZN5godot15ScriptBacktraceD1Ev.cold.1, symObjAddr: 0x3308, symBinAddr: 0xF0E44, symSize: 0x1C }
  - { offset: 0x131B25, size: 0x8, addend: 0x0, symName: __ZN5godot15ScriptBacktraceD1Ev.cold.1, symObjAddr: 0x3308, symBinAddr: 0xF0E44, symSize: 0x1C }
  - { offset: 0x131B59, size: 0x8, addend: 0x0, symName: __ZN5godot15ScriptBacktraceD0Ev.cold.1, symObjAddr: 0x3324, symBinAddr: 0xF0E60, symSize: 0x1C }
  - { offset: 0x131B74, size: 0x8, addend: 0x0, symName: __ZN5godot15ScriptBacktraceD0Ev.cold.1, symObjAddr: 0x3324, symBinAddr: 0xF0E60, symSize: 0x1C }
  - { offset: 0x131B88, size: 0x8, addend: 0x0, symName: __ZN5godot15ScriptBacktraceD0Ev.cold.1, symObjAddr: 0x3324, symBinAddr: 0xF0E60, symSize: 0x1C }
  - { offset: 0x131B9C, size: 0x8, addend: 0x0, symName: __ZN5godot15ScriptBacktraceD0Ev.cold.1, symObjAddr: 0x3324, symBinAddr: 0xF0E60, symSize: 0x1C }
  - { offset: 0x131BB0, size: 0x8, addend: 0x0, symName: __ZN5godot15ScriptBacktraceD0Ev.cold.1, symObjAddr: 0x3324, symBinAddr: 0xF0E60, symSize: 0x1C }
  - { offset: 0x131BC4, size: 0x8, addend: 0x0, symName: __ZN5godot15ScriptBacktraceD0Ev.cold.1, symObjAddr: 0x3324, symBinAddr: 0xF0E60, symSize: 0x1C }
  - { offset: 0x131BD8, size: 0x8, addend: 0x0, symName: __ZN5godot15ScriptBacktraceD0Ev.cold.1, symObjAddr: 0x3324, symBinAddr: 0xF0E60, symSize: 0x1C }
  - { offset: 0x131BED, size: 0x8, addend: 0x0, symName: __ZN5godot15ScriptBacktraceD0Ev.cold.1, symObjAddr: 0x3324, symBinAddr: 0xF0E60, symSize: 0x1C }
  - { offset: 0x131C0D, size: 0x8, addend: 0x0, symName: __ZN5godot8internal23EngineClassRegistrationINS_10ConfigFileEE8callbackEv.cold.1, symObjAddr: 0x3340, symBinAddr: 0xF0E7C, symSize: 0x5C }
  - { offset: 0x131C57, size: 0x8, addend: 0x0, symName: __ZN5godot10ConfigFileD1Ev.cold.1, symObjAddr: 0x339C, symBinAddr: 0xF0ED8, symSize: 0x1C }
  - { offset: 0x131C72, size: 0x8, addend: 0x0, symName: __ZN5godot10ConfigFileD1Ev.cold.1, symObjAddr: 0x339C, symBinAddr: 0xF0ED8, symSize: 0x1C }
  - { offset: 0x131C86, size: 0x8, addend: 0x0, symName: __ZN5godot10ConfigFileD1Ev.cold.1, symObjAddr: 0x339C, symBinAddr: 0xF0ED8, symSize: 0x1C }
  - { offset: 0x131C9A, size: 0x8, addend: 0x0, symName: __ZN5godot10ConfigFileD1Ev.cold.1, symObjAddr: 0x339C, symBinAddr: 0xF0ED8, symSize: 0x1C }
  - { offset: 0x131CAE, size: 0x8, addend: 0x0, symName: __ZN5godot10ConfigFileD1Ev.cold.1, symObjAddr: 0x339C, symBinAddr: 0xF0ED8, symSize: 0x1C }
  - { offset: 0x131CC2, size: 0x8, addend: 0x0, symName: __ZN5godot10ConfigFileD1Ev.cold.1, symObjAddr: 0x339C, symBinAddr: 0xF0ED8, symSize: 0x1C }
  - { offset: 0x131CD7, size: 0x8, addend: 0x0, symName: __ZN5godot10ConfigFileD1Ev.cold.1, symObjAddr: 0x339C, symBinAddr: 0xF0ED8, symSize: 0x1C }
  - { offset: 0x131D0B, size: 0x8, addend: 0x0, symName: __ZN5godot10ConfigFileD0Ev.cold.1, symObjAddr: 0x33B8, symBinAddr: 0xF0EF4, symSize: 0x1C }
  - { offset: 0x131D26, size: 0x8, addend: 0x0, symName: __ZN5godot10ConfigFileD0Ev.cold.1, symObjAddr: 0x33B8, symBinAddr: 0xF0EF4, symSize: 0x1C }
  - { offset: 0x131D3A, size: 0x8, addend: 0x0, symName: __ZN5godot10ConfigFileD0Ev.cold.1, symObjAddr: 0x33B8, symBinAddr: 0xF0EF4, symSize: 0x1C }
  - { offset: 0x131D4E, size: 0x8, addend: 0x0, symName: __ZN5godot10ConfigFileD0Ev.cold.1, symObjAddr: 0x33B8, symBinAddr: 0xF0EF4, symSize: 0x1C }
  - { offset: 0x131D62, size: 0x8, addend: 0x0, symName: __ZN5godot10ConfigFileD0Ev.cold.1, symObjAddr: 0x33B8, symBinAddr: 0xF0EF4, symSize: 0x1C }
  - { offset: 0x131D76, size: 0x8, addend: 0x0, symName: __ZN5godot10ConfigFileD0Ev.cold.1, symObjAddr: 0x33B8, symBinAddr: 0xF0EF4, symSize: 0x1C }
  - { offset: 0x131D8A, size: 0x8, addend: 0x0, symName: __ZN5godot10ConfigFileD0Ev.cold.1, symObjAddr: 0x33B8, symBinAddr: 0xF0EF4, symSize: 0x1C }
  - { offset: 0x131D9F, size: 0x8, addend: 0x0, symName: __ZN5godot10ConfigFileD0Ev.cold.1, symObjAddr: 0x33B8, symBinAddr: 0xF0EF4, symSize: 0x1C }
  - { offset: 0x131DBF, size: 0x8, addend: 0x0, symName: __ZN5godot8internal23EngineClassRegistrationINS_5MutexEE8callbackEv.cold.1, symObjAddr: 0x33D4, symBinAddr: 0xF0F10, symSize: 0x5C }
  - { offset: 0x131E09, size: 0x8, addend: 0x0, symName: __ZN5godot5MutexD1Ev.cold.1, symObjAddr: 0x3430, symBinAddr: 0xF0F6C, symSize: 0x1C }
  - { offset: 0x131E24, size: 0x8, addend: 0x0, symName: __ZN5godot5MutexD1Ev.cold.1, symObjAddr: 0x3430, symBinAddr: 0xF0F6C, symSize: 0x1C }
  - { offset: 0x131E38, size: 0x8, addend: 0x0, symName: __ZN5godot5MutexD1Ev.cold.1, symObjAddr: 0x3430, symBinAddr: 0xF0F6C, symSize: 0x1C }
  - { offset: 0x131E4C, size: 0x8, addend: 0x0, symName: __ZN5godot5MutexD1Ev.cold.1, symObjAddr: 0x3430, symBinAddr: 0xF0F6C, symSize: 0x1C }
  - { offset: 0x131E60, size: 0x8, addend: 0x0, symName: __ZN5godot5MutexD1Ev.cold.1, symObjAddr: 0x3430, symBinAddr: 0xF0F6C, symSize: 0x1C }
  - { offset: 0x131E74, size: 0x8, addend: 0x0, symName: __ZN5godot5MutexD1Ev.cold.1, symObjAddr: 0x3430, symBinAddr: 0xF0F6C, symSize: 0x1C }
  - { offset: 0x131E89, size: 0x8, addend: 0x0, symName: __ZN5godot5MutexD1Ev.cold.1, symObjAddr: 0x3430, symBinAddr: 0xF0F6C, symSize: 0x1C }
  - { offset: 0x131EBD, size: 0x8, addend: 0x0, symName: __ZN5godot5MutexD0Ev.cold.1, symObjAddr: 0x344C, symBinAddr: 0xF0F88, symSize: 0x1C }
  - { offset: 0x131ED8, size: 0x8, addend: 0x0, symName: __ZN5godot5MutexD0Ev.cold.1, symObjAddr: 0x344C, symBinAddr: 0xF0F88, symSize: 0x1C }
  - { offset: 0x131EEC, size: 0x8, addend: 0x0, symName: __ZN5godot5MutexD0Ev.cold.1, symObjAddr: 0x344C, symBinAddr: 0xF0F88, symSize: 0x1C }
  - { offset: 0x131F00, size: 0x8, addend: 0x0, symName: __ZN5godot5MutexD0Ev.cold.1, symObjAddr: 0x344C, symBinAddr: 0xF0F88, symSize: 0x1C }
  - { offset: 0x131F14, size: 0x8, addend: 0x0, symName: __ZN5godot5MutexD0Ev.cold.1, symObjAddr: 0x344C, symBinAddr: 0xF0F88, symSize: 0x1C }
  - { offset: 0x131F28, size: 0x8, addend: 0x0, symName: __ZN5godot5MutexD0Ev.cold.1, symObjAddr: 0x344C, symBinAddr: 0xF0F88, symSize: 0x1C }
  - { offset: 0x131F3C, size: 0x8, addend: 0x0, symName: __ZN5godot5MutexD0Ev.cold.1, symObjAddr: 0x344C, symBinAddr: 0xF0F88, symSize: 0x1C }
  - { offset: 0x131F51, size: 0x8, addend: 0x0, symName: __ZN5godot5MutexD0Ev.cold.1, symObjAddr: 0x344C, symBinAddr: 0xF0F88, symSize: 0x1C }
  - { offset: 0x13206A, size: 0x8, addend: 0x0, symName: __ZN5godot18create_method_bindIN6sentry12SentryLoggerEJNS1_8LogLevelERKNS_6StringERKNS_5ArrayERKNS_10DictionaryEEEEPNS_10MethodBindEMT_FvDpT0_E.cold.1, symObjAddr: 0x3468, symBinAddr: 0xF0FA4, symSize: 0x60 }
  - { offset: 0x1320AF, size: 0x8, addend: 0x0, symName: __ZNK5godot11MethodBindTIJN6sentry8LogLevelERKNS_6StringERKNS_5ArrayERKNS_10DictionaryEEE17gen_argument_typeEi, symObjAddr: 0x1CB4, symBinAddr: 0x20FB0, symSize: 0x38 }
  - { offset: 0x1320E8, size: 0x8, addend: 0x0, symName: __ZNK5godot11MethodBindTIJN6sentry8LogLevelERKNS_6StringERKNS_5ArrayERKNS_10DictionaryEEE17gen_argument_typeEi, symObjAddr: 0x1CB4, symBinAddr: 0x20FB0, symSize: 0x38 }
  - { offset: 0x132120, size: 0x8, addend: 0x0, symName: __ZNK5godot11MethodBindTIJN6sentry8LogLevelERKNS_6StringERKNS_5ArrayERKNS_10DictionaryEEE17gen_argument_typeEi, symObjAddr: 0x1CB4, symBinAddr: 0x20FB0, symSize: 0x38 }
  - { offset: 0x1321EC, size: 0x8, addend: 0x0, symName: __ZNK5godot11MethodBindTIJN6sentry8LogLevelERKNS_6StringERKNS_5ArrayERKNS_10DictionaryEEE22gen_argument_type_infoEi, symObjAddr: 0x1CEC, symBinAddr: 0x20FE8, symSize: 0x158 }
  - { offset: 0x13238D, size: 0x8, addend: 0x0, symName: __ZNK5godot11MethodBindTIJN6sentry8LogLevelERKNS_6StringERKNS_5ArrayERKNS_10DictionaryEEE21get_argument_metadataEi, symObjAddr: 0x1E44, symBinAddr: 0x21140, symSize: 0x8 }
  - { offset: 0x1323DE, size: 0x8, addend: 0x0, symName: __ZNK5godot11MethodBindTIJN6sentry8LogLevelERKNS_6StringERKNS_5ArrayERKNS_10DictionaryEEE4callEPvPKPKvxR20GDExtensionCallError, symObjAddr: 0x1E4C, symBinAddr: 0x21148, symSize: 0x40 }
  - { offset: 0x13248B, size: 0x8, addend: 0x0, symName: __ZNK5godot11MethodBindTIJN6sentry8LogLevelERKNS_6StringERKNS_5ArrayERKNS_10DictionaryEEE7ptrcallEPvPKPKvSD_, symObjAddr: 0x1E8C, symBinAddr: 0x21188, symSize: 0x14 }
  - { offset: 0x13254B, size: 0x8, addend: 0x0, symName: __ZN5godot11MethodBindTIJN6sentry8LogLevelERKNS_6StringERKNS_5ArrayERKNS_10DictionaryEEED1Ev, symObjAddr: 0x1EA0, symBinAddr: 0x2119C, symSize: 0x4 }
  - { offset: 0x13256E, size: 0x8, addend: 0x0, symName: __ZN5godot11MethodBindTIJN6sentry8LogLevelERKNS_6StringERKNS_5ArrayERKNS_10DictionaryEEED1Ev, symObjAddr: 0x1EA0, symBinAddr: 0x2119C, symSize: 0x4 }
  - { offset: 0x1325A6, size: 0x8, addend: 0x0, symName: __ZN5godot11MethodBindTIJN6sentry8LogLevelERKNS_6StringERKNS_5ArrayERKNS_10DictionaryEEED0Ev, symObjAddr: 0x1EA4, symBinAddr: 0x211A0, symSize: 0x14 }
  - { offset: 0x1327D4, size: 0x8, addend: 0x0, symName: __ZN5godot18create_method_bindIN6sentry12SentryLoggerEJRKNS_6StringERKNS_5ArrayERKNS_10DictionaryEEEEPNS_10MethodBindEMT_FvDpT0_E.cold.1, symObjAddr: 0x34C8, symBinAddr: 0xF1004, symSize: 0x60 }
  - { offset: 0x13280F, size: 0x8, addend: 0x0, symName: __ZNK5godot11MethodBindTIJRKNS_6StringERKNS_5ArrayERKNS_10DictionaryEEE17gen_argument_typeEi, symObjAddr: 0x2AEC, symBinAddr: 0x217F4, symSize: 0x2C }
  - { offset: 0x132848, size: 0x8, addend: 0x0, symName: __ZNK5godot11MethodBindTIJRKNS_6StringERKNS_5ArrayERKNS_10DictionaryEEE17gen_argument_typeEi, symObjAddr: 0x2AEC, symBinAddr: 0x217F4, symSize: 0x2C }
  - { offset: 0x132880, size: 0x8, addend: 0x0, symName: __ZNK5godot11MethodBindTIJRKNS_6StringERKNS_5ArrayERKNS_10DictionaryEEE17gen_argument_typeEi, symObjAddr: 0x2AEC, symBinAddr: 0x217F4, symSize: 0x2C }
  - { offset: 0x1328D8, size: 0x8, addend: 0x0, symName: __ZNK5godot11MethodBindTIJRKNS_6StringERKNS_5ArrayERKNS_10DictionaryEEE22gen_argument_type_infoEi, symObjAddr: 0x2B18, symBinAddr: 0x21820, symSize: 0x148 }
  - { offset: 0x132A58, size: 0x8, addend: 0x0, symName: __ZNK5godot11MethodBindTIJRKNS_6StringERKNS_5ArrayERKNS_10DictionaryEEE21get_argument_metadataEi, symObjAddr: 0x2C60, symBinAddr: 0x21968, symSize: 0x8 }
  - { offset: 0x132A8E, size: 0x8, addend: 0x0, symName: __ZNK5godot11MethodBindTIJRKNS_6StringERKNS_5ArrayERKNS_10DictionaryEEE4callEPvPKPKvxR20GDExtensionCallError, symObjAddr: 0x2C68, symBinAddr: 0x21970, symSize: 0x40 }
  - { offset: 0x132B3B, size: 0x8, addend: 0x0, symName: __ZNK5godot11MethodBindTIJRKNS_6StringERKNS_5ArrayERKNS_10DictionaryEEE7ptrcallEPvPKPKvSB_, symObjAddr: 0x2CA8, symBinAddr: 0x219B0, symSize: 0x14 }
  - { offset: 0x132BFB, size: 0x8, addend: 0x0, symName: __ZN5godot11MethodBindTIJRKNS_6StringERKNS_5ArrayERKNS_10DictionaryEEED1Ev, symObjAddr: 0x2CBC, symBinAddr: 0x219C4, symSize: 0x4 }
  - { offset: 0x132C1E, size: 0x8, addend: 0x0, symName: __ZN5godot11MethodBindTIJRKNS_6StringERKNS_5ArrayERKNS_10DictionaryEEED1Ev, symObjAddr: 0x2CBC, symBinAddr: 0x219C4, symSize: 0x4 }
  - { offset: 0x132C56, size: 0x8, addend: 0x0, symName: __ZN5godot11MethodBindTIJRKNS_6StringERKNS_5ArrayERKNS_10DictionaryEEED0Ev, symObjAddr: 0x2CC0, symBinAddr: 0x219C8, symSize: 0x14 }
  - { offset: 0x132CBE, size: 0x8, addend: 0x0, symName: _OUTLINED_FUNCTION_0, symObjAddr: 0x3528, symBinAddr: 0x21D24, symSize: 0x10 }
  - { offset: 0x132CD6, size: 0x8, addend: 0x0, symName: _OUTLINED_FUNCTION_1, symObjAddr: 0x3538, symBinAddr: 0x21D34, symSize: 0xC }
  - { offset: 0x132CEE, size: 0x8, addend: 0x0, symName: _OUTLINED_FUNCTION_2, symObjAddr: 0x3544, symBinAddr: 0x21D40, symSize: 0xC }
  - { offset: 0x132D06, size: 0x8, addend: 0x0, symName: _OUTLINED_FUNCTION_3, symObjAddr: 0x3550, symBinAddr: 0x21D4C, symSize: 0x8 }
  - { offset: 0x132D1E, size: 0x8, addend: 0x0, symName: _OUTLINED_FUNCTION_4, symObjAddr: 0x3558, symBinAddr: 0x21D54, symSize: 0x8 }
  - { offset: 0x132D36, size: 0x8, addend: 0x0, symName: _OUTLINED_FUNCTION_5, symObjAddr: 0x3560, symBinAddr: 0x21D5C, symSize: 0x8 }
  - { offset: 0x138B57, size: 0x8, addend: 0x0, symName: __ZN5godot18create_method_bindIN6sentry18SentryLoggerLimitsEJiEEEPNS_10MethodBindEMT_FvDpT0_E, symObjAddr: 0x9970, symBinAddr: 0x2AAE4, symSize: 0x114 }
  - { offset: 0x138C9F, size: 0x8, addend: 0x0, symName: __ZN5godot18create_method_bindIN6sentry18SentryLoggerLimitsEiJEEEPNS_10MethodBindEMT_FT0_DpT1_E, symObjAddr: 0x9EF0, symBinAddr: 0x2AEF0, symSize: 0x120 }
  - { offset: 0x138E2B, size: 0x8, addend: 0x0, symName: __ZN5godot18create_method_bindIN6sentry18SentryExperimentalEJbEEEPNS_10MethodBindEMT_FvDpT0_E, symObjAddr: 0xA260, symBinAddr: 0x2B260, symSize: 0x114 }
  - { offset: 0x138F5E, size: 0x8, addend: 0x0, symName: __ZN5godot18create_method_bindIN6sentry18SentryExperimentalEbJEEEPNS_10MethodBindEMT_FT0_DpT1_E, symObjAddr: 0xA7DC, symBinAddr: 0x2B7DC, symSize: 0x120 }
  - { offset: 0x139094, size: 0x8, addend: 0x0, symName: __ZN5godot18create_method_bindIN6sentry18SentryExperimentalEJNS_8CallableEEEEPNS_10MethodBindEMT_FvDpT0_E, symObjAddr: 0xAB14, symBinAddr: 0x2BB14, symSize: 0x114 }
  - { offset: 0x1391C7, size: 0x8, addend: 0x0, symName: __ZN5godot18create_method_bindIN6sentry18SentryExperimentalENS_8CallableEJEEEPNS_10MethodBindEMT_FT0_DpT1_E, symObjAddr: 0xB0F8, symBinAddr: 0x2C0F8, symSize: 0x120 }
  - { offset: 0x139416, size: 0x8, addend: 0x0, symName: __ZN5godot18create_method_bindIN6sentry13SentryOptionsEJRKNS_6StringEEEEPNS_10MethodBindEMT_FvDpT0_E, symObjAddr: 0xBAE4, symBinAddr: 0x2C9B4, symSize: 0x114 }
  - { offset: 0x139549, size: 0x8, addend: 0x0, symName: __ZN5godot18create_method_bindIN6sentry13SentryOptionsENS_6StringEJEEEPNS_10MethodBindEMT_KFT0_DpT1_E, symObjAddr: 0xC0C8, symBinAddr: 0x2CAC8, symSize: 0x12C }
  - { offset: 0x13967F, size: 0x8, addend: 0x0, symName: __ZN5godot18create_method_bindIN6sentry13SentryOptionsEJbEEEPNS_10MethodBindEMT_FvDpT0_E, symObjAddr: 0xC490, symBinAddr: 0x2CC24, symSize: 0x114 }
  - { offset: 0x1397B2, size: 0x8, addend: 0x0, symName: __ZN5godot18create_method_bindIN6sentry13SentryOptionsEbJEEEPNS_10MethodBindEMT_KFT0_DpT1_E, symObjAddr: 0xC5A4, symBinAddr: 0x2CD38, symSize: 0x12C }
  - { offset: 0x1398E8, size: 0x8, addend: 0x0, symName: __ZN5godot18create_method_bindIN6sentry13SentryOptionsEJNS1_5LevelEEEEPNS_10MethodBindEMT_FvDpT0_E, symObjAddr: 0xC8F8, symBinAddr: 0x2CE74, symSize: 0x114 }
  - { offset: 0x139A1B, size: 0x8, addend: 0x0, symName: __ZN5godot18create_method_bindIN6sentry13SentryOptionsENS1_5LevelEJEEEPNS_10MethodBindEMT_KFT0_DpT1_E, symObjAddr: 0xD008, symBinAddr: 0x2CF88, symSize: 0x12C }
  - { offset: 0x139B51, size: 0x8, addend: 0x0, symName: __ZN5godot18create_method_bindIN6sentry13SentryOptionsEJdEEEPNS_10MethodBindEMT_FvDpT0_E, symObjAddr: 0xD280, symBinAddr: 0x2D0D8, symSize: 0x114 }
  - { offset: 0x139C84, size: 0x8, addend: 0x0, symName: __ZN5godot18create_method_bindIN6sentry13SentryOptionsEdJEEEPNS_10MethodBindEMT_KFT0_DpT1_E, symObjAddr: 0xD7FC, symBinAddr: 0x2D654, symSize: 0x12C }
  - { offset: 0x139DBA, size: 0x8, addend: 0x0, symName: __ZN5godot18create_method_bindIN6sentry13SentryOptionsEJiEEEPNS_10MethodBindEMT_FvDpT0_E, symObjAddr: 0xDB50, symBinAddr: 0x2D9A8, symSize: 0x114 }
  - { offset: 0x139EED, size: 0x8, addend: 0x0, symName: __ZN5godot18create_method_bindIN6sentry13SentryOptionsEiJEEEPNS_10MethodBindEMT_KFT0_DpT1_E, symObjAddr: 0xDC64, symBinAddr: 0x2DABC, symSize: 0x12C }
  - { offset: 0x13A023, size: 0x8, addend: 0x0, symName: __ZN5godot18create_method_bindIN6sentry13SentryOptionsEJRKNS_8CallableEEEEPNS_10MethodBindEMT_FvDpT0_E, symObjAddr: 0xE000, symBinAddr: 0x2DC38, symSize: 0x114 }
  - { offset: 0x13A156, size: 0x8, addend: 0x0, symName: __ZN5godot18create_method_bindIN6sentry13SentryOptionsENS_8CallableEJEEEPNS_10MethodBindEMT_KFT0_DpT1_E, symObjAddr: 0xE5E4, symBinAddr: 0x2E21C, symSize: 0x12C }
  - { offset: 0x13A28C, size: 0x8, addend: 0x0, symName: __ZN5godot18create_method_bindIN6sentry13SentryOptionsEJNS_8BitFieldINS1_14GodotErrorMaskEEEEEEPNS_10MethodBindEMT_FvDpT0_E, symObjAddr: 0xE9EC, symBinAddr: 0x2E624, symSize: 0x114 }
  - { offset: 0x13A3BF, size: 0x8, addend: 0x0, symName: __ZN5godot18create_method_bindIN6sentry13SentryOptionsENS_8BitFieldINS1_14GodotErrorMaskEEEJEEEPNS_10MethodBindEMT_KFT0_DpT1_E, symObjAddr: 0xEFE8, symBinAddr: 0x2EC20, symSize: 0x12C }
  - { offset: 0x13A4F5, size: 0x8, addend: 0x0, symName: __ZN5godot18create_method_bindIN6sentry13SentryOptionsEJRKNS_3RefINS1_18SentryLoggerLimitsEEEEEEPNS_10MethodBindEMT_FvDpT0_E, symObjAddr: 0xF260, symBinAddr: 0x2EE98, symSize: 0x114 }
  - { offset: 0x13A628, size: 0x8, addend: 0x0, symName: __ZN5godot18create_method_bindIN6sentry13SentryOptionsENS_3RefINS1_18SentryLoggerLimitsEEEJEEEPNS_10MethodBindEMT_KFT0_DpT1_E, symObjAddr: 0xFA34, symBinAddr: 0x2F66C, symSize: 0x12C }
  - { offset: 0x13A75E, size: 0x8, addend: 0x0, symName: __ZN5godot18create_method_bindIN6sentry13SentryOptionsENS_3RefINS1_18SentryExperimentalEEEJEEEPNS_10MethodBindEMT_KFT0_DpT1_E, symObjAddr: 0xFEDC, symBinAddr: 0x2FB14, symSize: 0x12C }
  - { offset: 0x13AC2D, size: 0x8, addend: 0x0, symName: __ZN5godot25call_with_variant_args_dvINS_20_gde_UnexistingClassEJiEEEvPT_MS2_FvDpT0_EPKPKviR20GDExtensionCallErrorRKNSt3__16vectorINS_7VariantENSE_9allocatorISG_EEEE, symObjAddr: 0x9DC8, symBinAddr: 0x2ADC8, symSize: 0x128 }
  - { offset: 0x13B383, size: 0x8, addend: 0x0, symName: __ZN5godot34call_get_argument_type_info_helperIbEEviRiRNS_12PropertyInfoE, symObjAddr: 0xA540, symBinAddr: 0x2B540, symSize: 0x174 }
  - { offset: 0x13B4A6, size: 0x8, addend: 0x0, symName: __ZN5godot25call_with_variant_args_dvINS_20_gde_UnexistingClassEJbEEEvPT_MS2_FvDpT0_EPKPKviR20GDExtensionCallErrorRKNSt3__16vectorINS_7VariantENSE_9allocatorISG_EEEE, symObjAddr: 0xA6B4, symBinAddr: 0x2B6B4, symSize: 0x128 }
  - { offset: 0x13BBC4, size: 0x8, addend: 0x0, symName: __ZN5godot34call_get_argument_type_info_helperINS_8CallableEEEviRiRNS_12PropertyInfoE, symObjAddr: 0xAE50, symBinAddr: 0x2BE50, symSize: 0x174 }
  - { offset: 0x13BCE7, size: 0x8, addend: 0x0, symName: __ZN5godot25call_with_variant_args_dvINS_20_gde_UnexistingClassEJNS_8CallableEEEEvPT_MS3_FvDpT0_EPKPKviR20GDExtensionCallErrorRKNSt3__16vectorINS_7VariantENSF_9allocatorISH_EEEE, symObjAddr: 0xAFC4, symBinAddr: 0x2BFC4, symSize: 0x134 }
  - { offset: 0x13CA33, size: 0x8, addend: 0x0, symName: __ZN5godot34call_get_argument_type_info_helperIdEEviRiRNS_12PropertyInfoE, symObjAddr: 0xD564, symBinAddr: 0x2D3BC, symSize: 0x174 }
  - { offset: 0x13CBE7, size: 0x8, addend: 0x0, symName: __ZN5godot25call_with_variant_args_dvINS_20_gde_UnexistingClassEJdEEEvPT_MS2_FvDpT0_EPKPKviR20GDExtensionCallErrorRKNSt3__16vectorINS_7VariantENSE_9allocatorISG_EEEE, symObjAddr: 0xD6D8, symBinAddr: 0x2D530, symSize: 0x124 }
  - { offset: 0x13D46B, size: 0x8, addend: 0x0, symName: __ZN5godot34call_get_argument_type_info_helperIRKNS_8CallableEEEviRiRNS_12PropertyInfoE, symObjAddr: 0xE33C, symBinAddr: 0x2DF74, symSize: 0x174 }
  - { offset: 0x13D58E, size: 0x8, addend: 0x0, symName: __ZN5godot25call_with_variant_args_dvINS_20_gde_UnexistingClassEJRKNS_8CallableEEEEvPT_MS5_FvDpT0_EPKPKviR20GDExtensionCallErrorRKNSt3__16vectorINS_7VariantENSH_9allocatorISJ_EEEE, symObjAddr: 0xE4B0, symBinAddr: 0x2E0E8, symSize: 0x134 }
  - { offset: 0x13DCF0, size: 0x8, addend: 0x0, symName: __ZN5godot34call_get_argument_type_info_helperINS_8BitFieldIN6sentry14GodotErrorMaskEEEEEviRiRNS_12PropertyInfoE, symObjAddr: 0xECC8, symBinAddr: 0x2E900, symSize: 0xD4 }
  - { offset: 0x13DDA8, size: 0x8, addend: 0x0, symName: __ZN5godot25call_with_variant_args_dvINS_20_gde_UnexistingClassEJNS_8BitFieldIN6sentry14GodotErrorMaskEEEEEEvPT_MS6_FvDpT0_EPKPKviR20GDExtensionCallErrorRKNSt3__16vectorINS_7VariantENSI_9allocatorISK_EEEE, symObjAddr: 0xEEC0, symBinAddr: 0x2EAF8, symSize: 0x128 }
  - { offset: 0x13E504, size: 0x8, addend: 0x0, symName: __ZN5godot34call_get_argument_type_info_helperIRKNS_3RefIN6sentry18SentryLoggerLimitsEEEEEviRiRNS_12PropertyInfoE, symObjAddr: 0xF5DC, symBinAddr: 0x2F214, symSize: 0xD4 }
  - { offset: 0x13E5BC, size: 0x8, addend: 0x0, symName: __ZN5godot25call_with_variant_args_dvINS_20_gde_UnexistingClassEJRKNS_3RefIN6sentry18SentryLoggerLimitsEEEEEEvPT_MS8_FvDpT0_EPKPKviR20GDExtensionCallErrorRKNSt3__16vectorINS_7VariantENSK_9allocatorISM_EEEE, symObjAddr: 0xF7DC, symBinAddr: 0x2F414, symSize: 0x170 }
  - { offset: 0x13EAB1, size: 0x8, addend: 0x0, symName: __ZN5godot30call_with_variant_args_retc_dvINS_20_gde_UnexistingClassENS_3RefIN6sentry18SentryLoggerLimitsEEEJEEEvPT_MS6_KFT0_DpT1_EPKPKviRNS_7VariantER20GDExtensionCallErrorRKNSt3__16vectorISH_NSL_9allocatorISH_EEEE, symObjAddr: 0xFDB8, symBinAddr: 0x2F9F0, symSize: 0xE4 }
  - { offset: 0x13EEF8, size: 0x8, addend: 0x0, symName: __ZN5godot30call_with_variant_args_retc_dvINS_20_gde_UnexistingClassENS_3RefIN6sentry18SentryExperimentalEEEJEEEvPT_MS6_KFT0_DpT1_EPKPKviRNS_7VariantER20GDExtensionCallErrorRKNSt3__16vectorISH_NSL_9allocatorISH_EEEE, symObjAddr: 0x10260, symBinAddr: 0x2FE98, symSize: 0xE4 }
  - { offset: 0x14BB79, size: 0x8, addend: 0x0, symName: __ZN6sentry13SentryOptions9singletonE, symObjAddr: 0x19D7E0, symBinAddr: 0x17D230, symSize: 0x0 }
  - { offset: 0x14D3CB, size: 0x8, addend: 0x0, symName: __ZN6sentry18SentryExperimental15set_enable_logsEb, symObjAddr: 0xB50, symBinAddr: 0x22AC8, symSize: 0xB0 }
  - { offset: 0x14D3F1, size: 0x8, addend: 0x0, symName: __ZZN6sentry18SentryExperimental15set_enable_logsEbE13warning_shown.0, symObjAddr: 0x19D7D4, symBinAddr: 0x174D10, symSize: 0x0 }
  - { offset: 0x14D5DE, size: 0x8, addend: 0x0, symName: __ZN6sentry18SentryExperimental19set_before_send_logEN5godot8CallableE, symObjAddr: 0xCB0, symBinAddr: 0x22C28, symSize: 0xD0 }
  - { offset: 0x14D604, size: 0x8, addend: 0x0, symName: __ZZN6sentry18SentryExperimental19set_before_send_logEN5godot8CallableEE13warning_shown.0, symObjAddr: 0x19D7D5, symBinAddr: 0x174D11, symSize: 0x0 }
  - { offset: 0x14D883, size: 0x8, addend: 0x0, symName: __ZN6sentry13SentryOptions16create_singletonEv, symObjAddr: 0x33CC, symBinAddr: 0x25344, symSize: 0x130 }
  - { offset: 0x14D8A5, size: 0x8, addend: 0x0, symName: __ZZN6sentry13SentryOptions16create_singletonEvE20are_settings_defined, symObjAddr: 0x19D7D6, symBinAddr: 0x174D12, symSize: 0x0 }
  - { offset: 0x14DA60, size: 0x8, addend: 0x0, symName: __ZN12_GLOBAL__N_115_define_settingERKN5godot6StringERKNS0_7VariantEb, symObjAddr: 0x234C, symBinAddr: 0x242C4, symSize: 0x104 }
  - { offset: 0x14DA86, size: 0x8, addend: 0x0, symName: __ZZN12_GLOBAL__N_115_define_settingERKN5godot6StringERKNS0_7VariantEbE18config_value_order, symObjAddr: 0x19D7D8, symBinAddr: 0x174D14, symSize: 0x0 }
  - { offset: 0x14DB0A, size: 0x8, addend: 0x0, symName: __ZN12_GLOBAL__N_115_define_settingERKN5godot12PropertyInfoERKNS0_7VariantEb, symObjAddr: 0x2450, symBinAddr: 0x243C8, symSize: 0xDC }
  - { offset: 0x14E97F, size: 0x8, addend: 0x0, symName: ___cxx_global_var_init, symObjAddr: 0x12604, symBinAddr: 0x2FFD0, symSize: 0x4C }
  - { offset: 0x14EA04, size: 0x8, addend: 0x0, symName: ___cxx_global_var_init.1, symObjAddr: 0x12650, symBinAddr: 0x3001C, symSize: 0x4C }
  - { offset: 0x14EA89, size: 0x8, addend: 0x0, symName: ___cxx_global_var_init.2, symObjAddr: 0x1269C, symBinAddr: 0x30068, symSize: 0x4C }
  - { offset: 0x14EB0E, size: 0x8, addend: 0x0, symName: ___cxx_global_var_init.3, symObjAddr: 0x126E8, symBinAddr: 0x300B4, symSize: 0x4C }
  - { offset: 0x14EB93, size: 0x8, addend: 0x0, symName: ___cxx_global_var_init.4, symObjAddr: 0x12734, symBinAddr: 0x30100, symSize: 0x4C }
  - { offset: 0x14EC18, size: 0x8, addend: 0x0, symName: ___cxx_global_var_init.5, symObjAddr: 0x12780, symBinAddr: 0x3014C, symSize: 0x4C }
  - { offset: 0x14EC9D, size: 0x8, addend: 0x0, symName: ___cxx_global_var_init.6, symObjAddr: 0x127CC, symBinAddr: 0x30198, symSize: 0x4C }
  - { offset: 0x14ED22, size: 0x8, addend: 0x0, symName: ___cxx_global_var_init.7, symObjAddr: 0x12818, symBinAddr: 0x301E4, symSize: 0x4C }
  - { offset: 0x14EDA7, size: 0x8, addend: 0x0, symName: ___cxx_global_var_init.8, symObjAddr: 0x12864, symBinAddr: 0x30230, symSize: 0x4C }
  - { offset: 0x14F202, size: 0x8, addend: 0x0, symName: __ZN6sentry18SentryLoggerLimits13_bind_methodsEv, symObjAddr: 0x0, symBinAddr: 0x21F78, symSize: 0xB50 }
  - { offset: 0x150C71, size: 0x8, addend: 0x0, symName: __ZN6sentry18SentryLoggerLimits13_bind_methodsEv.cold.1, symObjAddr: 0x10460, symBinAddr: 0xF1064, symSize: 0x5C }
  - { offset: 0x150C9F, size: 0x8, addend: 0x0, symName: __ZN6sentry18SentryLoggerLimits13_bind_methodsEv.cold.2, symObjAddr: 0x104BC, symBinAddr: 0xF10C0, symSize: 0x58 }
  - { offset: 0x150CCD, size: 0x8, addend: 0x0, symName: __ZN6sentry18SentryLoggerLimits13_bind_methodsEv.cold.3, symObjAddr: 0x10514, symBinAddr: 0xF1118, symSize: 0x58 }
  - { offset: 0x150CFB, size: 0x8, addend: 0x0, symName: __ZN6sentry18SentryLoggerLimits13_bind_methodsEv.cold.4, symObjAddr: 0x1056C, symBinAddr: 0xF1170, symSize: 0x58 }
  - { offset: 0x150E71, size: 0x8, addend: 0x0, symName: __ZN6sentry13SentryOptions15set_enable_logsEb, symObjAddr: 0xC00, symBinAddr: 0x22B78, symSize: 0x8 }
  - { offset: 0x150E97, size: 0x8, addend: 0x0, symName: __ZN5godot3RefIN6sentry13SentryOptionsEED1Ev, symObjAddr: 0xC08, symBinAddr: 0x22B80, symSize: 0x4C }
  - { offset: 0x150F2F, size: 0x8, addend: 0x0, symName: __ZN6sentry18SentryExperimental15get_enable_logsEv, symObjAddr: 0xC54, symBinAddr: 0x22BCC, symSize: 0x54 }
  - { offset: 0x15102B, size: 0x8, addend: 0x0, symName: __ZNK6sentry13SentryOptions15get_enable_logsEv, symObjAddr: 0xCA8, symBinAddr: 0x22C20, symSize: 0x8 }
  - { offset: 0x15106E, size: 0x8, addend: 0x0, symName: __ZN6sentry13SentryOptions19set_before_send_logERKN5godot8CallableE, symObjAddr: 0xD80, symBinAddr: 0x22CF8, symSize: 0x8 }
  - { offset: 0x1510AD, size: 0x8, addend: 0x0, symName: __ZN6sentry18SentryExperimental19get_before_send_logEv, symObjAddr: 0xD88, symBinAddr: 0x22D00, symSize: 0x78 }
  - { offset: 0x1511A5, size: 0x8, addend: 0x0, symName: __ZNK6sentry13SentryOptions19get_before_send_logEv, symObjAddr: 0xE00, symBinAddr: 0x22D78, symSize: 0xC }
  - { offset: 0x1513E6, size: 0x8, addend: 0x0, symName: __ZN6sentry18SentryExperimental13_bind_methodsEv, symObjAddr: 0xE0C, symBinAddr: 0x22D84, symSize: 0x5E0 }
  - { offset: 0x152129, size: 0x8, addend: 0x0, symName: __ZN6sentry18SentryExperimental13_bind_methodsEv.cold.1, symObjAddr: 0x105C4, symBinAddr: 0xF11C8, symSize: 0x5C }
  - { offset: 0x152157, size: 0x8, addend: 0x0, symName: __ZN6sentry18SentryExperimental13_bind_methodsEv.cold.2, symObjAddr: 0x10620, symBinAddr: 0xF1224, symSize: 0x58 }
  - { offset: 0x152236, size: 0x8, addend: 0x0, symName: __ZN6sentry13SentryOptions24_define_project_settingsERKN5godot3RefIS0_EE, symObjAddr: 0x13EC, symBinAddr: 0x23364, symSize: 0xF60 }
  - { offset: 0x15325F, size: 0x8, addend: 0x0, symName: __ZN6sentry13SentryOptions24_define_project_settingsERKN5godot3RefIS0_EE.cold.2, symObjAddr: 0x10698, symBinAddr: 0xF129C, symSize: 0x20 }
  - { offset: 0x153277, size: 0x8, addend: 0x0, symName: __ZN6sentry13SentryOptions24_define_project_settingsERKN5godot3RefIS0_EE.cold.1, symObjAddr: 0x10678, symBinAddr: 0xF127C, symSize: 0x20 }
  - { offset: 0x1532B4, size: 0x8, addend: 0x0, symName: __ZNK5godot12PropertyInfocvNS_10DictionaryEEv, symObjAddr: 0x8908, symBinAddr: 0x2A880, symSize: 0x254 }
  - { offset: 0x153446, size: 0x8, addend: 0x0, symName: __ZN6sentry13SentryOptions22_load_project_settingsERKN5godot3RefIS0_EE, symObjAddr: 0x252C, symBinAddr: 0x244A4, symSize: 0xBA0 }
  - { offset: 0x153CF2, size: 0x8, addend: 0x0, symName: __ZN6sentry13SentryOptions11set_releaseERKN5godot6StringE, symObjAddr: 0x30CC, symBinAddr: 0x25044, symSize: 0x284 }
  - { offset: 0x153E00, size: 0x8, addend: 0x0, symName: __ZN6sentry13SentryOptions22_load_project_settingsERKN5godot3RefIS0_EE.cold.3, symObjAddr: 0x10708, symBinAddr: 0xF130C, symSize: 0x20 }
  - { offset: 0x153E18, size: 0x8, addend: 0x0, symName: __ZN6sentry13SentryOptions22_load_project_settingsERKN5godot3RefIS0_EE.cold.2, symObjAddr: 0x106E8, symBinAddr: 0xF12EC, symSize: 0x20 }
  - { offset: 0x153E30, size: 0x8, addend: 0x0, symName: __ZN6sentry13SentryOptions22_load_project_settingsERKN5godot3RefIS0_EE.cold.1, symObjAddr: 0x106B8, symBinAddr: 0xF12BC, symSize: 0x30 }
  - { offset: 0x153E5E, size: 0x8, addend: 0x0, symName: __ZN6sentry13SentryOptions11set_releaseERKN5godot6StringE.cold.1, symObjAddr: 0x10728, symBinAddr: 0xF132C, symSize: 0x20 }
  - { offset: 0x153E76, size: 0x8, addend: 0x0, symName: __ZN6sentry13SentryOptions18_init_debug_optionENS0_9DebugModeE, symObjAddr: 0x3350, symBinAddr: 0x252C8, symSize: 0x7C }
  - { offset: 0x153EAE, size: 0x8, addend: 0x0, symName: __ZN6sentry13SentryOptions18_init_debug_optionENS0_9DebugModeE.cold.1, symObjAddr: 0x10748, symBinAddr: 0xF134C, symSize: 0x20 }
  - { offset: 0x153F9B, size: 0x8, addend: 0x0, symName: __ZN6sentry13SentryOptionsC2Ev, symObjAddr: 0x83F8, symBinAddr: 0x2A370, symSize: 0x1AC }
  - { offset: 0x15418A, size: 0x8, addend: 0x0, symName: __ZN6sentry13SentryOptions16create_singletonEv.cold.1, symObjAddr: 0x10768, symBinAddr: 0xF136C, symSize: 0x5C }
  - { offset: 0x1541F7, size: 0x8, addend: 0x0, symName: __ZN6sentry13SentryOptionsC1Ev, symObjAddr: 0x34FC, symBinAddr: 0x25474, symSize: 0x4 }
  - { offset: 0x15421A, size: 0x8, addend: 0x0, symName: __ZN6sentry13SentryOptionsC1Ev, symObjAddr: 0x34FC, symBinAddr: 0x25474, symSize: 0x4 }
  - { offset: 0x15422D, size: 0x8, addend: 0x0, symName: __ZN6sentry13SentryOptions17destroy_singletonEv, symObjAddr: 0x3500, symBinAddr: 0x25478, symSize: 0x48 }
  - { offset: 0x15431E, size: 0x8, addend: 0x0, symName: __ZN6sentry13SentryOptions17set_logger_limitsERKN5godot3RefINS_18SentryLoggerLimitsEEE, symObjAddr: 0x3548, symBinAddr: 0x254C0, symSize: 0x80 }
  - { offset: 0x15440B, size: 0x8, addend: 0x0, symName: __ZN5godot3RefIN6sentry18SentryLoggerLimitsEE11instantiateEv, symObjAddr: 0x35C8, symBinAddr: 0x25540, symSize: 0x174 }
  - { offset: 0x154795, size: 0x8, addend: 0x0, symName: __ZN5godot3RefIN6sentry18SentryLoggerLimitsEE11instantiateEv.cold.1, symObjAddr: 0x107C4, symBinAddr: 0xF13C8, symSize: 0x5C }
  - { offset: 0x1548CD, size: 0x8, addend: 0x0, symName: __ZN6sentry13SentryOptions19add_event_processorERKN5godot3RefINS_20SentryEventProcessorEEE, symObjAddr: 0x373C, symBinAddr: 0x256B4, symSize: 0x7C }
  - { offset: 0x154A26, size: 0x8, addend: 0x0, symName: __ZN5godot6VectorINS_3RefIN6sentry20SentryEventProcessorEEEE9push_backES4_, symObjAddr: 0x37B8, symBinAddr: 0x25730, symSize: 0x114 }
  - { offset: 0x154C4B, size: 0x8, addend: 0x0, symName: __ZN6sentry13SentryOptions19add_event_processorERKN5godot3RefINS_20SentryEventProcessorEEE.cold.1, symObjAddr: 0x10820, symBinAddr: 0xF1424, symSize: 0x20 }
  - { offset: 0x154D5A, size: 0x8, addend: 0x0, symName: __ZN5godot7CowDataINS_3RefIN6sentry20SentryEventProcessorEEEE6resizeILb0EEENS_5ErrorEx, symObjAddr: 0xB5B4, symBinAddr: 0x2C484, symSize: 0x334 }
  - { offset: 0x1554C5, size: 0x8, addend: 0x0, symName: __ZN5godot7CowDataINS_3RefIN6sentry20SentryEventProcessorEEEE14_copy_on_writeEv, symObjAddr: 0xB984, symBinAddr: 0x2C854, symSize: 0x48 }
  - { offset: 0x15560D, size: 0x8, addend: 0x0, symName: __ZN5godot6VectorINS_3RefIN6sentry20SentryEventProcessorEEEE9push_backES4_.cold.2, symObjAddr: 0x10894, symBinAddr: 0xF1498, symSize: 0x20 }
  - { offset: 0x155625, size: 0x8, addend: 0x0, symName: __ZN5godot6VectorINS_3RefIN6sentry20SentryEventProcessorEEEE9push_backES4_.cold.1, symObjAddr: 0x10840, symBinAddr: 0xF1444, symSize: 0x54 }
  - { offset: 0x155733, size: 0x8, addend: 0x0, symName: __ZN6sentry13SentryOptions22remove_event_processorERKN5godot3RefINS_20SentryEventProcessorEEE, symObjAddr: 0x38CC, symBinAddr: 0x25844, symSize: 0x60 }
  - { offset: 0x15587E, size: 0x8, addend: 0x0, symName: __ZN5godot6VectorINS_3RefIN6sentry20SentryEventProcessorEEEE9remove_atEx, symObjAddr: 0xB9CC, symBinAddr: 0x2C89C, symSize: 0x104 }
  - { offset: 0x155A04, size: 0x8, addend: 0x0, symName: __ZN6sentry13SentryOptions22remove_event_processorERKN5godot3RefINS_20SentryEventProcessorEEE.cold.1, symObjAddr: 0x108B4, symBinAddr: 0xF14B8, symSize: 0x20 }
  - { offset: 0x156302, size: 0x8, addend: 0x0, symName: __ZN6sentry13SentryOptions13_bind_methodsEv, symObjAddr: 0x392C, symBinAddr: 0x258A4, symSize: 0x4ACC }
  - { offset: 0x161442, size: 0x8, addend: 0x0, symName: __ZN5godot11GetTypeInfoINS_8BitFieldIN6sentry14GodotErrorMaskEEEvE14get_class_infoEv, symObjAddr: 0xED9C, symBinAddr: 0x2E9D4, symSize: 0x124 }
  - { offset: 0x1614E9, size: 0x8, addend: 0x0, symName: __ZN6sentry13SentryOptions13_bind_methodsEv.cold.1, symObjAddr: 0x108D4, symBinAddr: 0xF14D8, symSize: 0x5C }
  - { offset: 0x161517, size: 0x8, addend: 0x0, symName: __ZN6sentry13SentryOptions13_bind_methodsEv.cold.2, symObjAddr: 0x10930, symBinAddr: 0xF1534, symSize: 0x58 }
  - { offset: 0x161545, size: 0x8, addend: 0x0, symName: __ZN6sentry13SentryOptions13_bind_methodsEv.cold.3, symObjAddr: 0x10988, symBinAddr: 0xF158C, symSize: 0x58 }
  - { offset: 0x161573, size: 0x8, addend: 0x0, symName: __ZN6sentry13SentryOptions13_bind_methodsEv.cold.4, symObjAddr: 0x109E0, symBinAddr: 0xF15E4, symSize: 0x58 }
  - { offset: 0x1615A1, size: 0x8, addend: 0x0, symName: __ZN6sentry13SentryOptions13_bind_methodsEv.cold.5, symObjAddr: 0x10A38, symBinAddr: 0xF163C, symSize: 0x58 }
  - { offset: 0x1615CF, size: 0x8, addend: 0x0, symName: __ZN6sentry13SentryOptions13_bind_methodsEv.cold.6, symObjAddr: 0x10A90, symBinAddr: 0xF1694, symSize: 0x58 }
  - { offset: 0x1615FD, size: 0x8, addend: 0x0, symName: __ZN6sentry13SentryOptions13_bind_methodsEv.cold.7, symObjAddr: 0x10AE8, symBinAddr: 0xF16EC, symSize: 0x58 }
  - { offset: 0x16162B, size: 0x8, addend: 0x0, symName: __ZN6sentry13SentryOptions13_bind_methodsEv.cold.8, symObjAddr: 0x10B40, symBinAddr: 0xF1744, symSize: 0x58 }
  - { offset: 0x161659, size: 0x8, addend: 0x0, symName: __ZN6sentry13SentryOptions13_bind_methodsEv.cold.9, symObjAddr: 0x10B98, symBinAddr: 0xF179C, symSize: 0x58 }
  - { offset: 0x161687, size: 0x8, addend: 0x0, symName: __ZN6sentry13SentryOptions13_bind_methodsEv.cold.10, symObjAddr: 0x10BF0, symBinAddr: 0xF17F4, symSize: 0x58 }
  - { offset: 0x1616B5, size: 0x8, addend: 0x0, symName: __ZN6sentry13SentryOptions13_bind_methodsEv.cold.11, symObjAddr: 0x10C48, symBinAddr: 0xF184C, symSize: 0x58 }
  - { offset: 0x1616E3, size: 0x8, addend: 0x0, symName: __ZN6sentry13SentryOptions13_bind_methodsEv.cold.12, symObjAddr: 0x10CA0, symBinAddr: 0xF18A4, symSize: 0x58 }
  - { offset: 0x161711, size: 0x8, addend: 0x0, symName: __ZN6sentry13SentryOptions13_bind_methodsEv.cold.13, symObjAddr: 0x10CF8, symBinAddr: 0xF18FC, symSize: 0x58 }
  - { offset: 0x16173F, size: 0x8, addend: 0x0, symName: __ZN6sentry13SentryOptions13_bind_methodsEv.cold.14, symObjAddr: 0x10D50, symBinAddr: 0xF1954, symSize: 0x58 }
  - { offset: 0x16176D, size: 0x8, addend: 0x0, symName: __ZN6sentry13SentryOptions13_bind_methodsEv.cold.15, symObjAddr: 0x10DA8, symBinAddr: 0xF19AC, symSize: 0x58 }
  - { offset: 0x16179B, size: 0x8, addend: 0x0, symName: __ZN6sentry13SentryOptions13_bind_methodsEv.cold.16, symObjAddr: 0x10E00, symBinAddr: 0xF1A04, symSize: 0x58 }
  - { offset: 0x1617C9, size: 0x8, addend: 0x0, symName: __ZN6sentry13SentryOptions13_bind_methodsEv.cold.17, symObjAddr: 0x10E58, symBinAddr: 0xF1A5C, symSize: 0x58 }
  - { offset: 0x1617F7, size: 0x8, addend: 0x0, symName: __ZN6sentry13SentryOptions13_bind_methodsEv.cold.18, symObjAddr: 0x10EB0, symBinAddr: 0xF1AB4, symSize: 0x58 }
  - { offset: 0x161825, size: 0x8, addend: 0x0, symName: __ZN6sentry13SentryOptions13_bind_methodsEv.cold.19, symObjAddr: 0x10F08, symBinAddr: 0xF1B0C, symSize: 0x58 }
  - { offset: 0x161853, size: 0x8, addend: 0x0, symName: __ZN6sentry13SentryOptions13_bind_methodsEv.cold.20, symObjAddr: 0x10F60, symBinAddr: 0xF1B64, symSize: 0x58 }
  - { offset: 0x161881, size: 0x8, addend: 0x0, symName: __ZN6sentry13SentryOptions13_bind_methodsEv.cold.21, symObjAddr: 0x10FB8, symBinAddr: 0xF1BBC, symSize: 0x58 }
  - { offset: 0x1618B0, size: 0x8, addend: 0x0, symName: __ZN6sentry13SentryOptions13_bind_methodsEv.cold.22, symObjAddr: 0x11010, symBinAddr: 0xF1C14, symSize: 0x58 }
  - { offset: 0x1618DF, size: 0x8, addend: 0x0, symName: __ZN6sentry13SentryOptions13_bind_methodsEv.cold.23, symObjAddr: 0x11068, symBinAddr: 0xF1C6C, symSize: 0x58 }
  - { offset: 0x16190E, size: 0x8, addend: 0x0, symName: __ZN6sentry13SentryOptions13_bind_methodsEv.cold.24, symObjAddr: 0x110C0, symBinAddr: 0xF1CC4, symSize: 0x58 }
  - { offset: 0x16193D, size: 0x8, addend: 0x0, symName: __ZN6sentry13SentryOptions13_bind_methodsEv.cold.25, symObjAddr: 0x11118, symBinAddr: 0xF1D1C, symSize: 0x58 }
  - { offset: 0x16196C, size: 0x8, addend: 0x0, symName: __ZN6sentry13SentryOptions13_bind_methodsEv.cold.26, symObjAddr: 0x11170, symBinAddr: 0xF1D74, symSize: 0x58 }
  - { offset: 0x16199B, size: 0x8, addend: 0x0, symName: __ZN6sentry13SentryOptions13_bind_methodsEv.cold.27, symObjAddr: 0x111C8, symBinAddr: 0xF1DCC, symSize: 0x58 }
  - { offset: 0x1619CA, size: 0x8, addend: 0x0, symName: __ZN6sentry13SentryOptions13_bind_methodsEv.cold.28, symObjAddr: 0x11220, symBinAddr: 0xF1E24, symSize: 0x58 }
  - { offset: 0x1619F9, size: 0x8, addend: 0x0, symName: __ZN6sentry13SentryOptions13_bind_methodsEv.cold.29, symObjAddr: 0x11278, symBinAddr: 0xF1E7C, symSize: 0x58 }
  - { offset: 0x161A28, size: 0x8, addend: 0x0, symName: __ZN6sentry13SentryOptions13_bind_methodsEv.cold.30, symObjAddr: 0x112D0, symBinAddr: 0xF1ED4, symSize: 0x58 }
  - { offset: 0x161A57, size: 0x8, addend: 0x0, symName: __ZN6sentry13SentryOptions13_bind_methodsEv.cold.31, symObjAddr: 0x11328, symBinAddr: 0xF1F2C, symSize: 0x58 }
  - { offset: 0x161A86, size: 0x8, addend: 0x0, symName: __ZN6sentry13SentryOptions13_bind_methodsEv.cold.32, symObjAddr: 0x11380, symBinAddr: 0xF1F84, symSize: 0x58 }
  - { offset: 0x161BA9, size: 0x8, addend: 0x0, symName: __ZN5godot3RefIN6sentry18SentryExperimentalEE11instantiateEv, symObjAddr: 0x85A4, symBinAddr: 0x2A51C, symSize: 0x164 }
  - { offset: 0x161DD3, size: 0x8, addend: 0x0, symName: __ZN6sentry13SentryOptionsC2Ev.cold.1, symObjAddr: 0x113D8, symBinAddr: 0xF1FDC, symSize: 0x30 }
  - { offset: 0x161F35, size: 0x8, addend: 0x0, symName: __ZN5godot3RefIN6sentry18SentryExperimentalEE11instantiateEv.cold.1, symObjAddr: 0x11408, symBinAddr: 0xF200C, symSize: 0x5C }
  - { offset: 0x1621B1, size: 0x8, addend: 0x0, symName: __ZN6sentry13SentryOptionsD2Ev, symObjAddr: 0x8708, symBinAddr: 0x2A680, symSize: 0x1E0 }
  - { offset: 0x162682, size: 0x8, addend: 0x0, symName: __ZN6sentry13SentryOptionsD2Ev.cold.1, symObjAddr: 0x11464, symBinAddr: 0xF2068, symSize: 0x1C }
  - { offset: 0x16269E, size: 0x8, addend: 0x0, symName: __ZN6sentry13SentryOptionsD2Ev.cold.1, symObjAddr: 0x11464, symBinAddr: 0xF2068, symSize: 0x1C }
  - { offset: 0x1626B3, size: 0x8, addend: 0x0, symName: __ZN6sentry13SentryOptionsD2Ev.cold.1, symObjAddr: 0x11464, symBinAddr: 0xF2068, symSize: 0x1C }
  - { offset: 0x1626C7, size: 0x8, addend: 0x0, symName: __ZN6sentry13SentryOptionsD2Ev.cold.1, symObjAddr: 0x11464, symBinAddr: 0xF2068, symSize: 0x1C }
  - { offset: 0x1626DB, size: 0x8, addend: 0x0, symName: __ZN6sentry13SentryOptionsD2Ev.cold.1, symObjAddr: 0x11464, symBinAddr: 0xF2068, symSize: 0x1C }
  - { offset: 0x1626F0, size: 0x8, addend: 0x0, symName: __ZN6sentry13SentryOptionsD2Ev.cold.1, symObjAddr: 0x11464, symBinAddr: 0xF2068, symSize: 0x1C }
  - { offset: 0x162707, size: 0x8, addend: 0x0, symName: __ZN6sentry13SentryOptionsD1Ev, symObjAddr: 0x88E8, symBinAddr: 0x2A860, symSize: 0x4 }
  - { offset: 0x16272A, size: 0x8, addend: 0x0, symName: __ZN6sentry13SentryOptionsD1Ev, symObjAddr: 0x88E8, symBinAddr: 0x2A860, symSize: 0x4 }
  - { offset: 0x16275A, size: 0x8, addend: 0x0, symName: __ZN6sentry13SentryOptionsD0Ev, symObjAddr: 0x88EC, symBinAddr: 0x2A864, symSize: 0x14 }
  - { offset: 0x1627BA, size: 0x8, addend: 0x0, symName: __ZNK6sentry13SentryOptions19_is_extension_classEv, symObjAddr: 0x8900, symBinAddr: 0x2A878, symSize: 0x8 }
  - { offset: 0x162806, size: 0x8, addend: 0x0, symName: __ZN5godot10RefCountedD1Ev.cold.1, symObjAddr: 0x11480, symBinAddr: 0xF2084, symSize: 0x1C }
  - { offset: 0x162821, size: 0x8, addend: 0x0, symName: __ZN5godot10RefCountedD1Ev.cold.1, symObjAddr: 0x11480, symBinAddr: 0xF2084, symSize: 0x1C }
  - { offset: 0x162835, size: 0x8, addend: 0x0, symName: __ZN5godot10RefCountedD1Ev.cold.1, symObjAddr: 0x11480, symBinAddr: 0xF2084, symSize: 0x1C }
  - { offset: 0x162849, size: 0x8, addend: 0x0, symName: __ZN5godot10RefCountedD1Ev.cold.1, symObjAddr: 0x11480, symBinAddr: 0xF2084, symSize: 0x1C }
  - { offset: 0x16285D, size: 0x8, addend: 0x0, symName: __ZN5godot10RefCountedD1Ev.cold.1, symObjAddr: 0x11480, symBinAddr: 0xF2084, symSize: 0x1C }
  - { offset: 0x162872, size: 0x8, addend: 0x0, symName: __ZN5godot10RefCountedD1Ev.cold.1, symObjAddr: 0x11480, symBinAddr: 0xF2084, symSize: 0x1C }
  - { offset: 0x1628A5, size: 0x8, addend: 0x0, symName: __ZN5godot10RefCountedD0Ev.cold.1, symObjAddr: 0x1149C, symBinAddr: 0xF20A0, symSize: 0x1C }
  - { offset: 0x1628C0, size: 0x8, addend: 0x0, symName: __ZN5godot10RefCountedD0Ev.cold.1, symObjAddr: 0x1149C, symBinAddr: 0xF20A0, symSize: 0x1C }
  - { offset: 0x1628D4, size: 0x8, addend: 0x0, symName: __ZN5godot10RefCountedD0Ev.cold.1, symObjAddr: 0x1149C, symBinAddr: 0xF20A0, symSize: 0x1C }
  - { offset: 0x1628E8, size: 0x8, addend: 0x0, symName: __ZN5godot10RefCountedD0Ev.cold.1, symObjAddr: 0x1149C, symBinAddr: 0xF20A0, symSize: 0x1C }
  - { offset: 0x1628FC, size: 0x8, addend: 0x0, symName: __ZN5godot10RefCountedD0Ev.cold.1, symObjAddr: 0x1149C, symBinAddr: 0xF20A0, symSize: 0x1C }
  - { offset: 0x162910, size: 0x8, addend: 0x0, symName: __ZN5godot10RefCountedD0Ev.cold.1, symObjAddr: 0x1149C, symBinAddr: 0xF20A0, symSize: 0x1C }
  - { offset: 0x162925, size: 0x8, addend: 0x0, symName: __ZN5godot10RefCountedD0Ev.cold.1, symObjAddr: 0x1149C, symBinAddr: 0xF20A0, symSize: 0x1C }
  - { offset: 0x16293D, size: 0x8, addend: 0x0, symName: __ZN5godot6ObjectD1Ev.cold.1, symObjAddr: 0x114B8, symBinAddr: 0xF20BC, symSize: 0x1C }
  - { offset: 0x162958, size: 0x8, addend: 0x0, symName: __ZN5godot6ObjectD1Ev.cold.1, symObjAddr: 0x114B8, symBinAddr: 0xF20BC, symSize: 0x1C }
  - { offset: 0x16296C, size: 0x8, addend: 0x0, symName: __ZN5godot6ObjectD1Ev.cold.1, symObjAddr: 0x114B8, symBinAddr: 0xF20BC, symSize: 0x1C }
  - { offset: 0x162980, size: 0x8, addend: 0x0, symName: __ZN5godot6ObjectD1Ev.cold.1, symObjAddr: 0x114B8, symBinAddr: 0xF20BC, symSize: 0x1C }
  - { offset: 0x162995, size: 0x8, addend: 0x0, symName: __ZN5godot6ObjectD1Ev.cold.1, symObjAddr: 0x114B8, symBinAddr: 0xF20BC, symSize: 0x1C }
  - { offset: 0x1629C5, size: 0x8, addend: 0x0, symName: __ZN5godot6ObjectD0Ev.cold.1, symObjAddr: 0x114D4, symBinAddr: 0xF20D8, symSize: 0x1C }
  - { offset: 0x1629E0, size: 0x8, addend: 0x0, symName: __ZN5godot6ObjectD0Ev.cold.1, symObjAddr: 0x114D4, symBinAddr: 0xF20D8, symSize: 0x1C }
  - { offset: 0x1629F4, size: 0x8, addend: 0x0, symName: __ZN5godot6ObjectD0Ev.cold.1, symObjAddr: 0x114D4, symBinAddr: 0xF20D8, symSize: 0x1C }
  - { offset: 0x162A08, size: 0x8, addend: 0x0, symName: __ZN5godot6ObjectD0Ev.cold.1, symObjAddr: 0x114D4, symBinAddr: 0xF20D8, symSize: 0x1C }
  - { offset: 0x162A1C, size: 0x8, addend: 0x0, symName: __ZN5godot6ObjectD0Ev.cold.1, symObjAddr: 0x114D4, symBinAddr: 0xF20D8, symSize: 0x1C }
  - { offset: 0x162A31, size: 0x8, addend: 0x0, symName: __ZN5godot6ObjectD0Ev.cold.1, symObjAddr: 0x114D4, symBinAddr: 0xF20D8, symSize: 0x1C }
  - { offset: 0x162A48, size: 0x8, addend: 0x0, symName: __ZN5godot7WrappedD1Ev.cold.1, symObjAddr: 0x114F0, symBinAddr: 0xF20F4, symSize: 0x1C }
  - { offset: 0x162A63, size: 0x8, addend: 0x0, symName: __ZN5godot7WrappedD1Ev.cold.1, symObjAddr: 0x114F0, symBinAddr: 0xF20F4, symSize: 0x1C }
  - { offset: 0x162A77, size: 0x8, addend: 0x0, symName: __ZN5godot7WrappedD1Ev.cold.1, symObjAddr: 0x114F0, symBinAddr: 0xF20F4, symSize: 0x1C }
  - { offset: 0x162A8C, size: 0x8, addend: 0x0, symName: __ZN5godot7WrappedD1Ev.cold.1, symObjAddr: 0x114F0, symBinAddr: 0xF20F4, symSize: 0x1C }
  - { offset: 0x162ABB, size: 0x8, addend: 0x0, symName: __ZN5godot7WrappedD0Ev.cold.1, symObjAddr: 0x1150C, symBinAddr: 0xF2110, symSize: 0x1C }
  - { offset: 0x162AD6, size: 0x8, addend: 0x0, symName: __ZN5godot7WrappedD0Ev.cold.1, symObjAddr: 0x1150C, symBinAddr: 0xF2110, symSize: 0x1C }
  - { offset: 0x162AEA, size: 0x8, addend: 0x0, symName: __ZN5godot7WrappedD0Ev.cold.1, symObjAddr: 0x1150C, symBinAddr: 0xF2110, symSize: 0x1C }
  - { offset: 0x162AFE, size: 0x8, addend: 0x0, symName: __ZN5godot7WrappedD0Ev.cold.1, symObjAddr: 0x1150C, symBinAddr: 0xF2110, symSize: 0x1C }
  - { offset: 0x162B13, size: 0x8, addend: 0x0, symName: __ZN5godot7WrappedD0Ev.cold.1, symObjAddr: 0x1150C, symBinAddr: 0xF2110, symSize: 0x1C }
  - { offset: 0x162B61, size: 0x8, addend: 0x0, symName: __ZN5godot4ListINS_12PropertyInfoENS_16DefaultAllocatorEE5_Data5eraseEPNS3_7ElementE.cold.2, symObjAddr: 0x11548, symBinAddr: 0xF214C, symSize: 0x20 }
  - { offset: 0x162B79, size: 0x8, addend: 0x0, symName: __ZN5godot4ListINS_12PropertyInfoENS_16DefaultAllocatorEE5_Data5eraseEPNS3_7ElementE.cold.1, symObjAddr: 0x11528, symBinAddr: 0xF212C, symSize: 0x20 }
  - { offset: 0x162B98, size: 0x8, addend: 0x0, symName: __ZN5godot8internal23EngineClassRegistrationINS_6ObjectEE8callbackEv.cold.1, symObjAddr: 0x11568, symBinAddr: 0xF216C, symSize: 0x5C }
  - { offset: 0x162BCD, size: 0x8, addend: 0x0, symName: __ZN5godot8internal23EngineClassRegistrationINS_16ClassDBSingletonEE8callbackEv.cold.1, symObjAddr: 0x115C4, symBinAddr: 0xF21C8, symSize: 0x5C }
  - { offset: 0x162C02, size: 0x8, addend: 0x0, symName: __ZN5godot8internal23EngineClassRegistrationINS_10RefCountedEE8callbackEv.cold.1, symObjAddr: 0x11620, symBinAddr: 0xF2224, symSize: 0x5C }
  - { offset: 0x162C37, size: 0x8, addend: 0x0, symName: __ZN5godot8internal23EngineClassRegistrationINS_6LoggerEE8callbackEv.cold.1, symObjAddr: 0x1167C, symBinAddr: 0xF2280, symSize: 0x5C }
  - { offset: 0x162C6C, size: 0x8, addend: 0x0, symName: __ZN5godot8internal23EngineClassRegistrationINS_15ScriptBacktraceEE8callbackEv.cold.1, symObjAddr: 0x116D8, symBinAddr: 0xF22DC, symSize: 0x5C }
  - { offset: 0x162CB6, size: 0x8, addend: 0x0, symName: __ZN5godot15ScriptBacktraceD1Ev.cold.1, symObjAddr: 0x11734, symBinAddr: 0xF2338, symSize: 0x1C }
  - { offset: 0x162CD1, size: 0x8, addend: 0x0, symName: __ZN5godot15ScriptBacktraceD1Ev.cold.1, symObjAddr: 0x11734, symBinAddr: 0xF2338, symSize: 0x1C }
  - { offset: 0x162CE5, size: 0x8, addend: 0x0, symName: __ZN5godot15ScriptBacktraceD1Ev.cold.1, symObjAddr: 0x11734, symBinAddr: 0xF2338, symSize: 0x1C }
  - { offset: 0x162CF9, size: 0x8, addend: 0x0, symName: __ZN5godot15ScriptBacktraceD1Ev.cold.1, symObjAddr: 0x11734, symBinAddr: 0xF2338, symSize: 0x1C }
  - { offset: 0x162D0D, size: 0x8, addend: 0x0, symName: __ZN5godot15ScriptBacktraceD1Ev.cold.1, symObjAddr: 0x11734, symBinAddr: 0xF2338, symSize: 0x1C }
  - { offset: 0x162D21, size: 0x8, addend: 0x0, symName: __ZN5godot15ScriptBacktraceD1Ev.cold.1, symObjAddr: 0x11734, symBinAddr: 0xF2338, symSize: 0x1C }
  - { offset: 0x162D36, size: 0x8, addend: 0x0, symName: __ZN5godot15ScriptBacktraceD1Ev.cold.1, symObjAddr: 0x11734, symBinAddr: 0xF2338, symSize: 0x1C }
  - { offset: 0x162D6A, size: 0x8, addend: 0x0, symName: __ZN5godot15ScriptBacktraceD0Ev.cold.1, symObjAddr: 0x11750, symBinAddr: 0xF2354, symSize: 0x1C }
  - { offset: 0x162D85, size: 0x8, addend: 0x0, symName: __ZN5godot15ScriptBacktraceD0Ev.cold.1, symObjAddr: 0x11750, symBinAddr: 0xF2354, symSize: 0x1C }
  - { offset: 0x162D99, size: 0x8, addend: 0x0, symName: __ZN5godot15ScriptBacktraceD0Ev.cold.1, symObjAddr: 0x11750, symBinAddr: 0xF2354, symSize: 0x1C }
  - { offset: 0x162DAD, size: 0x8, addend: 0x0, symName: __ZN5godot15ScriptBacktraceD0Ev.cold.1, symObjAddr: 0x11750, symBinAddr: 0xF2354, symSize: 0x1C }
  - { offset: 0x162DC1, size: 0x8, addend: 0x0, symName: __ZN5godot15ScriptBacktraceD0Ev.cold.1, symObjAddr: 0x11750, symBinAddr: 0xF2354, symSize: 0x1C }
  - { offset: 0x162DD5, size: 0x8, addend: 0x0, symName: __ZN5godot15ScriptBacktraceD0Ev.cold.1, symObjAddr: 0x11750, symBinAddr: 0xF2354, symSize: 0x1C }
  - { offset: 0x162DE9, size: 0x8, addend: 0x0, symName: __ZN5godot15ScriptBacktraceD0Ev.cold.1, symObjAddr: 0x11750, symBinAddr: 0xF2354, symSize: 0x1C }
  - { offset: 0x162DFE, size: 0x8, addend: 0x0, symName: __ZN5godot15ScriptBacktraceD0Ev.cold.1, symObjAddr: 0x11750, symBinAddr: 0xF2354, symSize: 0x1C }
  - { offset: 0x162E1E, size: 0x8, addend: 0x0, symName: __ZN5godot8internal23EngineClassRegistrationINS_10ConfigFileEE8callbackEv.cold.1, symObjAddr: 0x1176C, symBinAddr: 0xF2370, symSize: 0x5C }
  - { offset: 0x162E68, size: 0x8, addend: 0x0, symName: __ZN5godot10ConfigFileD1Ev.cold.1, symObjAddr: 0x117C8, symBinAddr: 0xF23CC, symSize: 0x1C }
  - { offset: 0x162E83, size: 0x8, addend: 0x0, symName: __ZN5godot10ConfigFileD1Ev.cold.1, symObjAddr: 0x117C8, symBinAddr: 0xF23CC, symSize: 0x1C }
  - { offset: 0x162E97, size: 0x8, addend: 0x0, symName: __ZN5godot10ConfigFileD1Ev.cold.1, symObjAddr: 0x117C8, symBinAddr: 0xF23CC, symSize: 0x1C }
  - { offset: 0x162EAB, size: 0x8, addend: 0x0, symName: __ZN5godot10ConfigFileD1Ev.cold.1, symObjAddr: 0x117C8, symBinAddr: 0xF23CC, symSize: 0x1C }
  - { offset: 0x162EBF, size: 0x8, addend: 0x0, symName: __ZN5godot10ConfigFileD1Ev.cold.1, symObjAddr: 0x117C8, symBinAddr: 0xF23CC, symSize: 0x1C }
  - { offset: 0x162ED3, size: 0x8, addend: 0x0, symName: __ZN5godot10ConfigFileD1Ev.cold.1, symObjAddr: 0x117C8, symBinAddr: 0xF23CC, symSize: 0x1C }
  - { offset: 0x162EE8, size: 0x8, addend: 0x0, symName: __ZN5godot10ConfigFileD1Ev.cold.1, symObjAddr: 0x117C8, symBinAddr: 0xF23CC, symSize: 0x1C }
  - { offset: 0x162F1C, size: 0x8, addend: 0x0, symName: __ZN5godot10ConfigFileD0Ev.cold.1, symObjAddr: 0x117E4, symBinAddr: 0xF23E8, symSize: 0x1C }
  - { offset: 0x162F37, size: 0x8, addend: 0x0, symName: __ZN5godot10ConfigFileD0Ev.cold.1, symObjAddr: 0x117E4, symBinAddr: 0xF23E8, symSize: 0x1C }
  - { offset: 0x162F4B, size: 0x8, addend: 0x0, symName: __ZN5godot10ConfigFileD0Ev.cold.1, symObjAddr: 0x117E4, symBinAddr: 0xF23E8, symSize: 0x1C }
  - { offset: 0x162F5F, size: 0x8, addend: 0x0, symName: __ZN5godot10ConfigFileD0Ev.cold.1, symObjAddr: 0x117E4, symBinAddr: 0xF23E8, symSize: 0x1C }
  - { offset: 0x162F73, size: 0x8, addend: 0x0, symName: __ZN5godot10ConfigFileD0Ev.cold.1, symObjAddr: 0x117E4, symBinAddr: 0xF23E8, symSize: 0x1C }
  - { offset: 0x162F87, size: 0x8, addend: 0x0, symName: __ZN5godot10ConfigFileD0Ev.cold.1, symObjAddr: 0x117E4, symBinAddr: 0xF23E8, symSize: 0x1C }
  - { offset: 0x162F9B, size: 0x8, addend: 0x0, symName: __ZN5godot10ConfigFileD0Ev.cold.1, symObjAddr: 0x117E4, symBinAddr: 0xF23E8, symSize: 0x1C }
  - { offset: 0x162FB0, size: 0x8, addend: 0x0, symName: __ZN5godot10ConfigFileD0Ev.cold.1, symObjAddr: 0x117E4, symBinAddr: 0xF23E8, symSize: 0x1C }
  - { offset: 0x162FD0, size: 0x8, addend: 0x0, symName: __ZN5godot8internal23EngineClassRegistrationINS_5MutexEE8callbackEv.cold.1, symObjAddr: 0x11800, symBinAddr: 0xF2404, symSize: 0x5C }
  - { offset: 0x16301A, size: 0x8, addend: 0x0, symName: __ZN5godot5MutexD1Ev.cold.1, symObjAddr: 0x1185C, symBinAddr: 0xF2460, symSize: 0x1C }
  - { offset: 0x163035, size: 0x8, addend: 0x0, symName: __ZN5godot5MutexD1Ev.cold.1, symObjAddr: 0x1185C, symBinAddr: 0xF2460, symSize: 0x1C }
  - { offset: 0x163049, size: 0x8, addend: 0x0, symName: __ZN5godot5MutexD1Ev.cold.1, symObjAddr: 0x1185C, symBinAddr: 0xF2460, symSize: 0x1C }
  - { offset: 0x16305D, size: 0x8, addend: 0x0, symName: __ZN5godot5MutexD1Ev.cold.1, symObjAddr: 0x1185C, symBinAddr: 0xF2460, symSize: 0x1C }
  - { offset: 0x163071, size: 0x8, addend: 0x0, symName: __ZN5godot5MutexD1Ev.cold.1, symObjAddr: 0x1185C, symBinAddr: 0xF2460, symSize: 0x1C }
  - { offset: 0x163085, size: 0x8, addend: 0x0, symName: __ZN5godot5MutexD1Ev.cold.1, symObjAddr: 0x1185C, symBinAddr: 0xF2460, symSize: 0x1C }
  - { offset: 0x16309A, size: 0x8, addend: 0x0, symName: __ZN5godot5MutexD1Ev.cold.1, symObjAddr: 0x1185C, symBinAddr: 0xF2460, symSize: 0x1C }
  - { offset: 0x1630CE, size: 0x8, addend: 0x0, symName: __ZN5godot5MutexD0Ev.cold.1, symObjAddr: 0x11878, symBinAddr: 0xF247C, symSize: 0x1C }
  - { offset: 0x1630E9, size: 0x8, addend: 0x0, symName: __ZN5godot5MutexD0Ev.cold.1, symObjAddr: 0x11878, symBinAddr: 0xF247C, symSize: 0x1C }
  - { offset: 0x1630FD, size: 0x8, addend: 0x0, symName: __ZN5godot5MutexD0Ev.cold.1, symObjAddr: 0x11878, symBinAddr: 0xF247C, symSize: 0x1C }
  - { offset: 0x163111, size: 0x8, addend: 0x0, symName: __ZN5godot5MutexD0Ev.cold.1, symObjAddr: 0x11878, symBinAddr: 0xF247C, symSize: 0x1C }
  - { offset: 0x163125, size: 0x8, addend: 0x0, symName: __ZN5godot5MutexD0Ev.cold.1, symObjAddr: 0x11878, symBinAddr: 0xF247C, symSize: 0x1C }
  - { offset: 0x163139, size: 0x8, addend: 0x0, symName: __ZN5godot5MutexD0Ev.cold.1, symObjAddr: 0x11878, symBinAddr: 0xF247C, symSize: 0x1C }
  - { offset: 0x16314D, size: 0x8, addend: 0x0, symName: __ZN5godot5MutexD0Ev.cold.1, symObjAddr: 0x11878, symBinAddr: 0xF247C, symSize: 0x1C }
  - { offset: 0x163162, size: 0x8, addend: 0x0, symName: __ZN5godot5MutexD0Ev.cold.1, symObjAddr: 0x11878, symBinAddr: 0xF247C, symSize: 0x1C }
  - { offset: 0x163182, size: 0x8, addend: 0x0, symName: __ZN5godot8internal23EngineClassRegistrationINS_2OSEE8callbackEv.cold.1, symObjAddr: 0x11894, symBinAddr: 0xF2498, symSize: 0x5C }
  - { offset: 0x1631B7, size: 0x8, addend: 0x0, symName: __ZN5godot8internal23EngineClassRegistrationINS_15ProjectSettingsEE8callbackEv.cold.1, symObjAddr: 0x118F0, symBinAddr: 0xF24F4, symSize: 0x5C }
  - { offset: 0x1631E5, size: 0x8, addend: 0x0, symName: __ZN6sentry18SentryLoggerLimits20set_events_per_frameEi, symObjAddr: 0x9960, symBinAddr: 0x2AAD4, symSize: 0x8 }
  - { offset: 0x163218, size: 0x8, addend: 0x0, symName: __ZN6sentry18SentryLoggerLimits20get_events_per_frameEv, symObjAddr: 0x9968, symBinAddr: 0x2AADC, symSize: 0x8 }
  - { offset: 0x163338, size: 0x8, addend: 0x0, symName: __ZN5godot18create_method_bindIN6sentry18SentryLoggerLimitsEJiEEEPNS_10MethodBindEMT_FvDpT0_E.cold.1, symObjAddr: 0x1194C, symBinAddr: 0xF2550, symSize: 0x5C }
  - { offset: 0x163367, size: 0x8, addend: 0x0, symName: __ZNK5godot11MethodBindTIJiEE17gen_argument_typeEi, symObjAddr: 0x9A84, symBinAddr: 0x2ABF8, symSize: 0x10 }
  - { offset: 0x1633FF, size: 0x8, addend: 0x0, symName: __ZNK5godot11MethodBindTIJiEE22gen_argument_type_infoEi, symObjAddr: 0x9A94, symBinAddr: 0x2AC08, symSize: 0x138 }
  - { offset: 0x163542, size: 0x8, addend: 0x0, symName: __ZNK5godot11MethodBindTIJiEE21get_argument_metadataEi, symObjAddr: 0x9BCC, symBinAddr: 0x2AD40, symSize: 0x10 }
  - { offset: 0x1635EB, size: 0x8, addend: 0x0, symName: __ZNK5godot11MethodBindTIJiEE4callEPvPKPKvxR20GDExtensionCallError, symObjAddr: 0x9BDC, symBinAddr: 0x2AD50, symSize: 0x40 }
  - { offset: 0x1636AB, size: 0x8, addend: 0x0, symName: __ZNK5godot11MethodBindTIJiEE7ptrcallEPvPKPKvS2_, symObjAddr: 0x9C1C, symBinAddr: 0x2AD90, symSize: 0x20 }
  - { offset: 0x163796, size: 0x8, addend: 0x0, symName: __ZN5godot11MethodBindTIJiEED1Ev, symObjAddr: 0x9C3C, symBinAddr: 0x2ADB0, symSize: 0x4 }
  - { offset: 0x1637B9, size: 0x8, addend: 0x0, symName: __ZN5godot11MethodBindTIJiEED1Ev, symObjAddr: 0x9C3C, symBinAddr: 0x2ADB0, symSize: 0x4 }
  - { offset: 0x1637F1, size: 0x8, addend: 0x0, symName: __ZN5godot11MethodBindTIJiEED0Ev, symObjAddr: 0x9C40, symBinAddr: 0x2ADB4, symSize: 0x14 }
  - { offset: 0x163913, size: 0x8, addend: 0x0, symName: __ZN5godot18create_method_bindIN6sentry18SentryLoggerLimitsEiJEEEPNS_10MethodBindEMT_FT0_DpT1_E.cold.1, symObjAddr: 0x119A8, symBinAddr: 0xF25AC, symSize: 0x5C }
  - { offset: 0x163942, size: 0x8, addend: 0x0, symName: __ZNK5godot12MethodBindTRIiJEE17gen_argument_typeEi, symObjAddr: 0xA010, symBinAddr: 0x2B010, symSize: 0x8 }
  - { offset: 0x163978, size: 0x8, addend: 0x0, symName: __ZNK5godot12MethodBindTRIiJEE22gen_argument_type_infoEi, symObjAddr: 0xA018, symBinAddr: 0x2B018, symSize: 0xF8 }
  - { offset: 0x163A3B, size: 0x8, addend: 0x0, symName: __ZNK5godot12MethodBindTRIiJEE21get_argument_metadataEi, symObjAddr: 0xA110, symBinAddr: 0x2B110, symSize: 0xC }
  - { offset: 0x163AAA, size: 0x8, addend: 0x0, symName: __ZNK5godot12MethodBindTRIiJEE4callEPvPKPKvxR20GDExtensionCallError, symObjAddr: 0xA11C, symBinAddr: 0x2B11C, symSize: 0xC0 }
  - { offset: 0x163BEA, size: 0x8, addend: 0x0, symName: __ZNK5godot12MethodBindTRIiJEE7ptrcallEPvPKPKvS2_, symObjAddr: 0xA1DC, symBinAddr: 0x2B1DC, symSize: 0x3C }
  - { offset: 0x163CD7, size: 0x8, addend: 0x0, symName: __ZN5godot12MethodBindTRIiJEED1Ev, symObjAddr: 0xA218, symBinAddr: 0x2B218, symSize: 0x4 }
  - { offset: 0x163CFA, size: 0x8, addend: 0x0, symName: __ZN5godot12MethodBindTRIiJEED1Ev, symObjAddr: 0xA218, symBinAddr: 0x2B218, symSize: 0x4 }
  - { offset: 0x163D32, size: 0x8, addend: 0x0, symName: __ZN5godot12MethodBindTRIiJEED0Ev, symObjAddr: 0xA21C, symBinAddr: 0x2B21C, symSize: 0x14 }
  - { offset: 0x163D9A, size: 0x8, addend: 0x0, symName: __ZN6sentry18SentryLoggerLimits28set_repeated_error_window_msEi, symObjAddr: 0xA230, symBinAddr: 0x2B230, symSize: 0x8 }
  - { offset: 0x163DCD, size: 0x8, addend: 0x0, symName: __ZN6sentry18SentryLoggerLimits28get_repeated_error_window_msEv, symObjAddr: 0xA238, symBinAddr: 0x2B238, symSize: 0x8 }
  - { offset: 0x163DF4, size: 0x8, addend: 0x0, symName: __ZN6sentry18SentryLoggerLimits19set_throttle_eventsEi, symObjAddr: 0xA240, symBinAddr: 0x2B240, symSize: 0x8 }
  - { offset: 0x163E27, size: 0x8, addend: 0x0, symName: __ZN6sentry18SentryLoggerLimits19get_throttle_eventsEv, symObjAddr: 0xA248, symBinAddr: 0x2B248, symSize: 0x8 }
  - { offset: 0x163E4E, size: 0x8, addend: 0x0, symName: __ZN6sentry18SentryLoggerLimits22set_throttle_window_msEi, symObjAddr: 0xA250, symBinAddr: 0x2B250, symSize: 0x8 }
  - { offset: 0x163E81, size: 0x8, addend: 0x0, symName: __ZN6sentry18SentryLoggerLimits22get_throttle_window_msEv, symObjAddr: 0xA258, symBinAddr: 0x2B258, symSize: 0x8 }
  - { offset: 0x163F0A, size: 0x8, addend: 0x0, symName: __ZN5godot18create_method_bindIN6sentry18SentryExperimentalEJbEEEPNS_10MethodBindEMT_FvDpT0_E.cold.1, symObjAddr: 0x11A04, symBinAddr: 0xF2608, symSize: 0x5C }
  - { offset: 0x163F39, size: 0x8, addend: 0x0, symName: __ZNK5godot11MethodBindTIJbEE17gen_argument_typeEi, symObjAddr: 0xA374, symBinAddr: 0x2B374, symSize: 0xC }
  - { offset: 0x163F6F, size: 0x8, addend: 0x0, symName: __ZNK5godot11MethodBindTIJbEE22gen_argument_type_infoEi, symObjAddr: 0xA380, symBinAddr: 0x2B380, symSize: 0x138 }
  - { offset: 0x1640A8, size: 0x8, addend: 0x0, symName: __ZNK5godot11MethodBindTIJbEE21get_argument_metadataEi, symObjAddr: 0xA4B8, symBinAddr: 0x2B4B8, symSize: 0x8 }
  - { offset: 0x1640DE, size: 0x8, addend: 0x0, symName: __ZNK5godot11MethodBindTIJbEE4callEPvPKPKvxR20GDExtensionCallError, symObjAddr: 0xA4C0, symBinAddr: 0x2B4C0, symSize: 0x40 }
  - { offset: 0x16419E, size: 0x8, addend: 0x0, symName: __ZNK5godot11MethodBindTIJbEE7ptrcallEPvPKPKvS2_, symObjAddr: 0xA500, symBinAddr: 0x2B500, symSize: 0x28 }
  - { offset: 0x16428B, size: 0x8, addend: 0x0, symName: __ZN5godot11MethodBindTIJbEED1Ev, symObjAddr: 0xA528, symBinAddr: 0x2B528, symSize: 0x4 }
  - { offset: 0x1642AE, size: 0x8, addend: 0x0, symName: __ZN5godot11MethodBindTIJbEED1Ev, symObjAddr: 0xA528, symBinAddr: 0x2B528, symSize: 0x4 }
  - { offset: 0x1642E6, size: 0x8, addend: 0x0, symName: __ZN5godot11MethodBindTIJbEED0Ev, symObjAddr: 0xA52C, symBinAddr: 0x2B52C, symSize: 0x14 }
  - { offset: 0x1643CA, size: 0x8, addend: 0x0, symName: __ZN5godot18create_method_bindIN6sentry18SentryExperimentalEbJEEEPNS_10MethodBindEMT_FT0_DpT1_E.cold.1, symObjAddr: 0x11A60, symBinAddr: 0xF2664, symSize: 0x5C }
  - { offset: 0x1643F9, size: 0x8, addend: 0x0, symName: __ZNK5godot12MethodBindTRIbJEE17gen_argument_typeEi, symObjAddr: 0xA8FC, symBinAddr: 0x2B8FC, symSize: 0x8 }
  - { offset: 0x16442F, size: 0x8, addend: 0x0, symName: __ZNK5godot12MethodBindTRIbJEE22gen_argument_type_infoEi, symObjAddr: 0xA904, symBinAddr: 0x2B904, symSize: 0xF8 }
  - { offset: 0x1644F2, size: 0x8, addend: 0x0, symName: __ZNK5godot12MethodBindTRIbJEE21get_argument_metadataEi, symObjAddr: 0xA9FC, symBinAddr: 0x2B9FC, symSize: 0x8 }
  - { offset: 0x164528, size: 0x8, addend: 0x0, symName: __ZNK5godot12MethodBindTRIbJEE4callEPvPKPKvxR20GDExtensionCallError, symObjAddr: 0xAA04, symBinAddr: 0x2BA04, symSize: 0xC0 }
  - { offset: 0x16463F, size: 0x8, addend: 0x0, symName: __ZNK5godot12MethodBindTRIbJEE7ptrcallEPvPKPKvS2_, symObjAddr: 0xAAC4, symBinAddr: 0x2BAC4, symSize: 0x38 }
  - { offset: 0x164725, size: 0x8, addend: 0x0, symName: __ZN5godot12MethodBindTRIbJEED1Ev, symObjAddr: 0xAAFC, symBinAddr: 0x2BAFC, symSize: 0x4 }
  - { offset: 0x164748, size: 0x8, addend: 0x0, symName: __ZN5godot12MethodBindTRIbJEED1Ev, symObjAddr: 0xAAFC, symBinAddr: 0x2BAFC, symSize: 0x4 }
  - { offset: 0x164780, size: 0x8, addend: 0x0, symName: __ZN5godot12MethodBindTRIbJEED0Ev, symObjAddr: 0xAB00, symBinAddr: 0x2BB00, symSize: 0x14 }
  - { offset: 0x16484A, size: 0x8, addend: 0x0, symName: __ZN5godot18create_method_bindIN6sentry18SentryExperimentalEJNS_8CallableEEEEPNS_10MethodBindEMT_FvDpT0_E.cold.1, symObjAddr: 0x11ABC, symBinAddr: 0xF26C0, symSize: 0x5C }
  - { offset: 0x164879, size: 0x8, addend: 0x0, symName: __ZNK5godot11MethodBindTIJNS_8CallableEEE17gen_argument_typeEi, symObjAddr: 0xAC28, symBinAddr: 0x2BC28, symSize: 0x10 }
  - { offset: 0x1648AF, size: 0x8, addend: 0x0, symName: __ZNK5godot11MethodBindTIJNS_8CallableEEE22gen_argument_type_infoEi, symObjAddr: 0xAC38, symBinAddr: 0x2BC38, symSize: 0x138 }
  - { offset: 0x1649E8, size: 0x8, addend: 0x0, symName: __ZNK5godot11MethodBindTIJNS_8CallableEEE21get_argument_metadataEi, symObjAddr: 0xAD70, symBinAddr: 0x2BD70, symSize: 0x8 }
  - { offset: 0x164A1E, size: 0x8, addend: 0x0, symName: __ZNK5godot11MethodBindTIJNS_8CallableEEE4callEPvPKPKvxR20GDExtensionCallError, symObjAddr: 0xAD78, symBinAddr: 0x2BD78, symSize: 0x40 }
  - { offset: 0x164ADE, size: 0x8, addend: 0x0, symName: __ZNK5godot11MethodBindTIJNS_8CallableEEE7ptrcallEPvPKPKvS3_, symObjAddr: 0xADB8, symBinAddr: 0x2BDB8, symSize: 0x80 }
  - { offset: 0x164BD7, size: 0x8, addend: 0x0, symName: __ZN5godot11MethodBindTIJNS_8CallableEEED1Ev, symObjAddr: 0xAE38, symBinAddr: 0x2BE38, symSize: 0x4 }
  - { offset: 0x164BFA, size: 0x8, addend: 0x0, symName: __ZN5godot11MethodBindTIJNS_8CallableEEED1Ev, symObjAddr: 0xAE38, symBinAddr: 0x2BE38, symSize: 0x4 }
  - { offset: 0x164C32, size: 0x8, addend: 0x0, symName: __ZN5godot11MethodBindTIJNS_8CallableEEED0Ev, symObjAddr: 0xAE3C, symBinAddr: 0x2BE3C, symSize: 0x14 }
  - { offset: 0x164D16, size: 0x8, addend: 0x0, symName: __ZN5godot18create_method_bindIN6sentry18SentryExperimentalENS_8CallableEJEEEPNS_10MethodBindEMT_FT0_DpT1_E.cold.1, symObjAddr: 0x11B18, symBinAddr: 0xF271C, symSize: 0x5C }
  - { offset: 0x164D45, size: 0x8, addend: 0x0, symName: __ZNK5godot12MethodBindTRINS_8CallableEJEE17gen_argument_typeEi, symObjAddr: 0xB218, symBinAddr: 0x2C218, symSize: 0x8 }
  - { offset: 0x164D7B, size: 0x8, addend: 0x0, symName: __ZNK5godot12MethodBindTRINS_8CallableEJEE22gen_argument_type_infoEi, symObjAddr: 0xB220, symBinAddr: 0x2C220, symSize: 0xF8 }
  - { offset: 0x164E3E, size: 0x8, addend: 0x0, symName: __ZNK5godot12MethodBindTRINS_8CallableEJEE21get_argument_metadataEi, symObjAddr: 0xB318, symBinAddr: 0x2C318, symSize: 0x8 }
  - { offset: 0x164E74, size: 0x8, addend: 0x0, symName: __ZNK5godot12MethodBindTRINS_8CallableEJEE4callEPvPKPKvxR20GDExtensionCallError, symObjAddr: 0xB320, symBinAddr: 0x2C320, symSize: 0xCC }
  - { offset: 0x164F91, size: 0x8, addend: 0x0, symName: __ZNK5godot12MethodBindTRINS_8CallableEJEE7ptrcallEPvPKPKvS3_, symObjAddr: 0xB3EC, symBinAddr: 0x2C3EC, symSize: 0x80 }
  - { offset: 0x165085, size: 0x8, addend: 0x0, symName: __ZN5godot12MethodBindTRINS_8CallableEJEED1Ev, symObjAddr: 0xB46C, symBinAddr: 0x2C46C, symSize: 0x4 }
  - { offset: 0x1650A8, size: 0x8, addend: 0x0, symName: __ZN5godot12MethodBindTRINS_8CallableEJEED1Ev, symObjAddr: 0xB46C, symBinAddr: 0x2C46C, symSize: 0x4 }
  - { offset: 0x1650E0, size: 0x8, addend: 0x0, symName: __ZN5godot12MethodBindTRINS_8CallableEJEED0Ev, symObjAddr: 0xB470, symBinAddr: 0x2C470, symSize: 0x14 }
  - { offset: 0x165164, size: 0x8, addend: 0x0, symName: __ZN6sentry18SentryLoggerLimitsD1Ev.cold.1, symObjAddr: 0x11B74, symBinAddr: 0xF2778, symSize: 0x1C }
  - { offset: 0x16517F, size: 0x8, addend: 0x0, symName: __ZN6sentry18SentryLoggerLimitsD1Ev.cold.1, symObjAddr: 0x11B74, symBinAddr: 0xF2778, symSize: 0x1C }
  - { offset: 0x165193, size: 0x8, addend: 0x0, symName: __ZN6sentry18SentryLoggerLimitsD1Ev.cold.1, symObjAddr: 0x11B74, symBinAddr: 0xF2778, symSize: 0x1C }
  - { offset: 0x1651A7, size: 0x8, addend: 0x0, symName: __ZN6sentry18SentryLoggerLimitsD1Ev.cold.1, symObjAddr: 0x11B74, symBinAddr: 0xF2778, symSize: 0x1C }
  - { offset: 0x1651BB, size: 0x8, addend: 0x0, symName: __ZN6sentry18SentryLoggerLimitsD1Ev.cold.1, symObjAddr: 0x11B74, symBinAddr: 0xF2778, symSize: 0x1C }
  - { offset: 0x1651CF, size: 0x8, addend: 0x0, symName: __ZN6sentry18SentryLoggerLimitsD1Ev.cold.1, symObjAddr: 0x11B74, symBinAddr: 0xF2778, symSize: 0x1C }
  - { offset: 0x1651E4, size: 0x8, addend: 0x0, symName: __ZN6sentry18SentryLoggerLimitsD1Ev.cold.1, symObjAddr: 0x11B74, symBinAddr: 0xF2778, symSize: 0x1C }
  - { offset: 0x165218, size: 0x8, addend: 0x0, symName: __ZN6sentry18SentryLoggerLimitsD0Ev.cold.1, symObjAddr: 0x11B90, symBinAddr: 0xF2794, symSize: 0x1C }
  - { offset: 0x165233, size: 0x8, addend: 0x0, symName: __ZN6sentry18SentryLoggerLimitsD0Ev.cold.1, symObjAddr: 0x11B90, symBinAddr: 0xF2794, symSize: 0x1C }
  - { offset: 0x165247, size: 0x8, addend: 0x0, symName: __ZN6sentry18SentryLoggerLimitsD0Ev.cold.1, symObjAddr: 0x11B90, symBinAddr: 0xF2794, symSize: 0x1C }
  - { offset: 0x16525B, size: 0x8, addend: 0x0, symName: __ZN6sentry18SentryLoggerLimitsD0Ev.cold.1, symObjAddr: 0x11B90, symBinAddr: 0xF2794, symSize: 0x1C }
  - { offset: 0x16526F, size: 0x8, addend: 0x0, symName: __ZN6sentry18SentryLoggerLimitsD0Ev.cold.1, symObjAddr: 0x11B90, symBinAddr: 0xF2794, symSize: 0x1C }
  - { offset: 0x165283, size: 0x8, addend: 0x0, symName: __ZN6sentry18SentryLoggerLimitsD0Ev.cold.1, symObjAddr: 0x11B90, symBinAddr: 0xF2794, symSize: 0x1C }
  - { offset: 0x165297, size: 0x8, addend: 0x0, symName: __ZN6sentry18SentryLoggerLimitsD0Ev.cold.1, symObjAddr: 0x11B90, symBinAddr: 0xF2794, symSize: 0x1C }
  - { offset: 0x1652AC, size: 0x8, addend: 0x0, symName: __ZN6sentry18SentryLoggerLimitsD0Ev.cold.1, symObjAddr: 0x11B90, symBinAddr: 0xF2794, symSize: 0x1C }
  - { offset: 0x165452, size: 0x8, addend: 0x0, symName: __ZN5godot7CowDataINS_3RefIN6sentry20SentryEventProcessorEEEE6resizeILb0EEENS_5ErrorEx.cold.4, symObjAddr: 0x11C0C, symBinAddr: 0xF2810, symSize: 0x20 }
  - { offset: 0x16546A, size: 0x8, addend: 0x0, symName: __ZN5godot7CowDataINS_3RefIN6sentry20SentryEventProcessorEEEE6resizeILb0EEENS_5ErrorEx.cold.5, symObjAddr: 0x11C2C, symBinAddr: 0xF2830, symSize: 0x20 }
  - { offset: 0x165482, size: 0x8, addend: 0x0, symName: __ZN5godot7CowDataINS_3RefIN6sentry20SentryEventProcessorEEEE6resizeILb0EEENS_5ErrorEx.cold.2, symObjAddr: 0x11BCC, symBinAddr: 0xF27D0, symSize: 0x20 }
  - { offset: 0x16549E, size: 0x8, addend: 0x0, symName: __ZN5godot7CowDataINS_3RefIN6sentry20SentryEventProcessorEEEE6resizeILb0EEENS_5ErrorEx.cold.2, symObjAddr: 0x11BCC, symBinAddr: 0xF27D0, symSize: 0x20 }
  - { offset: 0x1654B1, size: 0x8, addend: 0x0, symName: __ZN5godot7CowDataINS_3RefIN6sentry20SentryEventProcessorEEEE6resizeILb0EEENS_5ErrorEx.cold.1, symObjAddr: 0x11BAC, symBinAddr: 0xF27B0, symSize: 0x20 }
  - { offset: 0x1654CD, size: 0x8, addend: 0x0, symName: __ZN5godot7CowDataINS_3RefIN6sentry20SentryEventProcessorEEEE6resizeILb0EEENS_5ErrorEx.cold.1, symObjAddr: 0x11BAC, symBinAddr: 0xF27B0, symSize: 0x20 }
  - { offset: 0x1654E0, size: 0x8, addend: 0x0, symName: __ZN5godot7CowDataINS_3RefIN6sentry20SentryEventProcessorEEEE6resizeILb0EEENS_5ErrorEx.cold.3, symObjAddr: 0x11BEC, symBinAddr: 0xF27F0, symSize: 0x20 }
  - { offset: 0x1654F8, size: 0x8, addend: 0x0, symName: __ZN5godot7CowDataINS_3RefIN6sentry20SentryEventProcessorEEEE6_unrefEv, symObjAddr: 0xB8E8, symBinAddr: 0x2C7B8, symSize: 0x9C }
  - { offset: 0x16569C, size: 0x8, addend: 0x0, symName: __ZN5godot7CowDataINS_3RefIN6sentry20SentryEventProcessorEEEE14_copy_on_writeEv.cold.1, symObjAddr: 0x11C4C, symBinAddr: 0xF2850, symSize: 0xEC }
  - { offset: 0x165957, size: 0x8, addend: 0x0, symName: __ZN5godot6VectorINS_3RefIN6sentry20SentryEventProcessorEEEE9remove_atEx.cold.1, symObjAddr: 0x11D38, symBinAddr: 0xF293C, symSize: 0x60 }
  - { offset: 0x16599A, size: 0x8, addend: 0x0, symName: __ZN6sentry13SentryOptions7set_dsnERKN5godot6StringE, symObjAddr: 0xBAD0, symBinAddr: 0x2C9A0, symSize: 0x8 }
  - { offset: 0x1659CF, size: 0x8, addend: 0x0, symName: __ZNK6sentry13SentryOptions7get_dsnEv, symObjAddr: 0xBAD8, symBinAddr: 0x2C9A8, symSize: 0xC }
  - { offset: 0x165A58, size: 0x8, addend: 0x0, symName: __ZN5godot18create_method_bindIN6sentry13SentryOptionsEJRKNS_6StringEEEEPNS_10MethodBindEMT_FvDpT0_E.cold.1, symObjAddr: 0x11D98, symBinAddr: 0xF299C, symSize: 0x5C }
  - { offset: 0x165AE9, size: 0x8, addend: 0x0, symName: __ZN5godot18create_method_bindIN6sentry13SentryOptionsENS_6StringEJEEEPNS_10MethodBindEMT_KFT0_DpT1_E.cold.1, symObjAddr: 0x11DF4, symBinAddr: 0xF29F8, symSize: 0x5C }
  - { offset: 0x165B18, size: 0x8, addend: 0x0, symName: __ZNK6sentry13SentryOptions11get_releaseEv, symObjAddr: 0xC460, symBinAddr: 0x2CBF4, symSize: 0xC }
  - { offset: 0x165B3F, size: 0x8, addend: 0x0, symName: __ZN6sentry13SentryOptions8set_distERKN5godot6StringE, symObjAddr: 0xC46C, symBinAddr: 0x2CC00, symSize: 0x8 }
  - { offset: 0x165B74, size: 0x8, addend: 0x0, symName: __ZNK6sentry13SentryOptions8get_distEv, symObjAddr: 0xC474, symBinAddr: 0x2CC08, symSize: 0xC }
  - { offset: 0x165B9B, size: 0x8, addend: 0x0, symName: __ZN6sentry13SentryOptions17set_debug_enabledEb, symObjAddr: 0xC480, symBinAddr: 0x2CC14, symSize: 0x8 }
  - { offset: 0x165BCB, size: 0x8, addend: 0x0, symName: __ZNK6sentry13SentryOptions16is_debug_enabledEv, symObjAddr: 0xC488, symBinAddr: 0x2CC1C, symSize: 0x8 }
  - { offset: 0x165BF2, size: 0x8, addend: 0x0, symName: __ZN5godot18create_method_bindIN6sentry13SentryOptionsEJbEEEPNS_10MethodBindEMT_FvDpT0_E.cold.1, symObjAddr: 0x11E50, symBinAddr: 0xF2A54, symSize: 0x5C }
  - { offset: 0x165C83, size: 0x8, addend: 0x0, symName: __ZN5godot18create_method_bindIN6sentry13SentryOptionsEbJEEEPNS_10MethodBindEMT_KFT0_DpT1_E.cold.1, symObjAddr: 0x11EAC, symBinAddr: 0xF2AB0, symSize: 0x5C }
  - { offset: 0x165CB2, size: 0x8, addend: 0x0, symName: __ZN6sentry13SentryOptions20set_diagnostic_levelENS_5LevelE, symObjAddr: 0xC8E8, symBinAddr: 0x2CE64, symSize: 0x8 }
  - { offset: 0x165CE5, size: 0x8, addend: 0x0, symName: __ZNK6sentry13SentryOptions20get_diagnostic_levelEv, symObjAddr: 0xC8F0, symBinAddr: 0x2CE6C, symSize: 0x8 }
  - { offset: 0x165D6E, size: 0x8, addend: 0x0, symName: __ZN5godot18create_method_bindIN6sentry13SentryOptionsEJNS1_5LevelEEEEPNS_10MethodBindEMT_FvDpT0_E.cold.1, symObjAddr: 0x11F08, symBinAddr: 0xF2B0C, symSize: 0x5C }
  - { offset: 0x165DFF, size: 0x8, addend: 0x0, symName: __ZN5godot18create_method_bindIN6sentry13SentryOptionsENS1_5LevelEJEEEPNS_10MethodBindEMT_KFT0_DpT1_E.cold.1, symObjAddr: 0x11F64, symBinAddr: 0xF2B68, symSize: 0x5C }
  - { offset: 0x165E2E, size: 0x8, addend: 0x0, symName: __ZN6sentry13SentryOptions15set_environmentERKN5godot6StringE, symObjAddr: 0xD25C, symBinAddr: 0x2D0B4, symSize: 0x8 }
  - { offset: 0x165E63, size: 0x8, addend: 0x0, symName: __ZNK6sentry13SentryOptions15get_environmentEv, symObjAddr: 0xD264, symBinAddr: 0x2D0BC, symSize: 0xC }
  - { offset: 0x165E8A, size: 0x8, addend: 0x0, symName: __ZN6sentry13SentryOptions15set_sample_rateEd, symObjAddr: 0xD270, symBinAddr: 0x2D0C8, symSize: 0x8 }
  - { offset: 0x165EBE, size: 0x8, addend: 0x0, symName: __ZNK6sentry13SentryOptions15get_sample_rateEv, symObjAddr: 0xD278, symBinAddr: 0x2D0D0, symSize: 0x8 }
  - { offset: 0x165F45, size: 0x8, addend: 0x0, symName: __ZN5godot18create_method_bindIN6sentry13SentryOptionsEJdEEEPNS_10MethodBindEMT_FvDpT0_E.cold.1, symObjAddr: 0x11FC0, symBinAddr: 0xF2BC4, symSize: 0x5C }
  - { offset: 0x165F74, size: 0x8, addend: 0x0, symName: __ZNK5godot11MethodBindTIJdEE17gen_argument_typeEi, symObjAddr: 0xD394, symBinAddr: 0x2D1EC, symSize: 0x10 }
  - { offset: 0x165FAA, size: 0x8, addend: 0x0, symName: __ZNK5godot11MethodBindTIJdEE22gen_argument_type_infoEi, symObjAddr: 0xD3A4, symBinAddr: 0x2D1FC, symSize: 0x138 }
  - { offset: 0x1660E3, size: 0x8, addend: 0x0, symName: __ZNK5godot11MethodBindTIJdEE21get_argument_metadataEi, symObjAddr: 0xD4DC, symBinAddr: 0x2D334, symSize: 0x10 }
  - { offset: 0x166171, size: 0x8, addend: 0x0, symName: __ZNK5godot11MethodBindTIJdEE4callEPvPKPKvxR20GDExtensionCallError, symObjAddr: 0xD4EC, symBinAddr: 0x2D344, symSize: 0x40 }
  - { offset: 0x166231, size: 0x8, addend: 0x0, symName: __ZNK5godot11MethodBindTIJdEE7ptrcallEPvPKPKvS2_, symObjAddr: 0xD52C, symBinAddr: 0x2D384, symSize: 0x20 }
  - { offset: 0x166316, size: 0x8, addend: 0x0, symName: __ZN5godot11MethodBindTIJdEED1Ev, symObjAddr: 0xD54C, symBinAddr: 0x2D3A4, symSize: 0x4 }
  - { offset: 0x166339, size: 0x8, addend: 0x0, symName: __ZN5godot11MethodBindTIJdEED1Ev, symObjAddr: 0xD54C, symBinAddr: 0x2D3A4, symSize: 0x4 }
  - { offset: 0x166371, size: 0x8, addend: 0x0, symName: __ZN5godot11MethodBindTIJdEED0Ev, symObjAddr: 0xD550, symBinAddr: 0x2D3A8, symSize: 0x14 }
  - { offset: 0x166455, size: 0x8, addend: 0x0, symName: __ZN5godot18create_method_bindIN6sentry13SentryOptionsEdJEEEPNS_10MethodBindEMT_KFT0_DpT1_E.cold.1, symObjAddr: 0x1201C, symBinAddr: 0xF2C20, symSize: 0x5C }
  - { offset: 0x166484, size: 0x8, addend: 0x0, symName: __ZNK5godot13MethodBindTRCIdJEE17gen_argument_typeEi, symObjAddr: 0xD928, symBinAddr: 0x2D780, symSize: 0x8 }
  - { offset: 0x1664BA, size: 0x8, addend: 0x0, symName: __ZNK5godot13MethodBindTRCIdJEE22gen_argument_type_infoEi, symObjAddr: 0xD930, symBinAddr: 0x2D788, symSize: 0xF8 }
  - { offset: 0x16657D, size: 0x8, addend: 0x0, symName: __ZNK5godot13MethodBindTRCIdJEE21get_argument_metadataEi, symObjAddr: 0xDA28, symBinAddr: 0x2D880, symSize: 0xC }
  - { offset: 0x1665B3, size: 0x8, addend: 0x0, symName: __ZNK5godot13MethodBindTRCIdJEE4callEPvPKPKvxR20GDExtensionCallError, symObjAddr: 0xDA34, symBinAddr: 0x2D88C, symSize: 0xBC }
  - { offset: 0x1666CA, size: 0x8, addend: 0x0, symName: __ZNK5godot13MethodBindTRCIdJEE7ptrcallEPvPKPKvS2_, symObjAddr: 0xDAF0, symBinAddr: 0x2D948, symSize: 0x38 }
  - { offset: 0x1667B8, size: 0x8, addend: 0x0, symName: __ZN5godot13MethodBindTRCIdJEED1Ev, symObjAddr: 0xDB28, symBinAddr: 0x2D980, symSize: 0x4 }
  - { offset: 0x1667DB, size: 0x8, addend: 0x0, symName: __ZN5godot13MethodBindTRCIdJEED1Ev, symObjAddr: 0xDB28, symBinAddr: 0x2D980, symSize: 0x4 }
  - { offset: 0x166813, size: 0x8, addend: 0x0, symName: __ZN5godot13MethodBindTRCIdJEED0Ev, symObjAddr: 0xDB2C, symBinAddr: 0x2D984, symSize: 0x14 }
  - { offset: 0x16687B, size: 0x8, addend: 0x0, symName: __ZN6sentry13SentryOptions19set_max_breadcrumbsEi, symObjAddr: 0xDB40, symBinAddr: 0x2D998, symSize: 0x8 }
  - { offset: 0x1668AE, size: 0x8, addend: 0x0, symName: __ZNK6sentry13SentryOptions19get_max_breadcrumbsEv, symObjAddr: 0xDB48, symBinAddr: 0x2D9A0, symSize: 0x8 }
  - { offset: 0x1668D5, size: 0x8, addend: 0x0, symName: __ZN5godot18create_method_bindIN6sentry13SentryOptionsEJiEEEPNS_10MethodBindEMT_FvDpT0_E.cold.1, symObjAddr: 0x12078, symBinAddr: 0xF2C7C, symSize: 0x5C }
  - { offset: 0x166966, size: 0x8, addend: 0x0, symName: __ZN5godot18create_method_bindIN6sentry13SentryOptionsEiJEEEPNS_10MethodBindEMT_KFT0_DpT1_E.cold.1, symObjAddr: 0x120D4, symBinAddr: 0xF2CD8, symSize: 0x5C }
  - { offset: 0x166995, size: 0x8, addend: 0x0, symName: __ZN6sentry13SentryOptions20set_send_default_piiEb, symObjAddr: 0xDFB0, symBinAddr: 0x2DBE8, symSize: 0x8 }
  - { offset: 0x1669C5, size: 0x8, addend: 0x0, symName: __ZNK6sentry13SentryOptions27is_send_default_pii_enabledEv, symObjAddr: 0xDFB8, symBinAddr: 0x2DBF0, symSize: 0x8 }
  - { offset: 0x1669EC, size: 0x8, addend: 0x0, symName: __ZN6sentry13SentryOptions14set_attach_logEb, symObjAddr: 0xDFC0, symBinAddr: 0x2DBF8, symSize: 0x8 }
  - { offset: 0x166A1C, size: 0x8, addend: 0x0, symName: __ZNK6sentry13SentryOptions21is_attach_log_enabledEv, symObjAddr: 0xDFC8, symBinAddr: 0x2DC00, symSize: 0x8 }
  - { offset: 0x166A43, size: 0x8, addend: 0x0, symName: __ZN6sentry13SentryOptions21set_attach_screenshotEb, symObjAddr: 0xDFD0, symBinAddr: 0x2DC08, symSize: 0x8 }
  - { offset: 0x166A73, size: 0x8, addend: 0x0, symName: __ZNK6sentry13SentryOptions28is_attach_screenshot_enabledEv, symObjAddr: 0xDFD8, symBinAddr: 0x2DC10, symSize: 0x8 }
  - { offset: 0x166A9A, size: 0x8, addend: 0x0, symName: __ZN6sentry13SentryOptions20set_screenshot_levelENS_5LevelE, symObjAddr: 0xDFE0, symBinAddr: 0x2DC18, symSize: 0x8 }
  - { offset: 0x166ACD, size: 0x8, addend: 0x0, symName: __ZNK6sentry13SentryOptions20get_screenshot_levelEv, symObjAddr: 0xDFE8, symBinAddr: 0x2DC20, symSize: 0x8 }
  - { offset: 0x166AF4, size: 0x8, addend: 0x0, symName: __ZN6sentry13SentryOptions21set_attach_scene_treeEb, symObjAddr: 0xDFF0, symBinAddr: 0x2DC28, symSize: 0x8 }
  - { offset: 0x166B24, size: 0x8, addend: 0x0, symName: __ZNK6sentry13SentryOptions28is_attach_scene_tree_enabledEv, symObjAddr: 0xDFF8, symBinAddr: 0x2DC30, symSize: 0x8 }
  - { offset: 0x166BAD, size: 0x8, addend: 0x0, symName: __ZN5godot18create_method_bindIN6sentry13SentryOptionsEJRKNS_8CallableEEEEPNS_10MethodBindEMT_FvDpT0_E.cold.1, symObjAddr: 0x12130, symBinAddr: 0xF2D34, symSize: 0x5C }
  - { offset: 0x166BDC, size: 0x8, addend: 0x0, symName: __ZNK5godot11MethodBindTIJRKNS_8CallableEEE17gen_argument_typeEi, symObjAddr: 0xE114, symBinAddr: 0x2DD4C, symSize: 0x10 }
  - { offset: 0x166C12, size: 0x8, addend: 0x0, symName: __ZNK5godot11MethodBindTIJRKNS_8CallableEEE22gen_argument_type_infoEi, symObjAddr: 0xE124, symBinAddr: 0x2DD5C, symSize: 0x138 }
  - { offset: 0x166D4B, size: 0x8, addend: 0x0, symName: __ZNK5godot11MethodBindTIJRKNS_8CallableEEE21get_argument_metadataEi, symObjAddr: 0xE25C, symBinAddr: 0x2DE94, symSize: 0x8 }
  - { offset: 0x166D81, size: 0x8, addend: 0x0, symName: __ZNK5godot11MethodBindTIJRKNS_8CallableEEE4callEPvPKPKvxR20GDExtensionCallError, symObjAddr: 0xE264, symBinAddr: 0x2DE9C, symSize: 0x40 }
  - { offset: 0x166E41, size: 0x8, addend: 0x0, symName: __ZNK5godot11MethodBindTIJRKNS_8CallableEEE7ptrcallEPvPKPKvS5_, symObjAddr: 0xE2A4, symBinAddr: 0x2DEDC, symSize: 0x80 }
  - { offset: 0x166F3A, size: 0x8, addend: 0x0, symName: __ZN5godot11MethodBindTIJRKNS_8CallableEEED1Ev, symObjAddr: 0xE324, symBinAddr: 0x2DF5C, symSize: 0x4 }
  - { offset: 0x166F5D, size: 0x8, addend: 0x0, symName: __ZN5godot11MethodBindTIJRKNS_8CallableEEED1Ev, symObjAddr: 0xE324, symBinAddr: 0x2DF5C, symSize: 0x4 }
  - { offset: 0x166F95, size: 0x8, addend: 0x0, symName: __ZN5godot11MethodBindTIJRKNS_8CallableEEED0Ev, symObjAddr: 0xE328, symBinAddr: 0x2DF60, symSize: 0x14 }
  - { offset: 0x167079, size: 0x8, addend: 0x0, symName: __ZN5godot18create_method_bindIN6sentry13SentryOptionsENS_8CallableEJEEEPNS_10MethodBindEMT_KFT0_DpT1_E.cold.1, symObjAddr: 0x1218C, symBinAddr: 0xF2D90, symSize: 0x5C }
  - { offset: 0x1670A8, size: 0x8, addend: 0x0, symName: __ZNK5godot13MethodBindTRCINS_8CallableEJEE17gen_argument_typeEi, symObjAddr: 0xE710, symBinAddr: 0x2E348, symSize: 0x8 }
  - { offset: 0x1670DE, size: 0x8, addend: 0x0, symName: __ZNK5godot13MethodBindTRCINS_8CallableEJEE22gen_argument_type_infoEi, symObjAddr: 0xE718, symBinAddr: 0x2E350, symSize: 0xF8 }
  - { offset: 0x1671A1, size: 0x8, addend: 0x0, symName: __ZNK5godot13MethodBindTRCINS_8CallableEJEE21get_argument_metadataEi, symObjAddr: 0xE810, symBinAddr: 0x2E448, symSize: 0x8 }
  - { offset: 0x1671D7, size: 0x8, addend: 0x0, symName: __ZNK5godot13MethodBindTRCINS_8CallableEJEE4callEPvPKPKvxR20GDExtensionCallError, symObjAddr: 0xE818, symBinAddr: 0x2E450, symSize: 0xCC }
  - { offset: 0x1672D6, size: 0x8, addend: 0x0, symName: __ZNK5godot13MethodBindTRCINS_8CallableEJEE7ptrcallEPvPKPKvS3_, symObjAddr: 0xE8E4, symBinAddr: 0x2E51C, symSize: 0x80 }
  - { offset: 0x1673CA, size: 0x8, addend: 0x0, symName: __ZN5godot13MethodBindTRCINS_8CallableEJEED1Ev, symObjAddr: 0xE964, symBinAddr: 0x2E59C, symSize: 0x4 }
  - { offset: 0x1673ED, size: 0x8, addend: 0x0, symName: __ZN5godot13MethodBindTRCINS_8CallableEJEED1Ev, symObjAddr: 0xE964, symBinAddr: 0x2E59C, symSize: 0x4 }
  - { offset: 0x167425, size: 0x8, addend: 0x0, symName: __ZN5godot13MethodBindTRCINS_8CallableEJEED0Ev, symObjAddr: 0xE968, symBinAddr: 0x2E5A0, symSize: 0x14 }
  - { offset: 0x16748D, size: 0x8, addend: 0x0, symName: __ZN6sentry13SentryOptions21set_app_hang_trackingEb, symObjAddr: 0xE97C, symBinAddr: 0x2E5B4, symSize: 0x8 }
  - { offset: 0x1674BD, size: 0x8, addend: 0x0, symName: __ZNK6sentry13SentryOptions28is_app_hang_tracking_enabledEv, symObjAddr: 0xE984, symBinAddr: 0x2E5BC, symSize: 0x8 }
  - { offset: 0x1674E4, size: 0x8, addend: 0x0, symName: __ZN6sentry13SentryOptions24set_app_hang_timeout_secEd, symObjAddr: 0xE98C, symBinAddr: 0x2E5C4, symSize: 0x8 }
  - { offset: 0x167518, size: 0x8, addend: 0x0, symName: __ZNK6sentry13SentryOptions24get_app_hang_timeout_secEv, symObjAddr: 0xE994, symBinAddr: 0x2E5CC, symSize: 0x8 }
  - { offset: 0x16753D, size: 0x8, addend: 0x0, symName: __ZN6sentry13SentryOptions18set_logger_enabledEb, symObjAddr: 0xE99C, symBinAddr: 0x2E5D4, symSize: 0x8 }
  - { offset: 0x16756D, size: 0x8, addend: 0x0, symName: __ZNK6sentry13SentryOptions17is_logger_enabledEv, symObjAddr: 0xE9A4, symBinAddr: 0x2E5DC, symSize: 0x8 }
  - { offset: 0x167594, size: 0x8, addend: 0x0, symName: __ZN6sentry13SentryOptions25set_logger_include_sourceEb, symObjAddr: 0xE9AC, symBinAddr: 0x2E5E4, symSize: 0x8 }
  - { offset: 0x1675C4, size: 0x8, addend: 0x0, symName: __ZNK6sentry13SentryOptions32is_logger_include_source_enabledEv, symObjAddr: 0xE9B4, symBinAddr: 0x2E5EC, symSize: 0x8 }
  - { offset: 0x1675EB, size: 0x8, addend: 0x0, symName: __ZN6sentry13SentryOptions28set_logger_include_variablesEb, symObjAddr: 0xE9BC, symBinAddr: 0x2E5F4, symSize: 0x8 }
  - { offset: 0x16761B, size: 0x8, addend: 0x0, symName: __ZNK6sentry13SentryOptions35is_logger_include_variables_enabledEv, symObjAddr: 0xE9C4, symBinAddr: 0x2E5FC, symSize: 0x8 }
  - { offset: 0x167642, size: 0x8, addend: 0x0, symName: __ZN6sentry13SentryOptions34set_logger_messages_as_breadcrumbsEb, symObjAddr: 0xE9CC, symBinAddr: 0x2E604, symSize: 0x8 }
  - { offset: 0x167672, size: 0x8, addend: 0x0, symName: __ZNK6sentry13SentryOptions41is_logger_messages_as_breadcrumbs_enabledEv, symObjAddr: 0xE9D4, symBinAddr: 0x2E60C, symSize: 0x8 }
  - { offset: 0x167699, size: 0x8, addend: 0x0, symName: __ZN6sentry13SentryOptions21set_logger_event_maskEN5godot8BitFieldINS_14GodotErrorMaskEEE, symObjAddr: 0xE9DC, symBinAddr: 0x2E614, symSize: 0x8 }
  - { offset: 0x1676CC, size: 0x8, addend: 0x0, symName: __ZNK6sentry13SentryOptions21get_logger_event_maskEv, symObjAddr: 0xE9E4, symBinAddr: 0x2E61C, symSize: 0x8 }
  - { offset: 0x167755, size: 0x8, addend: 0x0, symName: __ZN5godot18create_method_bindIN6sentry13SentryOptionsEJNS_8BitFieldINS1_14GodotErrorMaskEEEEEEPNS_10MethodBindEMT_FvDpT0_E.cold.1, symObjAddr: 0x121E8, symBinAddr: 0xF2DEC, symSize: 0x5C }
  - { offset: 0x167784, size: 0x8, addend: 0x0, symName: __ZNK5godot11MethodBindTIJNS_8BitFieldIN6sentry14GodotErrorMaskEEEEE17gen_argument_typeEi, symObjAddr: 0xEB00, symBinAddr: 0x2E738, symSize: 0x10 }
  - { offset: 0x1677BA, size: 0x8, addend: 0x0, symName: __ZNK5godot11MethodBindTIJNS_8BitFieldIN6sentry14GodotErrorMaskEEEEE22gen_argument_type_infoEi, symObjAddr: 0xEB10, symBinAddr: 0x2E748, symSize: 0x138 }
  - { offset: 0x1678F3, size: 0x8, addend: 0x0, symName: __ZNK5godot11MethodBindTIJNS_8BitFieldIN6sentry14GodotErrorMaskEEEEE21get_argument_metadataEi, symObjAddr: 0xEC48, symBinAddr: 0x2E880, symSize: 0x8 }
  - { offset: 0x167929, size: 0x8, addend: 0x0, symName: __ZNK5godot11MethodBindTIJNS_8BitFieldIN6sentry14GodotErrorMaskEEEEE4callEPvPKPKvxR20GDExtensionCallError, symObjAddr: 0xEC50, symBinAddr: 0x2E888, symSize: 0x40 }
  - { offset: 0x1679E9, size: 0x8, addend: 0x0, symName: __ZNK5godot11MethodBindTIJNS_8BitFieldIN6sentry14GodotErrorMaskEEEEE7ptrcallEPvPKPKvS6_, symObjAddr: 0xEC90, symBinAddr: 0x2E8C8, symSize: 0x20 }
  - { offset: 0x167AD4, size: 0x8, addend: 0x0, symName: __ZN5godot11MethodBindTIJNS_8BitFieldIN6sentry14GodotErrorMaskEEEEED1Ev, symObjAddr: 0xECB0, symBinAddr: 0x2E8E8, symSize: 0x4 }
  - { offset: 0x167AF7, size: 0x8, addend: 0x0, symName: __ZN5godot11MethodBindTIJNS_8BitFieldIN6sentry14GodotErrorMaskEEEEED1Ev, symObjAddr: 0xECB0, symBinAddr: 0x2E8E8, symSize: 0x4 }
  - { offset: 0x167B2F, size: 0x8, addend: 0x0, symName: __ZN5godot11MethodBindTIJNS_8BitFieldIN6sentry14GodotErrorMaskEEEEED0Ev, symObjAddr: 0xECB4, symBinAddr: 0x2E8EC, symSize: 0x14 }
  - { offset: 0x167C0C, size: 0x8, addend: 0x0, symName: __ZN5godot18create_method_bindIN6sentry13SentryOptionsENS_8BitFieldINS1_14GodotErrorMaskEEEJEEEPNS_10MethodBindEMT_KFT0_DpT1_E.cold.1, symObjAddr: 0x12244, symBinAddr: 0xF2E48, symSize: 0x5C }
  - { offset: 0x167C3B, size: 0x8, addend: 0x0, symName: __ZNK5godot13MethodBindTRCINS_8BitFieldIN6sentry14GodotErrorMaskEEEJEE17gen_argument_typeEi, symObjAddr: 0xF114, symBinAddr: 0x2ED4C, symSize: 0x8 }
  - { offset: 0x167C71, size: 0x8, addend: 0x0, symName: __ZNK5godot13MethodBindTRCINS_8BitFieldIN6sentry14GodotErrorMaskEEEJEE22gen_argument_type_infoEi, symObjAddr: 0xF11C, symBinAddr: 0x2ED54, symSize: 0x4 }
  - { offset: 0x167CA8, size: 0x8, addend: 0x0, symName: __ZNK5godot13MethodBindTRCINS_8BitFieldIN6sentry14GodotErrorMaskEEEJEE22gen_argument_type_infoEi, symObjAddr: 0xF11C, symBinAddr: 0x2ED54, symSize: 0x4 }
  - { offset: 0x167CBB, size: 0x8, addend: 0x0, symName: __ZNK5godot13MethodBindTRCINS_8BitFieldIN6sentry14GodotErrorMaskEEEJEE21get_argument_metadataEi, symObjAddr: 0xF120, symBinAddr: 0x2ED58, symSize: 0x8 }
  - { offset: 0x167CF1, size: 0x8, addend: 0x0, symName: __ZNK5godot13MethodBindTRCINS_8BitFieldIN6sentry14GodotErrorMaskEEEJEE4callEPvPKPKvxR20GDExtensionCallError, symObjAddr: 0xF128, symBinAddr: 0x2ED60, symSize: 0xC0 }
  - { offset: 0x167E1E, size: 0x8, addend: 0x0, symName: __ZNK5godot13MethodBindTRCINS_8BitFieldIN6sentry14GodotErrorMaskEEEJEE7ptrcallEPvPKPKvS6_, symObjAddr: 0xF1E8, symBinAddr: 0x2EE20, symSize: 0x38 }
  - { offset: 0x167F0B, size: 0x8, addend: 0x0, symName: __ZN5godot13MethodBindTRCINS_8BitFieldIN6sentry14GodotErrorMaskEEEJEED1Ev, symObjAddr: 0xF220, symBinAddr: 0x2EE58, symSize: 0x4 }
  - { offset: 0x167F2E, size: 0x8, addend: 0x0, symName: __ZN5godot13MethodBindTRCINS_8BitFieldIN6sentry14GodotErrorMaskEEEJEED1Ev, symObjAddr: 0xF220, symBinAddr: 0x2EE58, symSize: 0x4 }
  - { offset: 0x167F66, size: 0x8, addend: 0x0, symName: __ZN5godot13MethodBindTRCINS_8BitFieldIN6sentry14GodotErrorMaskEEEJEED0Ev, symObjAddr: 0xF224, symBinAddr: 0x2EE5C, symSize: 0x14 }
  - { offset: 0x167FCE, size: 0x8, addend: 0x0, symName: __ZN6sentry13SentryOptions26set_logger_breadcrumb_maskEN5godot8BitFieldINS_14GodotErrorMaskEEE, symObjAddr: 0xF238, symBinAddr: 0x2EE70, symSize: 0x8 }
  - { offset: 0x168001, size: 0x8, addend: 0x0, symName: __ZNK6sentry13SentryOptions26get_logger_breadcrumb_maskEv, symObjAddr: 0xF240, symBinAddr: 0x2EE78, symSize: 0x8 }
  - { offset: 0x168072, size: 0x8, addend: 0x0, symName: __ZNK6sentry13SentryOptions17get_logger_limitsEv, symObjAddr: 0xF248, symBinAddr: 0x2EE80, symSize: 0x18 }
  - { offset: 0x16809B, size: 0x8, addend: 0x0, symName: __ZNK6sentry13SentryOptions17get_logger_limitsEv, symObjAddr: 0xF248, symBinAddr: 0x2EE80, symSize: 0x18 }
  - { offset: 0x1680BF, size: 0x8, addend: 0x0, symName: __ZNK6sentry13SentryOptions17get_logger_limitsEv, symObjAddr: 0xF248, symBinAddr: 0x2EE80, symSize: 0x18 }
  - { offset: 0x16816A, size: 0x8, addend: 0x0, symName: __ZN5godot18create_method_bindIN6sentry13SentryOptionsEJRKNS_3RefINS1_18SentryLoggerLimitsEEEEEEPNS_10MethodBindEMT_FvDpT0_E.cold.1, symObjAddr: 0x122A0, symBinAddr: 0xF2EA4, symSize: 0x5C }
  - { offset: 0x168199, size: 0x8, addend: 0x0, symName: __ZNK5godot11MethodBindTIJRKNS_3RefIN6sentry18SentryLoggerLimitsEEEEE17gen_argument_typeEi, symObjAddr: 0xF374, symBinAddr: 0x2EFAC, symSize: 0x10 }
  - { offset: 0x1681CF, size: 0x8, addend: 0x0, symName: __ZNK5godot11MethodBindTIJRKNS_3RefIN6sentry18SentryLoggerLimitsEEEEE22gen_argument_type_infoEi, symObjAddr: 0xF384, symBinAddr: 0x2EFBC, symSize: 0x138 }
  - { offset: 0x168308, size: 0x8, addend: 0x0, symName: __ZNK5godot11MethodBindTIJRKNS_3RefIN6sentry18SentryLoggerLimitsEEEEE21get_argument_metadataEi, symObjAddr: 0xF4BC, symBinAddr: 0x2F0F4, symSize: 0x8 }
  - { offset: 0x16833E, size: 0x8, addend: 0x0, symName: __ZNK5godot11MethodBindTIJRKNS_3RefIN6sentry18SentryLoggerLimitsEEEEE4callEPvPKPKvxR20GDExtensionCallError, symObjAddr: 0xF4C4, symBinAddr: 0x2F0FC, symSize: 0x40 }
  - { offset: 0x168441, size: 0x8, addend: 0x0, symName: __ZNK5godot11MethodBindTIJRKNS_3RefIN6sentry18SentryLoggerLimitsEEEEE7ptrcallEPvPKPKvS8_, symObjAddr: 0xF504, symBinAddr: 0x2F13C, symSize: 0xC0 }
  - { offset: 0x16866C, size: 0x8, addend: 0x0, symName: __ZN5godot11MethodBindTIJRKNS_3RefIN6sentry18SentryLoggerLimitsEEEEED1Ev, symObjAddr: 0xF5C4, symBinAddr: 0x2F1FC, symSize: 0x4 }
  - { offset: 0x16868F, size: 0x8, addend: 0x0, symName: __ZN5godot11MethodBindTIJRKNS_3RefIN6sentry18SentryLoggerLimitsEEEEED1Ev, symObjAddr: 0xF5C4, symBinAddr: 0x2F1FC, symSize: 0x4 }
  - { offset: 0x1686C7, size: 0x8, addend: 0x0, symName: __ZN5godot11MethodBindTIJRKNS_3RefIN6sentry18SentryLoggerLimitsEEEEED0Ev, symObjAddr: 0xF5C8, symBinAddr: 0x2F200, symSize: 0x14 }
  - { offset: 0x16872F, size: 0x8, addend: 0x0, symName: __ZN5godot11GetTypeInfoIRKNS_3RefIN6sentry18SentryLoggerLimitsEEEvE14get_class_infoEv, symObjAddr: 0xF6B0, symBinAddr: 0x2F2E8, symSize: 0x12C }
  - { offset: 0x1687D7, size: 0x8, addend: 0x0, symName: __ZN5godot11GetTypeInfoIRKNS_3RefIN6sentry18SentryLoggerLimitsEEEvE14get_class_infoEv.cold.1, symObjAddr: 0x122FC, symBinAddr: 0xF2F00, symSize: 0x58 }
  - { offset: 0x16887E, size: 0x8, addend: 0x0, symName: __ZN5godot6Object7cast_toIN6sentry18SentryLoggerLimitsEEEPT_PS0_, symObjAddr: 0xF94C, symBinAddr: 0x2F584, symSize: 0xE8 }
  - { offset: 0x168914, size: 0x8, addend: 0x0, symName: __ZN5godot6Object7cast_toIN6sentry18SentryLoggerLimitsEEEPT_PS0_.cold.1, symObjAddr: 0x12354, symBinAddr: 0xF2F58, symSize: 0x5C }
  - { offset: 0x1689A4, size: 0x8, addend: 0x0, symName: __ZN5godot18create_method_bindIN6sentry13SentryOptionsENS_3RefINS1_18SentryLoggerLimitsEEEJEEEPNS_10MethodBindEMT_KFT0_DpT1_E.cold.1, symObjAddr: 0x123B0, symBinAddr: 0xF2FB4, symSize: 0x5C }
  - { offset: 0x1689D3, size: 0x8, addend: 0x0, symName: __ZNK5godot13MethodBindTRCINS_3RefIN6sentry18SentryLoggerLimitsEEEJEE17gen_argument_typeEi, symObjAddr: 0xFB60, symBinAddr: 0x2F798, symSize: 0x8 }
  - { offset: 0x168A09, size: 0x8, addend: 0x0, symName: __ZNK5godot13MethodBindTRCINS_3RefIN6sentry18SentryLoggerLimitsEEEJEE22gen_argument_type_infoEi, symObjAddr: 0xFB68, symBinAddr: 0x2F7A0, symSize: 0x4 }
  - { offset: 0x168A40, size: 0x8, addend: 0x0, symName: __ZNK5godot13MethodBindTRCINS_3RefIN6sentry18SentryLoggerLimitsEEEJEE22gen_argument_type_infoEi, symObjAddr: 0xFB68, symBinAddr: 0x2F7A0, symSize: 0x4 }
  - { offset: 0x168A53, size: 0x8, addend: 0x0, symName: __ZN5godot11GetTypeInfoINS_3RefIN6sentry18SentryLoggerLimitsEEEvE14get_class_infoEv, symObjAddr: 0xFC8C, symBinAddr: 0x2F8C4, symSize: 0x12C }
  - { offset: 0x168AFB, size: 0x8, addend: 0x0, symName: __ZNK5godot13MethodBindTRCINS_3RefIN6sentry18SentryLoggerLimitsEEEJEE21get_argument_metadataEi, symObjAddr: 0xFB6C, symBinAddr: 0x2F7A4, symSize: 0x8 }
  - { offset: 0x168B31, size: 0x8, addend: 0x0, symName: __ZNK5godot13MethodBindTRCINS_3RefIN6sentry18SentryLoggerLimitsEEEJEE4callEPvPKPKvxR20GDExtensionCallError, symObjAddr: 0xFB74, symBinAddr: 0x2F7AC, symSize: 0x64 }
  - { offset: 0x168C19, size: 0x8, addend: 0x0, symName: __ZNK5godot13MethodBindTRCINS_3RefIN6sentry18SentryLoggerLimitsEEEJEE7ptrcallEPvPKPKvS6_, symObjAddr: 0xFBD8, symBinAddr: 0x2F810, symSize: 0x9C }
  - { offset: 0x168D8B, size: 0x8, addend: 0x0, symName: __ZNK5godot13MethodBindTRCINS_3RefIN6sentry18SentryLoggerLimitsEEEJEE7ptrcallEPvPKPKvS6_.cold.1, symObjAddr: 0x1240C, symBinAddr: 0xF3010, symSize: 0x30 }
  - { offset: 0x168E02, size: 0x8, addend: 0x0, symName: __ZN5godot13MethodBindTRCINS_3RefIN6sentry18SentryLoggerLimitsEEEJEED1Ev, symObjAddr: 0xFC74, symBinAddr: 0x2F8AC, symSize: 0x4 }
  - { offset: 0x168E25, size: 0x8, addend: 0x0, symName: __ZN5godot13MethodBindTRCINS_3RefIN6sentry18SentryLoggerLimitsEEEJEED1Ev, symObjAddr: 0xFC74, symBinAddr: 0x2F8AC, symSize: 0x4 }
  - { offset: 0x168E5D, size: 0x8, addend: 0x0, symName: __ZN5godot13MethodBindTRCINS_3RefIN6sentry18SentryLoggerLimitsEEEJEED0Ev, symObjAddr: 0xFC78, symBinAddr: 0x2F8B0, symSize: 0x14 }
  - { offset: 0x168EC5, size: 0x8, addend: 0x0, symName: __ZN5godot11GetTypeInfoINS_3RefIN6sentry18SentryLoggerLimitsEEEvE14get_class_infoEv.cold.1, symObjAddr: 0x1243C, symBinAddr: 0xF3040, symSize: 0x58 }
  - { offset: 0x168F0A, size: 0x8, addend: 0x0, symName: __ZN6sentry13SentryOptions15set_before_sendERKN5godot8CallableE, symObjAddr: 0xFE9C, symBinAddr: 0x2FAD4, symSize: 0x8 }
  - { offset: 0x168F3F, size: 0x8, addend: 0x0, symName: __ZNK6sentry13SentryOptions15get_before_sendEv, symObjAddr: 0xFEA4, symBinAddr: 0x2FADC, symSize: 0xC }
  - { offset: 0x168F66, size: 0x8, addend: 0x0, symName: __ZN6sentry13SentryOptions29set_before_capture_screenshotERKN5godot8CallableE, symObjAddr: 0xFEB0, symBinAddr: 0x2FAE8, symSize: 0x8 }
  - { offset: 0x168F9B, size: 0x8, addend: 0x0, symName: __ZNK6sentry13SentryOptions29get_before_capture_screenshotEv, symObjAddr: 0xFEB8, symBinAddr: 0x2FAF0, symSize: 0xC }
  - { offset: 0x16900C, size: 0x8, addend: 0x0, symName: __ZNK6sentry13SentryOptions16get_experimentalEv, symObjAddr: 0xFEC4, symBinAddr: 0x2FAFC, symSize: 0x18 }
  - { offset: 0x169035, size: 0x8, addend: 0x0, symName: __ZNK6sentry13SentryOptions16get_experimentalEv, symObjAddr: 0xFEC4, symBinAddr: 0x2FAFC, symSize: 0x18 }
  - { offset: 0x169059, size: 0x8, addend: 0x0, symName: __ZNK6sentry13SentryOptions16get_experimentalEv, symObjAddr: 0xFEC4, symBinAddr: 0x2FAFC, symSize: 0x18 }
  - { offset: 0x169104, size: 0x8, addend: 0x0, symName: __ZN5godot18create_method_bindIN6sentry13SentryOptionsENS_3RefINS1_18SentryExperimentalEEEJEEEPNS_10MethodBindEMT_KFT0_DpT1_E.cold.1, symObjAddr: 0x12494, symBinAddr: 0xF3098, symSize: 0x5C }
  - { offset: 0x169133, size: 0x8, addend: 0x0, symName: __ZNK5godot13MethodBindTRCINS_3RefIN6sentry18SentryExperimentalEEEJEE17gen_argument_typeEi, symObjAddr: 0x10008, symBinAddr: 0x2FC40, symSize: 0x8 }
  - { offset: 0x169169, size: 0x8, addend: 0x0, symName: __ZNK5godot13MethodBindTRCINS_3RefIN6sentry18SentryExperimentalEEEJEE22gen_argument_type_infoEi, symObjAddr: 0x10010, symBinAddr: 0x2FC48, symSize: 0x4 }
  - { offset: 0x1691A0, size: 0x8, addend: 0x0, symName: __ZNK5godot13MethodBindTRCINS_3RefIN6sentry18SentryExperimentalEEEJEE22gen_argument_type_infoEi, symObjAddr: 0x10010, symBinAddr: 0x2FC48, symSize: 0x4 }
  - { offset: 0x1691B3, size: 0x8, addend: 0x0, symName: __ZN5godot11GetTypeInfoINS_3RefIN6sentry18SentryExperimentalEEEvE14get_class_infoEv, symObjAddr: 0x10134, symBinAddr: 0x2FD6C, symSize: 0x12C }
  - { offset: 0x16925B, size: 0x8, addend: 0x0, symName: __ZNK5godot13MethodBindTRCINS_3RefIN6sentry18SentryExperimentalEEEJEE21get_argument_metadataEi, symObjAddr: 0x10014, symBinAddr: 0x2FC4C, symSize: 0x8 }
  - { offset: 0x169291, size: 0x8, addend: 0x0, symName: __ZNK5godot13MethodBindTRCINS_3RefIN6sentry18SentryExperimentalEEEJEE4callEPvPKPKvxR20GDExtensionCallError, symObjAddr: 0x1001C, symBinAddr: 0x2FC54, symSize: 0x64 }
  - { offset: 0x16937E, size: 0x8, addend: 0x0, symName: __ZNK5godot13MethodBindTRCINS_3RefIN6sentry18SentryExperimentalEEEJEE7ptrcallEPvPKPKvS6_, symObjAddr: 0x10080, symBinAddr: 0x2FCB8, symSize: 0x9C }
  - { offset: 0x1694F0, size: 0x8, addend: 0x0, symName: __ZNK5godot13MethodBindTRCINS_3RefIN6sentry18SentryExperimentalEEEJEE7ptrcallEPvPKPKvS6_.cold.1, symObjAddr: 0x124F0, symBinAddr: 0xF30F4, symSize: 0x30 }
  - { offset: 0x169567, size: 0x8, addend: 0x0, symName: __ZN5godot13MethodBindTRCINS_3RefIN6sentry18SentryExperimentalEEEJEED1Ev, symObjAddr: 0x1011C, symBinAddr: 0x2FD54, symSize: 0x4 }
  - { offset: 0x16958A, size: 0x8, addend: 0x0, symName: __ZN5godot13MethodBindTRCINS_3RefIN6sentry18SentryExperimentalEEEJEED1Ev, symObjAddr: 0x1011C, symBinAddr: 0x2FD54, symSize: 0x4 }
  - { offset: 0x1695C2, size: 0x8, addend: 0x0, symName: __ZN5godot13MethodBindTRCINS_3RefIN6sentry18SentryExperimentalEEEJEED0Ev, symObjAddr: 0x10120, symBinAddr: 0x2FD58, symSize: 0x14 }
  - { offset: 0x16962A, size: 0x8, addend: 0x0, symName: __ZN5godot11GetTypeInfoINS_3RefIN6sentry18SentryExperimentalEEEvE14get_class_infoEv.cold.1, symObjAddr: 0x12520, symBinAddr: 0xF3124, symSize: 0x58 }
  - { offset: 0x16968B, size: 0x8, addend: 0x0, symName: __ZN6sentry18SentryExperimentalD1Ev.cold.1, symObjAddr: 0x12578, symBinAddr: 0xF317C, symSize: 0x1C }
  - { offset: 0x1696A6, size: 0x8, addend: 0x0, symName: __ZN6sentry18SentryExperimentalD1Ev.cold.1, symObjAddr: 0x12578, symBinAddr: 0xF317C, symSize: 0x1C }
  - { offset: 0x1696BA, size: 0x8, addend: 0x0, symName: __ZN6sentry18SentryExperimentalD1Ev.cold.1, symObjAddr: 0x12578, symBinAddr: 0xF317C, symSize: 0x1C }
  - { offset: 0x1696CE, size: 0x8, addend: 0x0, symName: __ZN6sentry18SentryExperimentalD1Ev.cold.1, symObjAddr: 0x12578, symBinAddr: 0xF317C, symSize: 0x1C }
  - { offset: 0x1696E2, size: 0x8, addend: 0x0, symName: __ZN6sentry18SentryExperimentalD1Ev.cold.1, symObjAddr: 0x12578, symBinAddr: 0xF317C, symSize: 0x1C }
  - { offset: 0x1696F6, size: 0x8, addend: 0x0, symName: __ZN6sentry18SentryExperimentalD1Ev.cold.1, symObjAddr: 0x12578, symBinAddr: 0xF317C, symSize: 0x1C }
  - { offset: 0x16970B, size: 0x8, addend: 0x0, symName: __ZN6sentry18SentryExperimentalD1Ev.cold.1, symObjAddr: 0x12578, symBinAddr: 0xF317C, symSize: 0x1C }
  - { offset: 0x16973F, size: 0x8, addend: 0x0, symName: __ZN6sentry18SentryExperimentalD0Ev.cold.1, symObjAddr: 0x12594, symBinAddr: 0xF3198, symSize: 0x1C }
  - { offset: 0x16975A, size: 0x8, addend: 0x0, symName: __ZN6sentry18SentryExperimentalD0Ev.cold.1, symObjAddr: 0x12594, symBinAddr: 0xF3198, symSize: 0x1C }
  - { offset: 0x16976E, size: 0x8, addend: 0x0, symName: __ZN6sentry18SentryExperimentalD0Ev.cold.1, symObjAddr: 0x12594, symBinAddr: 0xF3198, symSize: 0x1C }
  - { offset: 0x169782, size: 0x8, addend: 0x0, symName: __ZN6sentry18SentryExperimentalD0Ev.cold.1, symObjAddr: 0x12594, symBinAddr: 0xF3198, symSize: 0x1C }
  - { offset: 0x169796, size: 0x8, addend: 0x0, symName: __ZN6sentry18SentryExperimentalD0Ev.cold.1, symObjAddr: 0x12594, symBinAddr: 0xF3198, symSize: 0x1C }
  - { offset: 0x1697AA, size: 0x8, addend: 0x0, symName: __ZN6sentry18SentryExperimentalD0Ev.cold.1, symObjAddr: 0x12594, symBinAddr: 0xF3198, symSize: 0x1C }
  - { offset: 0x1697BE, size: 0x8, addend: 0x0, symName: __ZN6sentry18SentryExperimentalD0Ev.cold.1, symObjAddr: 0x12594, symBinAddr: 0xF3198, symSize: 0x1C }
  - { offset: 0x1697D3, size: 0x8, addend: 0x0, symName: __ZN6sentry18SentryExperimentalD0Ev.cold.1, symObjAddr: 0x12594, symBinAddr: 0xF3198, symSize: 0x1C }
  - { offset: 0x1697F3, size: 0x8, addend: 0x0, symName: __GLOBAL__sub_I_sentry_options.cpp, symObjAddr: 0x128B0, symBinAddr: 0x3027C, symSize: 0x20 }
  - { offset: 0x16980B, size: 0x8, addend: 0x0, symName: __GLOBAL__sub_I_sentry_options.cpp, symObjAddr: 0x128B0, symBinAddr: 0x3027C, symSize: 0x20 }
  - { offset: 0x169857, size: 0x8, addend: 0x0, symName: _OUTLINED_FUNCTION_0, symObjAddr: 0x125B0, symBinAddr: 0x2FF7C, symSize: 0x10 }
  - { offset: 0x16986F, size: 0x8, addend: 0x0, symName: _OUTLINED_FUNCTION_1, symObjAddr: 0x125C0, symBinAddr: 0x2FF8C, symSize: 0xC }
  - { offset: 0x169887, size: 0x8, addend: 0x0, symName: _OUTLINED_FUNCTION_2, symObjAddr: 0x125CC, symBinAddr: 0x2FF98, symSize: 0xC }
  - { offset: 0x16989F, size: 0x8, addend: 0x0, symName: _OUTLINED_FUNCTION_3, symObjAddr: 0x125D8, symBinAddr: 0x2FFA4, symSize: 0x8 }
  - { offset: 0x1698B7, size: 0x8, addend: 0x0, symName: _OUTLINED_FUNCTION_4, symObjAddr: 0x125E0, symBinAddr: 0x2FFAC, symSize: 0x8 }
  - { offset: 0x1698CF, size: 0x8, addend: 0x0, symName: _OUTLINED_FUNCTION_5, symObjAddr: 0x125E8, symBinAddr: 0x2FFB4, symSize: 0x8 }
  - { offset: 0x1698E7, size: 0x8, addend: 0x0, symName: _OUTLINED_FUNCTION_6, symObjAddr: 0x125F0, symBinAddr: 0x2FFBC, symSize: 0x8 }
  - { offset: 0x1698FF, size: 0x8, addend: 0x0, symName: _OUTLINED_FUNCTION_7, symObjAddr: 0x125F8, symBinAddr: 0x2FFC4, symSize: 0xC }
  - { offset: 0x173519, size: 0x8, addend: 0x0, symName: __ZN5godot7vformatIJNS_6StringENS_5ErrorEEEES1_RKS1_DpKT_, symObjAddr: 0x3808, symBinAddr: 0x33AA4, symSize: 0xEC }
  - { offset: 0x17365E, size: 0x8, addend: 0x0, symName: __ZN5godot18create_method_bindIN6sentry9SentrySDKEJRKNS_8CallableEEEEPNS_10MethodBindEMT_FvDpT0_E, symObjAddr: 0x5868, symBinAddr: 0x343EC, symSize: 0x114 }
  - { offset: 0x1737A6, size: 0x8, addend: 0x0, symName: __ZN5godot18create_method_bindIN6sentry9SentrySDKEJEEEPNS_10MethodBindEMT_FvDpT0_E, symObjAddr: 0x5E4C, symBinAddr: 0x34500, symSize: 0x114 }
  - { offset: 0x1738D3, size: 0x8, addend: 0x0, symName: __ZN5godot18create_method_bindIN6sentry9SentrySDKEbJEEEPNS_10MethodBindEMT_KFT0_DpT1_E, symObjAddr: 0x6140, symBinAddr: 0x347F4, symSize: 0x12C }
  - { offset: 0x173A09, size: 0x8, addend: 0x0, symName: __ZN5godot18create_method_bindIN6sentry9SentrySDKEJRKNS_3RefINS1_16SentryBreadcrumbEEEEEEPNS_10MethodBindEMT_FvDpT0_E, symObjAddr: 0x6484, symBinAddr: 0x34920, symSize: 0x114 }
  - { offset: 0x173B3C, size: 0x8, addend: 0x0, symName: __ZN5godot18create_method_bindIN6sentry9SentrySDKENS_6StringEJRKS3_NS1_5LevelEEEEPNS_10MethodBindEMT_FT0_DpT1_E, symObjAddr: 0x6C58, symBinAddr: 0x350F4, symSize: 0x124 }
  - { offset: 0x173C7D, size: 0x8, addend: 0x0, symName: __ZN5godot18create_method_bindIN6sentry9SentrySDKENS_6StringEJEEEPNS_10MethodBindEMT_KFT0_DpT1_E, symObjAddr: 0x74B8, symBinAddr: 0x3570C, symSize: 0x12C }
  - { offset: 0x173DB3, size: 0x8, addend: 0x0, symName: __ZN5godot18create_method_bindIN6sentry9SentrySDKEJRKNS_6StringERKNS_10DictionaryEEEEPNS_10MethodBindEMT_FvDpT0_E, symObjAddr: 0x7850, symBinAddr: 0x35838, symSize: 0x118 }
  - { offset: 0x173EEB, size: 0x8, addend: 0x0, symName: __ZN5godot18create_method_bindIN6sentry9SentrySDKEJRKNS_6StringES5_EEEPNS_10MethodBindEMT_FvDpT0_E, symObjAddr: 0x7EDC, symBinAddr: 0x35D50, symSize: 0x118 }
  - { offset: 0x174023, size: 0x8, addend: 0x0, symName: __ZN5godot18create_method_bindIN6sentry9SentrySDKEJRKNS_6StringEEEEPNS_10MethodBindEMT_FvDpT0_E, symObjAddr: 0x83E0, symBinAddr: 0x35E68, symSize: 0x114 }
  - { offset: 0x174156, size: 0x8, addend: 0x0, symName: __ZN5godot18create_method_bindIN6sentry9SentrySDKEJRKNS_3RefINS1_10SentryUserEEEEEEPNS_10MethodBindEMT_FvDpT0_E, symObjAddr: 0x8850, symBinAddr: 0x35F7C, symSize: 0x114 }
  - { offset: 0x174289, size: 0x8, addend: 0x0, symName: __ZN5godot18create_method_bindIN6sentry9SentrySDKENS_3RefINS1_11SentryEventEEEJEEEPNS_10MethodBindEMT_KFT0_DpT1_E, symObjAddr: 0x9024, symBinAddr: 0x36750, symSize: 0x12C }
  - { offset: 0x1743BF, size: 0x8, addend: 0x0, symName: __ZN5godot18create_method_bindIN6sentry9SentrySDKENS_6StringEJRKNS_3RefINS1_11SentryEventEEEEEEPNS_10MethodBindEMT_FT0_DpT1_E, symObjAddr: 0x948C, symBinAddr: 0x36BB8, symSize: 0x120 }
  - { offset: 0x1744FB, size: 0x8, addend: 0x0, symName: __ZN5godot18create_method_bindIN6sentry9SentrySDKEJRKNS_3RefINS1_14SentryFeedbackEEEEEEPNS_10MethodBindEMT_FvDpT0_E, symObjAddr: 0x9D9C, symBinAddr: 0x374C8, symSize: 0x114 }
  - { offset: 0x17462E, size: 0x8, addend: 0x0, symName: __ZN5godot18create_method_bindIN6sentry9SentrySDKEJRKNS_3RefINS1_16SentryAttachmentEEEEEEPNS_10MethodBindEMT_FvDpT0_E, symObjAddr: 0xA570, symBinAddr: 0x37C9C, symSize: 0x114 }
  - { offset: 0x174761, size: 0x8, addend: 0x0, symName: __ZN5godot18create_method_bindIN6sentry9SentrySDKENS_8CallableEJEEEPNS_10MethodBindEMT_FT0_DpT1_E, symObjAddr: 0xAD44, symBinAddr: 0x38470, symSize: 0x120 }
  - { offset: 0x174897, size: 0x8, addend: 0x0, symName: __ZN5godot18create_method_bindIN6sentry9SentrySDKEPNS1_12SentryLoggerEJEEEPNS_10MethodBindEMT_KFT0_DpT1_E, symObjAddr: 0xB0D8, symBinAddr: 0x38598, symSize: 0x12C }
  - { offset: 0x1752CD, size: 0x8, addend: 0x0, symName: __ZN5godot34call_get_argument_type_info_helperIRKNS_3RefIN6sentry16SentryBreadcrumbEEEEEviRiRNS_12PropertyInfoE, symObjAddr: 0x6800, symBinAddr: 0x34C9C, symSize: 0xD4 }
  - { offset: 0x175385, size: 0x8, addend: 0x0, symName: __ZN5godot25call_with_variant_args_dvINS_20_gde_UnexistingClassEJRKNS_3RefIN6sentry16SentryBreadcrumbEEEEEEvPT_MS8_FvDpT0_EPKPKviR20GDExtensionCallErrorRKNSt3__16vectorINS_7VariantENSK_9allocatorISM_EEEE, symObjAddr: 0x6A00, symBinAddr: 0x34E9C, symSize: 0x170 }
  - { offset: 0x175A61, size: 0x8, addend: 0x0, symName: __ZN5godot29call_with_variant_args_ret_dvINS_20_gde_UnexistingClassENS_6StringEJRKS2_N6sentry5LevelEEEEvPT_MS7_FT0_DpT1_EPKPKviRNS_7VariantER20GDExtensionCallErrorRKNSt3__16vectorISI_NSM_9allocatorISI_EEEE, symObjAddr: 0x7274, symBinAddr: 0x354C8, symSize: 0x178 }
  - { offset: 0x175CAD, size: 0x8, addend: 0x0, symName: __ZN5godot33call_with_variant_args_ret_helperINS_20_gde_UnexistingClassENS_6StringEJRKS2_N6sentry5LevelEEJLm0ELm1EEEEvPT_MS7_FT0_DpT1_EPPKNS_7VariantERSE_R20GDExtensionCallErrorNS_13IndexSequenceIJXspT2_EEEE, symObjAddr: 0x73EC, symBinAddr: 0x35640, symSize: 0xCC }
  - { offset: 0x176134, size: 0x8, addend: 0x0, symName: __ZN5godot25call_with_variant_args_dvINS_20_gde_UnexistingClassEJRKNS_6StringERKNS_10DictionaryEEEEvPT_MS8_FvDpT0_EPKPKviR20GDExtensionCallErrorRKNSt3__16vectorINS_7VariantENSK_9allocatorISM_EEEE, symObjAddr: 0x7D3C, symBinAddr: 0x35BB0, symSize: 0x1A0 }
  - { offset: 0x1767A8, size: 0x8, addend: 0x0, symName: __ZN5godot34call_get_argument_type_info_helperIRKNS_3RefIN6sentry10SentryUserEEEEEviRiRNS_12PropertyInfoE, symObjAddr: 0x8BCC, symBinAddr: 0x362F8, symSize: 0xD4 }
  - { offset: 0x176860, size: 0x8, addend: 0x0, symName: __ZN5godot25call_with_variant_args_dvINS_20_gde_UnexistingClassEJRKNS_3RefIN6sentry10SentryUserEEEEEEvPT_MS8_FvDpT0_EPKPKviR20GDExtensionCallErrorRKNSt3__16vectorINS_7VariantENSK_9allocatorISM_EEEE, symObjAddr: 0x8DCC, symBinAddr: 0x364F8, symSize: 0x170 }
  - { offset: 0x176D7C, size: 0x8, addend: 0x0, symName: __ZN5godot30call_with_variant_args_retc_dvINS_20_gde_UnexistingClassENS_3RefIN6sentry11SentryEventEEEJEEEvPT_MS6_KFT0_DpT1_EPKPKviRNS_7VariantER20GDExtensionCallErrorRKNSt3__16vectorISH_NSL_9allocatorISH_EEEE, symObjAddr: 0x93A8, symBinAddr: 0x36AD4, symSize: 0xE4 }
  - { offset: 0x17723E, size: 0x8, addend: 0x0, symName: __ZN5godot34call_get_argument_type_info_helperIRKNS_3RefIN6sentry11SentryEventEEEEEviRiRNS_12PropertyInfoE, symObjAddr: 0x97AC, symBinAddr: 0x36ED8, symSize: 0xD4 }
  - { offset: 0x1772F6, size: 0x8, addend: 0x0, symName: __ZN5godot29call_with_variant_args_ret_dvINS_20_gde_UnexistingClassENS_6StringEJRKNS_3RefIN6sentry11SentryEventEEEEEEvPT_MS9_FT0_DpT1_EPKPKviRNS_7VariantER20GDExtensionCallErrorRKNSt3__16vectorISK_NSO_9allocatorISK_EEEE, symObjAddr: 0x99AC, symBinAddr: 0x370D8, symSize: 0x11C }
  - { offset: 0x1774B5, size: 0x8, addend: 0x0, symName: __ZN5godot29call_with_ptr_args_ret_helperINS_20_gde_UnexistingClassENS_6StringEJRKNS_3RefIN6sentry11SentryEventEEEEJLm0EEEEvPT_MS9_FT0_DpT1_EPKPKvPvNS_13IndexSequenceIJXspT2_EEEE, symObjAddr: 0x9CA8, symBinAddr: 0x373D4, symSize: 0xF4 }
  - { offset: 0x1776DB, size: 0x8, addend: 0x0, symName: __ZN5godot33call_with_variant_args_ret_helperINS_20_gde_UnexistingClassENS_6StringEJRKNS_3RefIN6sentry11SentryEventEEEEJLm0EEEEvPT_MS9_FT0_DpT1_EPPKNS_7VariantERSG_R20GDExtensionCallErrorNS_13IndexSequenceIJXspT2_EEEE, symObjAddr: 0x9AC8, symBinAddr: 0x371F4, symSize: 0xF8 }
  - { offset: 0x177A79, size: 0x8, addend: 0x0, symName: __ZN5godot34call_get_argument_type_info_helperIRKNS_3RefIN6sentry14SentryFeedbackEEEEEviRiRNS_12PropertyInfoE, symObjAddr: 0xA118, symBinAddr: 0x37844, symSize: 0xD4 }
  - { offset: 0x177B31, size: 0x8, addend: 0x0, symName: __ZN5godot25call_with_variant_args_dvINS_20_gde_UnexistingClassEJRKNS_3RefIN6sentry14SentryFeedbackEEEEEEvPT_MS8_FvDpT0_EPKPKviR20GDExtensionCallErrorRKNSt3__16vectorINS_7VariantENSK_9allocatorISM_EEEE, symObjAddr: 0xA318, symBinAddr: 0x37A44, symSize: 0x170 }
  - { offset: 0x178098, size: 0x8, addend: 0x0, symName: __ZN5godot34call_get_argument_type_info_helperIRKNS_3RefIN6sentry16SentryAttachmentEEEEEviRiRNS_12PropertyInfoE, symObjAddr: 0xA8EC, symBinAddr: 0x38018, symSize: 0xD4 }
  - { offset: 0x178150, size: 0x8, addend: 0x0, symName: __ZN5godot25call_with_variant_args_dvINS_20_gde_UnexistingClassEJRKNS_3RefIN6sentry16SentryAttachmentEEEEEEvPT_MS8_FvDpT0_EPKPKviR20GDExtensionCallErrorRKNSt3__16vectorINS_7VariantENSK_9allocatorISM_EEEE, symObjAddr: 0xAAEC, symBinAddr: 0x38218, symSize: 0x170 }
  - { offset: 0x1899AF, size: 0x8, addend: 0x0, symName: __ZN6sentry9SentrySDK9singletonE, symObjAddr: 0x189340, symBinAddr: 0x17D238, symSize: 0x0 }
  - { offset: 0x18A738, size: 0x8, addend: 0x0, symName: __ZN6sentry7logging5printIJPcEEEvNS_5LevelERKN5godot7VariantEDpRKT_, symObjAddr: 0x5088, symBinAddr: 0x33E80, symSize: 0x2A0 }
  - { offset: 0x18ACDD, size: 0x8, addend: 0x0, symName: __ZN6sentry7logging15print_no_loggerIJPcEEEvNS_5LevelERKN5godot7VariantEDpRKT_, symObjAddr: 0x5328, symBinAddr: 0x34120, symSize: 0x234 }
  - { offset: 0x18C4CC, size: 0x8, addend: 0x0, symName: __ZN5godot10FileAccess22_gde_binding_callbacksE, symObjAddr: 0xE598, symBinAddr: 0x16DE48, symSize: 0x0 }
  - { offset: 0x18D363, size: 0x8, addend: 0x0, symName: ___cxx_global_var_init, symObjAddr: 0xCCC0, symBinAddr: 0x38988, symSize: 0x4C }
  - { offset: 0x18D3E8, size: 0x8, addend: 0x0, symName: ___cxx_global_var_init.1, symObjAddr: 0xCD0C, symBinAddr: 0x389D4, symSize: 0x4C }
  - { offset: 0x18D46D, size: 0x8, addend: 0x0, symName: ___cxx_global_var_init.2, symObjAddr: 0xCD58, symBinAddr: 0x38A20, symSize: 0x4C }
  - { offset: 0x18D4F2, size: 0x8, addend: 0x0, symName: ___cxx_global_var_init.3, symObjAddr: 0xCDA4, symBinAddr: 0x38A6C, symSize: 0x4C }
  - { offset: 0x18D577, size: 0x8, addend: 0x0, symName: ___cxx_global_var_init.4, symObjAddr: 0xCDF0, symBinAddr: 0x38AB8, symSize: 0x4C }
  - { offset: 0x18D5FC, size: 0x8, addend: 0x0, symName: ___cxx_global_var_init.5, symObjAddr: 0xCE3C, symBinAddr: 0x38B04, symSize: 0x4C }
  - { offset: 0x18D681, size: 0x8, addend: 0x0, symName: ___cxx_global_var_init.6, symObjAddr: 0xCE88, symBinAddr: 0x38B50, symSize: 0x4C }
  - { offset: 0x18D706, size: 0x8, addend: 0x0, symName: ___cxx_global_var_init.7, symObjAddr: 0xCED4, symBinAddr: 0x38B9C, symSize: 0x4C }
  - { offset: 0x18D78B, size: 0x8, addend: 0x0, symName: ___cxx_global_var_init.8, symObjAddr: 0xCF20, symBinAddr: 0x38BE8, symSize: 0x4C }
  - { offset: 0x18D810, size: 0x8, addend: 0x0, symName: ___cxx_global_var_init.9, symObjAddr: 0xCF6C, symBinAddr: 0x38C34, symSize: 0x4C }
  - { offset: 0x18D895, size: 0x8, addend: 0x0, symName: ___cxx_global_var_init.10, symObjAddr: 0xCFB8, symBinAddr: 0x38C80, symSize: 0x4C }
  - { offset: 0x18D91A, size: 0x8, addend: 0x0, symName: ___cxx_global_var_init.11, symObjAddr: 0xD004, symBinAddr: 0x38CCC, symSize: 0x4C }
  - { offset: 0x18D9B6, size: 0x8, addend: 0x0, symName: __ZN6sentry9SentrySDK16create_singletonEv, symObjAddr: 0x0, symBinAddr: 0x3029C, symSize: 0x104 }
  - { offset: 0x18DA81, size: 0x8, addend: 0x0, symName: __ZN6sentry9SentrySDKC2Ev, symObjAddr: 0x3510, symBinAddr: 0x337AC, symSize: 0x1A4 }
  - { offset: 0x18DF46, size: 0x8, addend: 0x0, symName: __ZN6sentry9SentrySDK16create_singletonEv.cold.2, symObjAddr: 0xB514, symBinAddr: 0xF3258, symSize: 0x20 }
  - { offset: 0x18DF5E, size: 0x8, addend: 0x0, symName: __ZN6sentry9SentrySDK16create_singletonEv.cold.1, symObjAddr: 0xB4B8, symBinAddr: 0xF31FC, symSize: 0x5C }
  - { offset: 0x18DFCB, size: 0x8, addend: 0x0, symName: __ZN6sentry9SentrySDKC1Ev, symObjAddr: 0x104, symBinAddr: 0x303A0, symSize: 0x4 }
  - { offset: 0x18DFEE, size: 0x8, addend: 0x0, symName: __ZN6sentry9SentrySDKC1Ev, symObjAddr: 0x104, symBinAddr: 0x303A0, symSize: 0x4 }
  - { offset: 0x18E001, size: 0x8, addend: 0x0, symName: __ZN6sentry9SentrySDK17destroy_singletonEv, symObjAddr: 0x108, symBinAddr: 0x303A4, symSize: 0xC8 }
  - { offset: 0x18E04D, size: 0x8, addend: 0x0, symName: __ZN6sentry9SentrySDK17destroy_singletonEv.cold.1, symObjAddr: 0xB534, symBinAddr: 0xF3278, symSize: 0x20 }
  - { offset: 0x18E40C, size: 0x8, addend: 0x0, symName: __ZN6sentry9SentrySDK4initERKN5godot8CallableE, symObjAddr: 0x1D0, symBinAddr: 0x3046C, symSize: 0x248 }
  - { offset: 0x18E887, size: 0x8, addend: 0x0, symName: __ZN6sentry9SentrySDK23_get_global_attachmentsEv, symObjAddr: 0x418, symBinAddr: 0x306B4, symSize: 0x318 }
  - { offset: 0x18EBA8, size: 0x8, addend: 0x0, symName: __ZN6sentry9SentrySDK14_init_contextsEv, symObjAddr: 0x730, symBinAddr: 0x309CC, symSize: 0x1DC }
  - { offset: 0x18EDC5, size: 0x8, addend: 0x0, symName: __ZN5godot3RefIN6sentry7logging17SentryGodotLoggerEE11instantiateEv, symObjAddr: 0x90C, symBinAddr: 0x30BA8, symSize: 0x110 }
  - { offset: 0x18EF54, size: 0x8, addend: 0x0, symName: __ZN5godot6Object7cast_toINS_6LoggerEEEPT_PS0_, symObjAddr: 0x4FA0, symBinAddr: 0x33D98, symSize: 0xE8 }
  - { offset: 0x18EFEA, size: 0x8, addend: 0x0, symName: __ZN6sentry9SentrySDK4initERKN5godot8CallableE.cold.1, symObjAddr: 0xB554, symBinAddr: 0xF3298, symSize: 0x28 }
  - { offset: 0x18F170, size: 0x8, addend: 0x0, symName: __ZN5godot3RefIN6sentry7logging17SentryGodotLoggerEE11instantiateEv.cold.1, symObjAddr: 0xB57C, symBinAddr: 0xF32C0, symSize: 0x5C }
  - { offset: 0x18F1F3, size: 0x8, addend: 0x0, symName: __ZN6sentry9SentrySDK5closeEv, symObjAddr: 0xA1C, symBinAddr: 0x30CB8, symSize: 0x138 }
  - { offset: 0x18F46F, size: 0x8, addend: 0x0, symName: __ZN6sentry9SentrySDK15capture_messageERKN5godot6StringENS_5LevelE, symObjAddr: 0xB54, symBinAddr: 0x30DF0, symSize: 0x10 }
  - { offset: 0x18F4B6, size: 0x8, addend: 0x0, symName: __ZN6sentry9SentrySDK15capture_messageERKN5godot6StringENS_5LevelE, symObjAddr: 0xB54, symBinAddr: 0x30DF0, symSize: 0x10 }
  - { offset: 0x18F50F, size: 0x8, addend: 0x0, symName: __ZN6sentry9SentrySDK14add_breadcrumbERKN5godot3RefINS_16SentryBreadcrumbEEE, symObjAddr: 0xB64, symBinAddr: 0x30E00, symSize: 0x2C }
  - { offset: 0x18F549, size: 0x8, addend: 0x0, symName: __ZN6sentry9SentrySDK14add_breadcrumbERKN5godot3RefINS_16SentryBreadcrumbEEE, symObjAddr: 0xB64, symBinAddr: 0x30E00, symSize: 0x2C }
  - { offset: 0x18F59A, size: 0x8, addend: 0x0, symName: __ZN6sentry9SentrySDK14add_breadcrumbERKN5godot3RefINS_16SentryBreadcrumbEEE.cold.1, symObjAddr: 0xB5D8, symBinAddr: 0xF331C, symSize: 0x28 }
  - { offset: 0x18F5B2, size: 0x8, addend: 0x0, symName: __ZNK6sentry9SentrySDK17get_last_event_idEv, symObjAddr: 0xB90, symBinAddr: 0x30E2C, symSize: 0x10 }
  - { offset: 0x18F5DD, size: 0x8, addend: 0x0, symName: __ZNK6sentry9SentrySDK17get_last_event_idEv, symObjAddr: 0xB90, symBinAddr: 0x30E2C, symSize: 0x10 }
  - { offset: 0x18F60D, size: 0x8, addend: 0x0, symName: __ZNK6sentry9SentrySDK12create_eventEv, symObjAddr: 0xBA0, symBinAddr: 0x30E3C, symSize: 0x10 }
  - { offset: 0x18F638, size: 0x8, addend: 0x0, symName: __ZNK6sentry9SentrySDK12create_eventEv, symObjAddr: 0xBA0, symBinAddr: 0x30E3C, symSize: 0x10 }
  - { offset: 0x18F683, size: 0x8, addend: 0x0, symName: __ZN6sentry9SentrySDK13capture_eventERKN5godot3RefINS_11SentryEventEEE, symObjAddr: 0xBB0, symBinAddr: 0x30E4C, symSize: 0x30 }
  - { offset: 0x18F6BD, size: 0x8, addend: 0x0, symName: __ZN6sentry9SentrySDK13capture_eventERKN5godot3RefINS_11SentryEventEEE, symObjAddr: 0xBB0, symBinAddr: 0x30E4C, symSize: 0x30 }
  - { offset: 0x18F70E, size: 0x8, addend: 0x0, symName: __ZN6sentry9SentrySDK13capture_eventERKN5godot3RefINS_11SentryEventEEE.cold.1, symObjAddr: 0xB600, symBinAddr: 0xF3344, symSize: 0x50 }
  - { offset: 0x18F76D, size: 0x8, addend: 0x0, symName: __ZN6sentry9SentrySDK16capture_feedbackERKN5godot3RefINS_14SentryFeedbackEEE, symObjAddr: 0xBE0, symBinAddr: 0x30E7C, symSize: 0x100 }
  - { offset: 0x18F87F, size: 0x8, addend: 0x0, symName: __ZN6sentry9SentrySDK16capture_feedbackERKN5godot3RefINS_14SentryFeedbackEEE.cold.2, symObjAddr: 0xB688, symBinAddr: 0xF33CC, symSize: 0x28 }
  - { offset: 0x18F897, size: 0x8, addend: 0x0, symName: __ZN6sentry9SentrySDK16capture_feedbackERKN5godot3RefINS_14SentryFeedbackEEE.cold.1, symObjAddr: 0xB650, symBinAddr: 0xF3394, symSize: 0x38 }
  - { offset: 0x18F8CA, size: 0x8, addend: 0x0, symName: __ZN6sentry9SentrySDK14add_attachmentERKN5godot3RefINS_16SentryAttachmentEEE, symObjAddr: 0xCE0, symBinAddr: 0x30F7C, symSize: 0x2C }
  - { offset: 0x18F904, size: 0x8, addend: 0x0, symName: __ZN6sentry9SentrySDK14add_attachmentERKN5godot3RefINS_16SentryAttachmentEEE, symObjAddr: 0xCE0, symBinAddr: 0x30F7C, symSize: 0x2C }
  - { offset: 0x18F955, size: 0x8, addend: 0x0, symName: __ZN6sentry9SentrySDK14add_attachmentERKN5godot3RefINS_16SentryAttachmentEEE.cold.1, symObjAddr: 0xB6B0, symBinAddr: 0xF33F4, symSize: 0x28 }
  - { offset: 0x18F96D, size: 0x8, addend: 0x0, symName: __ZN6sentry9SentrySDK7set_tagERKN5godot6StringES4_, symObjAddr: 0xD0C, symBinAddr: 0x30FA8, symSize: 0x60 }
  - { offset: 0x18F9EB, size: 0x8, addend: 0x0, symName: __ZN6sentry9SentrySDK7set_tagERKN5godot6StringES4_.cold.1, symObjAddr: 0xB6D8, symBinAddr: 0xF341C, symSize: 0x28 }
  - { offset: 0x18FA03, size: 0x8, addend: 0x0, symName: __ZN6sentry9SentrySDK10remove_tagERKN5godot6StringE, symObjAddr: 0xD6C, symBinAddr: 0x31008, symSize: 0x4C }
  - { offset: 0x18FA72, size: 0x8, addend: 0x0, symName: __ZN6sentry9SentrySDK10remove_tagERKN5godot6StringE.cold.1, symObjAddr: 0xB700, symBinAddr: 0xF3444, symSize: 0x28 }
  - { offset: 0x18FA8A, size: 0x8, addend: 0x0, symName: __ZN6sentry9SentrySDK8set_userERKN5godot3RefINS_10SentryUserEEE, symObjAddr: 0xDB8, symBinAddr: 0x31054, symSize: 0x10 }
  - { offset: 0x18FAC3, size: 0x8, addend: 0x0, symName: __ZN6sentry9SentrySDK8set_userERKN5godot3RefINS_10SentryUserEEE, symObjAddr: 0xDB8, symBinAddr: 0x31054, symSize: 0x10 }
  - { offset: 0x18FAF3, size: 0x8, addend: 0x0, symName: __ZN6sentry9SentrySDK11remove_userEv, symObjAddr: 0xDC8, symBinAddr: 0x31064, symSize: 0x10 }
  - { offset: 0x18FB1E, size: 0x8, addend: 0x0, symName: __ZN6sentry9SentrySDK11remove_userEv, symObjAddr: 0xDC8, symBinAddr: 0x31064, symSize: 0x10 }
  - { offset: 0x18FB46, size: 0x8, addend: 0x0, symName: __ZN6sentry9SentrySDK11set_contextERKN5godot6StringERKNS1_10DictionaryE, symObjAddr: 0xDD8, symBinAddr: 0x31074, symSize: 0x60 }
  - { offset: 0x18FBC4, size: 0x8, addend: 0x0, symName: __ZN6sentry9SentrySDK11set_contextERKN5godot6StringERKNS1_10DictionaryE.cold.1, symObjAddr: 0xB728, symBinAddr: 0xF346C, symSize: 0x28 }
  - { offset: 0x18FC1E, size: 0x8, addend: 0x0, symName: __ZN6sentry9SentrySDK16_auto_initializeEv, symObjAddr: 0xE38, symBinAddr: 0x310D4, symSize: 0x384 }
  - { offset: 0x1901E8, size: 0x8, addend: 0x0, symName: __ZN6sentry9SentrySDK22_demo_helper_crash_appEv, symObjAddr: 0x11BC, symBinAddr: 0x31458, symSize: 0x88 }
  - { offset: 0x190424, size: 0x8, addend: 0x0, symName: __ZN6sentry9SentrySDK27prepare_and_auto_initializeEv, symObjAddr: 0x1244, symBinAddr: 0x314E0, symSize: 0x3EC }
  - { offset: 0x190C15, size: 0x8, addend: 0x0, symName: __ZN5godot3RefIN6sentry13RuntimeConfigEE11instantiateEv, symObjAddr: 0x1630, symBinAddr: 0x318CC, symSize: 0x110 }
  - { offset: 0x190DA6, size: 0x8, addend: 0x0, symName: __ZN12_GLOBAL__N_132_fix_unix_executable_permissionsERKN5godot6StringE, symObjAddr: 0x1BC8, symBinAddr: 0x31E64, symSize: 0xEC }
  - { offset: 0x190E6E, size: 0x8, addend: 0x0, symName: __ZN12_GLOBAL__N_124_verify_project_settingsEv, symObjAddr: 0x1740, symBinAddr: 0x319DC, symSize: 0x488 }
  - { offset: 0x191235, size: 0x8, addend: 0x0, symName: __ZN6sentry9SentrySDK27prepare_and_auto_initializeEv.cold.1, symObjAddr: 0xB750, symBinAddr: 0xF3494, symSize: 0x58 }
  - { offset: 0x1912A4, size: 0x8, addend: 0x0, symName: __ZN6sentry9SentrySDK27prepare_and_auto_initializeEv.cold.2, symObjAddr: 0xB7A8, symBinAddr: 0xF34EC, symSize: 0x58 }
  - { offset: 0x19141A, size: 0x8, addend: 0x0, symName: __ZN5godot3RefIN6sentry13RuntimeConfigEE11instantiateEv.cold.1, symObjAddr: 0xB800, symBinAddr: 0xF3544, symSize: 0x5C }
  - { offset: 0x19158B, size: 0x8, addend: 0x0, symName: __ZN12_GLOBAL__N_124_verify_project_settingsEv.cold.2, symObjAddr: 0xB87C, symBinAddr: 0xF35C0, symSize: 0x20 }
  - { offset: 0x1915A3, size: 0x8, addend: 0x0, symName: __ZN12_GLOBAL__N_124_verify_project_settingsEv.cold.1, symObjAddr: 0xB85C, symBinAddr: 0xF35A0, symSize: 0x20 }
  - { offset: 0x1915BB, size: 0x8, addend: 0x0, symName: __ZN6sentry9SentrySDK13_notificationEi, symObjAddr: 0x1CB4, symBinAddr: 0x31F50, symSize: 0xB8 }
  - { offset: 0x192675, size: 0x8, addend: 0x0, symName: __ZN6sentry9SentrySDK13_bind_methodsEv, symObjAddr: 0x1D6C, symBinAddr: 0x32008, symSize: 0x15E0 }
  - { offset: 0x196AFE, size: 0x8, addend: 0x0, symName: __ZN6sentry9SentrySDK13_bind_methodsEv.cold.1, symObjAddr: 0xB89C, symBinAddr: 0xF35E0, symSize: 0x5C }
  - { offset: 0x196B2D, size: 0x8, addend: 0x0, symName: __ZN6sentry9SentrySDK13_bind_methodsEv.cold.2, symObjAddr: 0xB8F8, symBinAddr: 0xF363C, symSize: 0x58 }
  - { offset: 0x196B5C, size: 0x8, addend: 0x0, symName: __ZN6sentry9SentrySDK13_bind_methodsEv.cold.3, symObjAddr: 0xB950, symBinAddr: 0xF3694, symSize: 0x58 }
  - { offset: 0x196B8B, size: 0x8, addend: 0x0, symName: __ZN6sentry9SentrySDK13_bind_methodsEv.cold.4, symObjAddr: 0xB9A8, symBinAddr: 0xF36EC, symSize: 0x58 }
  - { offset: 0x196BBA, size: 0x8, addend: 0x0, symName: __ZN6sentry9SentrySDK13_bind_methodsEv.cold.5, symObjAddr: 0xBA00, symBinAddr: 0xF3744, symSize: 0x58 }
  - { offset: 0x196BE9, size: 0x8, addend: 0x0, symName: __ZN6sentry9SentrySDK13_bind_methodsEv.cold.6, symObjAddr: 0xBA58, symBinAddr: 0xF379C, symSize: 0x58 }
  - { offset: 0x196C18, size: 0x8, addend: 0x0, symName: __ZNK6sentry9SentrySDK10is_enabledEv, symObjAddr: 0x334C, symBinAddr: 0x335E8, symSize: 0x10 }
  - { offset: 0x196C41, size: 0x8, addend: 0x0, symName: __ZNK6sentry9SentrySDK10is_enabledEv, symObjAddr: 0x334C, symBinAddr: 0x335E8, symSize: 0x10 }
  - { offset: 0x196C8A, size: 0x8, addend: 0x0, symName: __ZN6sentry9SentrySDK15set_before_sendERKN5godot8CallableE, symObjAddr: 0x335C, symBinAddr: 0x335F8, symSize: 0x78 }
  - { offset: 0x196DB7, size: 0x8, addend: 0x0, symName: __ZN6sentry9SentrySDK17unset_before_sendEv, symObjAddr: 0x33D4, symBinAddr: 0x33670, symSize: 0xC0 }
  - { offset: 0x196EE9, size: 0x8, addend: 0x0, symName: __ZN6sentry9SentrySDK15get_before_sendEv, symObjAddr: 0x3494, symBinAddr: 0x33730, symSize: 0x7C }
  - { offset: 0x1973BE, size: 0x8, addend: 0x0, symName: __ZN6sentry9SentrySDKC2Ev.cold.3, symObjAddr: 0xBB38, symBinAddr: 0xF387C, symSize: 0x30 }
  - { offset: 0x1973D6, size: 0x8, addend: 0x0, symName: __ZN6sentry9SentrySDKC2Ev.cold.2, symObjAddr: 0xBB08, symBinAddr: 0xF384C, symSize: 0x30 }
  - { offset: 0x1973EE, size: 0x8, addend: 0x0, symName: __ZN6sentry9SentrySDKC2Ev.cold.1, symObjAddr: 0xBAB0, symBinAddr: 0xF37F4, symSize: 0x58 }
  - { offset: 0x197537, size: 0x8, addend: 0x0, symName: __ZN6sentry9SentrySDKD2Ev, symObjAddr: 0x36B4, symBinAddr: 0x33950, symSize: 0x134 }
  - { offset: 0x19792A, size: 0x8, addend: 0x0, symName: __ZN6sentry9SentrySDKD2Ev.cold.1, symObjAddr: 0xBB68, symBinAddr: 0xF38AC, symSize: 0x1C }
  - { offset: 0x197946, size: 0x8, addend: 0x0, symName: __ZN6sentry9SentrySDKD2Ev.cold.1, symObjAddr: 0xBB68, symBinAddr: 0xF38AC, symSize: 0x1C }
  - { offset: 0x19795B, size: 0x8, addend: 0x0, symName: __ZN6sentry9SentrySDKD2Ev.cold.1, symObjAddr: 0xBB68, symBinAddr: 0xF38AC, symSize: 0x1C }
  - { offset: 0x19796F, size: 0x8, addend: 0x0, symName: __ZN6sentry9SentrySDKD2Ev.cold.1, symObjAddr: 0xBB68, symBinAddr: 0xF38AC, symSize: 0x1C }
  - { offset: 0x197984, size: 0x8, addend: 0x0, symName: __ZN6sentry9SentrySDKD2Ev.cold.1, symObjAddr: 0xBB68, symBinAddr: 0xF38AC, symSize: 0x1C }
  - { offset: 0x19799A, size: 0x8, addend: 0x0, symName: __ZN6sentry9SentrySDKD1Ev, symObjAddr: 0x37E8, symBinAddr: 0x33A84, symSize: 0x4 }
  - { offset: 0x1979BD, size: 0x8, addend: 0x0, symName: __ZN6sentry9SentrySDKD1Ev, symObjAddr: 0x37E8, symBinAddr: 0x33A84, symSize: 0x4 }
  - { offset: 0x1979ED, size: 0x8, addend: 0x0, symName: __ZN6sentry9SentrySDKD0Ev, symObjAddr: 0x37EC, symBinAddr: 0x33A88, symSize: 0x14 }
  - { offset: 0x197A4D, size: 0x8, addend: 0x0, symName: __ZNK6sentry9SentrySDK19_is_extension_classEv, symObjAddr: 0x3800, symBinAddr: 0x33A9C, symSize: 0x8 }
  - { offset: 0x197E98, size: 0x8, addend: 0x0, symName: __ZN5godot6ObjectD1Ev.cold.1, symObjAddr: 0xBB84, symBinAddr: 0xF38C8, symSize: 0x1C }
  - { offset: 0x197EB3, size: 0x8, addend: 0x0, symName: __ZN5godot6ObjectD1Ev.cold.1, symObjAddr: 0xBB84, symBinAddr: 0xF38C8, symSize: 0x1C }
  - { offset: 0x197EC7, size: 0x8, addend: 0x0, symName: __ZN5godot6ObjectD1Ev.cold.1, symObjAddr: 0xBB84, symBinAddr: 0xF38C8, symSize: 0x1C }
  - { offset: 0x197EDB, size: 0x8, addend: 0x0, symName: __ZN5godot6ObjectD1Ev.cold.1, symObjAddr: 0xBB84, symBinAddr: 0xF38C8, symSize: 0x1C }
  - { offset: 0x197EF0, size: 0x8, addend: 0x0, symName: __ZN5godot6ObjectD1Ev.cold.1, symObjAddr: 0xBB84, symBinAddr: 0xF38C8, symSize: 0x1C }
  - { offset: 0x197F20, size: 0x8, addend: 0x0, symName: __ZN5godot6ObjectD0Ev.cold.1, symObjAddr: 0xBBA0, symBinAddr: 0xF38E4, symSize: 0x1C }
  - { offset: 0x197F3B, size: 0x8, addend: 0x0, symName: __ZN5godot6ObjectD0Ev.cold.1, symObjAddr: 0xBBA0, symBinAddr: 0xF38E4, symSize: 0x1C }
  - { offset: 0x197F4F, size: 0x8, addend: 0x0, symName: __ZN5godot6ObjectD0Ev.cold.1, symObjAddr: 0xBBA0, symBinAddr: 0xF38E4, symSize: 0x1C }
  - { offset: 0x197F63, size: 0x8, addend: 0x0, symName: __ZN5godot6ObjectD0Ev.cold.1, symObjAddr: 0xBBA0, symBinAddr: 0xF38E4, symSize: 0x1C }
  - { offset: 0x197F77, size: 0x8, addend: 0x0, symName: __ZN5godot6ObjectD0Ev.cold.1, symObjAddr: 0xBBA0, symBinAddr: 0xF38E4, symSize: 0x1C }
  - { offset: 0x197F8C, size: 0x8, addend: 0x0, symName: __ZN5godot6ObjectD0Ev.cold.1, symObjAddr: 0xBBA0, symBinAddr: 0xF38E4, symSize: 0x1C }
  - { offset: 0x197FA3, size: 0x8, addend: 0x0, symName: __ZN5godot7WrappedD1Ev.cold.1, symObjAddr: 0xBBBC, symBinAddr: 0xF3900, symSize: 0x1C }
  - { offset: 0x197FBE, size: 0x8, addend: 0x0, symName: __ZN5godot7WrappedD1Ev.cold.1, symObjAddr: 0xBBBC, symBinAddr: 0xF3900, symSize: 0x1C }
  - { offset: 0x197FD2, size: 0x8, addend: 0x0, symName: __ZN5godot7WrappedD1Ev.cold.1, symObjAddr: 0xBBBC, symBinAddr: 0xF3900, symSize: 0x1C }
  - { offset: 0x197FE7, size: 0x8, addend: 0x0, symName: __ZN5godot7WrappedD1Ev.cold.1, symObjAddr: 0xBBBC, symBinAddr: 0xF3900, symSize: 0x1C }
  - { offset: 0x198016, size: 0x8, addend: 0x0, symName: __ZN5godot7WrappedD0Ev.cold.1, symObjAddr: 0xBBD8, symBinAddr: 0xF391C, symSize: 0x1C }
  - { offset: 0x198031, size: 0x8, addend: 0x0, symName: __ZN5godot7WrappedD0Ev.cold.1, symObjAddr: 0xBBD8, symBinAddr: 0xF391C, symSize: 0x1C }
  - { offset: 0x198045, size: 0x8, addend: 0x0, symName: __ZN5godot7WrappedD0Ev.cold.1, symObjAddr: 0xBBD8, symBinAddr: 0xF391C, symSize: 0x1C }
  - { offset: 0x198059, size: 0x8, addend: 0x0, symName: __ZN5godot7WrappedD0Ev.cold.1, symObjAddr: 0xBBD8, symBinAddr: 0xF391C, symSize: 0x1C }
  - { offset: 0x19806E, size: 0x8, addend: 0x0, symName: __ZN5godot7WrappedD0Ev.cold.1, symObjAddr: 0xBBD8, symBinAddr: 0xF391C, symSize: 0x1C }
  - { offset: 0x1980BC, size: 0x8, addend: 0x0, symName: __ZN5godot4ListINS_12PropertyInfoENS_16DefaultAllocatorEE5_Data5eraseEPNS3_7ElementE.cold.2, symObjAddr: 0xBC14, symBinAddr: 0xF3958, symSize: 0x20 }
  - { offset: 0x1980D4, size: 0x8, addend: 0x0, symName: __ZN5godot4ListINS_12PropertyInfoENS_16DefaultAllocatorEE5_Data5eraseEPNS3_7ElementE.cold.1, symObjAddr: 0xBBF4, symBinAddr: 0xF3938, symSize: 0x20 }
  - { offset: 0x1980F3, size: 0x8, addend: 0x0, symName: __ZN5godot8internal23EngineClassRegistrationINS_6ObjectEE8callbackEv.cold.1, symObjAddr: 0xBC34, symBinAddr: 0xF3978, symSize: 0x5C }
  - { offset: 0x19814D, size: 0x8, addend: 0x0, symName: __ZN5godot8internal23EngineClassRegistrationINS_16ClassDBSingletonEE8callbackEv.cold.1, symObjAddr: 0xBC90, symBinAddr: 0xF39D4, symSize: 0x5C }
  - { offset: 0x198182, size: 0x8, addend: 0x0, symName: __ZN5godot8internal23EngineClassRegistrationINS_10RefCountedEE8callbackEv.cold.1, symObjAddr: 0xBCEC, symBinAddr: 0xF3A30, symSize: 0x5C }
  - { offset: 0x1981F1, size: 0x8, addend: 0x0, symName: __ZN5godot10RefCountedD1Ev.cold.1, symObjAddr: 0xBD48, symBinAddr: 0xF3A8C, symSize: 0x1C }
  - { offset: 0x19820C, size: 0x8, addend: 0x0, symName: __ZN5godot10RefCountedD1Ev.cold.1, symObjAddr: 0xBD48, symBinAddr: 0xF3A8C, symSize: 0x1C }
  - { offset: 0x198220, size: 0x8, addend: 0x0, symName: __ZN5godot10RefCountedD1Ev.cold.1, symObjAddr: 0xBD48, symBinAddr: 0xF3A8C, symSize: 0x1C }
  - { offset: 0x198234, size: 0x8, addend: 0x0, symName: __ZN5godot10RefCountedD1Ev.cold.1, symObjAddr: 0xBD48, symBinAddr: 0xF3A8C, symSize: 0x1C }
  - { offset: 0x198248, size: 0x8, addend: 0x0, symName: __ZN5godot10RefCountedD1Ev.cold.1, symObjAddr: 0xBD48, symBinAddr: 0xF3A8C, symSize: 0x1C }
  - { offset: 0x19825D, size: 0x8, addend: 0x0, symName: __ZN5godot10RefCountedD1Ev.cold.1, symObjAddr: 0xBD48, symBinAddr: 0xF3A8C, symSize: 0x1C }
  - { offset: 0x198290, size: 0x8, addend: 0x0, symName: __ZN5godot10RefCountedD0Ev.cold.1, symObjAddr: 0xBD64, symBinAddr: 0xF3AA8, symSize: 0x1C }
  - { offset: 0x1982AB, size: 0x8, addend: 0x0, symName: __ZN5godot10RefCountedD0Ev.cold.1, symObjAddr: 0xBD64, symBinAddr: 0xF3AA8, symSize: 0x1C }
  - { offset: 0x1982BF, size: 0x8, addend: 0x0, symName: __ZN5godot10RefCountedD0Ev.cold.1, symObjAddr: 0xBD64, symBinAddr: 0xF3AA8, symSize: 0x1C }
  - { offset: 0x1982D3, size: 0x8, addend: 0x0, symName: __ZN5godot10RefCountedD0Ev.cold.1, symObjAddr: 0xBD64, symBinAddr: 0xF3AA8, symSize: 0x1C }
  - { offset: 0x1982E7, size: 0x8, addend: 0x0, symName: __ZN5godot10RefCountedD0Ev.cold.1, symObjAddr: 0xBD64, symBinAddr: 0xF3AA8, symSize: 0x1C }
  - { offset: 0x1982FB, size: 0x8, addend: 0x0, symName: __ZN5godot10RefCountedD0Ev.cold.1, symObjAddr: 0xBD64, symBinAddr: 0xF3AA8, symSize: 0x1C }
  - { offset: 0x198310, size: 0x8, addend: 0x0, symName: __ZN5godot10RefCountedD0Ev.cold.1, symObjAddr: 0xBD64, symBinAddr: 0xF3AA8, symSize: 0x1C }
  - { offset: 0x19832F, size: 0x8, addend: 0x0, symName: __ZN5godot8internal23EngineClassRegistrationINS_6LoggerEE8callbackEv.cold.1, symObjAddr: 0xBD80, symBinAddr: 0xF3AC4, symSize: 0x5C }
  - { offset: 0x198364, size: 0x8, addend: 0x0, symName: __ZN5godot8internal23EngineClassRegistrationINS_15ScriptBacktraceEE8callbackEv.cold.1, symObjAddr: 0xBDDC, symBinAddr: 0xF3B20, symSize: 0x5C }
  - { offset: 0x1983AE, size: 0x8, addend: 0x0, symName: __ZN5godot15ScriptBacktraceD1Ev.cold.1, symObjAddr: 0xBE38, symBinAddr: 0xF3B7C, symSize: 0x1C }
  - { offset: 0x1983C9, size: 0x8, addend: 0x0, symName: __ZN5godot15ScriptBacktraceD1Ev.cold.1, symObjAddr: 0xBE38, symBinAddr: 0xF3B7C, symSize: 0x1C }
  - { offset: 0x1983DD, size: 0x8, addend: 0x0, symName: __ZN5godot15ScriptBacktraceD1Ev.cold.1, symObjAddr: 0xBE38, symBinAddr: 0xF3B7C, symSize: 0x1C }
  - { offset: 0x1983F1, size: 0x8, addend: 0x0, symName: __ZN5godot15ScriptBacktraceD1Ev.cold.1, symObjAddr: 0xBE38, symBinAddr: 0xF3B7C, symSize: 0x1C }
  - { offset: 0x198405, size: 0x8, addend: 0x0, symName: __ZN5godot15ScriptBacktraceD1Ev.cold.1, symObjAddr: 0xBE38, symBinAddr: 0xF3B7C, symSize: 0x1C }
  - { offset: 0x198419, size: 0x8, addend: 0x0, symName: __ZN5godot15ScriptBacktraceD1Ev.cold.1, symObjAddr: 0xBE38, symBinAddr: 0xF3B7C, symSize: 0x1C }
  - { offset: 0x19842E, size: 0x8, addend: 0x0, symName: __ZN5godot15ScriptBacktraceD1Ev.cold.1, symObjAddr: 0xBE38, symBinAddr: 0xF3B7C, symSize: 0x1C }
  - { offset: 0x198462, size: 0x8, addend: 0x0, symName: __ZN5godot15ScriptBacktraceD0Ev.cold.1, symObjAddr: 0xBE54, symBinAddr: 0xF3B98, symSize: 0x1C }
  - { offset: 0x19847D, size: 0x8, addend: 0x0, symName: __ZN5godot15ScriptBacktraceD0Ev.cold.1, symObjAddr: 0xBE54, symBinAddr: 0xF3B98, symSize: 0x1C }
  - { offset: 0x198491, size: 0x8, addend: 0x0, symName: __ZN5godot15ScriptBacktraceD0Ev.cold.1, symObjAddr: 0xBE54, symBinAddr: 0xF3B98, symSize: 0x1C }
  - { offset: 0x1984A5, size: 0x8, addend: 0x0, symName: __ZN5godot15ScriptBacktraceD0Ev.cold.1, symObjAddr: 0xBE54, symBinAddr: 0xF3B98, symSize: 0x1C }
  - { offset: 0x1984B9, size: 0x8, addend: 0x0, symName: __ZN5godot15ScriptBacktraceD0Ev.cold.1, symObjAddr: 0xBE54, symBinAddr: 0xF3B98, symSize: 0x1C }
  - { offset: 0x1984CD, size: 0x8, addend: 0x0, symName: __ZN5godot15ScriptBacktraceD0Ev.cold.1, symObjAddr: 0xBE54, symBinAddr: 0xF3B98, symSize: 0x1C }
  - { offset: 0x1984E1, size: 0x8, addend: 0x0, symName: __ZN5godot15ScriptBacktraceD0Ev.cold.1, symObjAddr: 0xBE54, symBinAddr: 0xF3B98, symSize: 0x1C }
  - { offset: 0x1984F6, size: 0x8, addend: 0x0, symName: __ZN5godot15ScriptBacktraceD0Ev.cold.1, symObjAddr: 0xBE54, symBinAddr: 0xF3B98, symSize: 0x1C }
  - { offset: 0x198516, size: 0x8, addend: 0x0, symName: __ZN5godot8internal23EngineClassRegistrationINS_10ConfigFileEE8callbackEv.cold.1, symObjAddr: 0xBE70, symBinAddr: 0xF3BB4, symSize: 0x5C }
  - { offset: 0x198560, size: 0x8, addend: 0x0, symName: __ZN5godot10ConfigFileD1Ev.cold.1, symObjAddr: 0xBECC, symBinAddr: 0xF3C10, symSize: 0x1C }
  - { offset: 0x19857B, size: 0x8, addend: 0x0, symName: __ZN5godot10ConfigFileD1Ev.cold.1, symObjAddr: 0xBECC, symBinAddr: 0xF3C10, symSize: 0x1C }
  - { offset: 0x19858F, size: 0x8, addend: 0x0, symName: __ZN5godot10ConfigFileD1Ev.cold.1, symObjAddr: 0xBECC, symBinAddr: 0xF3C10, symSize: 0x1C }
  - { offset: 0x1985A3, size: 0x8, addend: 0x0, symName: __ZN5godot10ConfigFileD1Ev.cold.1, symObjAddr: 0xBECC, symBinAddr: 0xF3C10, symSize: 0x1C }
  - { offset: 0x1985B7, size: 0x8, addend: 0x0, symName: __ZN5godot10ConfigFileD1Ev.cold.1, symObjAddr: 0xBECC, symBinAddr: 0xF3C10, symSize: 0x1C }
